Trying to open 'A:/re/ida/x/examen-level-12/level-12.exe'..
FileFormat: raw, Arch: Ia32
Using the Nasm syntax..

Wait a few seconds, rp++ is looking for gadgets..
in .raw
840 found.

A total of 840 gadgets found.
0x00000b39: adc al, 0x30 ; inc eax ; add bl, ch ; lea ax, word [ebp-0x0C] ; push eax ; call dword [0x00402008] ;  (1 found)
0x00000ba1: adc al, 0x30 ; inc eax ; add byte [edi+0x5E], bl ; mov esp, ebp ; pop ebp ; ret  ;  (1 found)
0x00001080: adc byte [eax], ah ; inc eax ; add byte [eax-0x01], dl ; adc eax, 0x0040200C ; pop ebp ; ret  ;  (1 found)
0x0000103d: adc byte [eax], dh ; inc eax ; add byte [ebx], dh ; rcr byte [ebx-0x75], 0xFFFFFFE5 ; pop ebp ; ret  ;  (1 found)
0x000005ba: adc byte [ebp-0x0002677B], cl ; call dword [eax-0x18] ;  (1 found)
0x000004ad: adc byte [edx-0x01], dl ; adc eax, 0x004020BC ; add esp, 0x18 ; pop ebp ; ret  ;  (1 found)
0x00000b5c: adc eax, 0x00402000 ; xor dword [ebp-0x04], eax ; lea eax, dword [ebp-0x14] ; push eax ; call dword [0x0040202C] ;  (1 found)
0x00000b53: adc eax, 0x00402004 ; xor dword [ebp-0x04], eax ; call dword [0x00402000] ;  (1 found)
0x00000b44: adc eax, 0x00402008 ; mov eax, dword [ebp-0x08] ; xor eax, dword [ebp-0x0C] ; mov dword [ebp-0x04], eax ; call dword [0x00402004] ;  (1 found)
0x00001086: adc eax, 0x0040200C ; pop ebp ; ret  ;  (1 found)
0x0000107f: adc eax, 0x00402010 ; push eax ; call dword [0x0040200C] ;  (1 found)
0x00000d19: adc eax, 0x0040201C ; lea eax, dword [ebp-0x08] ; push eax ; call dword [0x00402020] ;  (1 found)
0x0000106b: adc eax, 0x0040201C ; push dword [ebp+0x08] ; call dword [0x00402020] ;  (1 found)
0x00000d89: adc eax, 0x0040201C ; ret  ;  (1 found)
0x00001074: adc eax, 0x00402020 ; push 0xC0000409 ; call dword [0x00402010] ;  (1 found)
0x00000bbe: adc eax, 0x00402028 ; ret  ;  (1 found)
0x000004b0: adc eax, 0x004020BC ; add esp, 0x18 ; pop ebp ; ret  ;  (1 found)
0x000004d0: adc eax, 0x40212068 ; add al, ch ; push ebp ; add dword [eax], eax ; add byte [ebx+0x016A04C4], al ; call dword [0x00402074] ;  (1 found)
0x00000576: adc eax, 0x40212C68 ; add al, ch ; scasd  ; add byte [eax], al ; add byte [ebx+0x016A04C4], al ; call dword [0x00402074] ;  (1 found)
0x00000ceb: adc eax, 0xC7400000 ; inc ebp ; lodsb  ; add dword [eax], eax ; add byte [eax], al ; mov dword [ebp-0x4C], eax ; call dword [0x00402024] ;  (1 found)
0x00000be6: add ah, cl ; ret  ;  (1 found)
0x00000723: add al, 0x00 ; add byte [eax-0x18], dl ; fimul dword [edx] ; add byte [eax], al ; pop ecx ; ret  ;  (1 found)
0x00000b54: add al, 0x20 ; inc eax ; add byte [ecx], dh ; inc ebp ; cld  ; call dword [0x00402000] ;  (1 found)
0x000004aa: add al, 0x51 ; mov edx, dword [eax] ; push edx ; call dword [0x004020BC] ;  (1 found)
0x00000c04: add al, 0x83 ; or byte [edx], al ; mov dword [eax+0x04], ecx ; ret  ;  (1 found)
0x00000c0a: add al, 0xC3 ; xor eax, eax ; cmp dword [0x00403004], eax ; sete al ; ret  ;  (1 found)
0x0000107c: add al, al ; call dword [0x00402010] ;  (1 found)
0x00000a60: add al, al ; sete cl ; mov eax, ecx ; ret  ;  (1 found)
0x00000937: add al, byte [eax] ; add byte [eax+eax*8-0x3FCDFB8B], al ; pop ebp ; ret  ;  (1 found)
0x00000ea3: add al, ch ; in eax, 0x02 ; add byte [eax], al ; add esp, 0x18 ; pop ebp ; ret  ;  (1 found)
0x00000720: add al, ch ; mov dword [eax+eax], eax ; add byte [eax-0x18], dl ; fimul dword [edx] ; add byte [eax], al ; pop ecx ; ret  ;  (1 found)
0x000005d5: add al, ch ; push ebp ; add byte [eax], al ; add byte [ebx+0x558B08C4], al ; hlt  ; push edx ; call dword [0x004020B0] ;  (1 found)
0x000004d5: add al, ch ; push ebp ; add dword [eax], eax ; add byte [ebx+0x016A04C4], al ; call dword [0x00402074] ;  (1 found)
0x00000469: add al, ch ; rol dword [ecx], 0x00000000 ; add byte [ebx-0x3FCCF73C], al ; mov esp, ebp ; pop ebp ; ret  ;  (1 found)
0x0000057b: add al, ch ; scasd  ; add byte [eax], al ; add byte [ebx+0x016A04C4], al ; call dword [0x00402074] ;  (1 found)
0x00001069: add bh, bh ; adc eax, 0x0040201C ; push dword [ebp+0x08] ; call dword [0x00402020] ;  (1 found)
0x00000d87: add bh, bh ; adc eax, 0x0040201C ; ret  ;  (1 found)
0x00000bbc: add bh, bh ; adc eax, 0x00402028 ; ret  ;  (1 found)
0x0000118d: add bh, bh ; and eax, 0x00402034 ; jmp dword [0x00402074] ;  (1 found)
0x00001205: add bh, bh ; and eax, 0x00402040 ; jmp dword [0x004020B4] ;  (1 found)
0x000011ff: add bh, bh ; and eax, 0x00402048 ; jmp dword [0x00402040] ;  (1 found)
0x000011b1: add bh, bh ; and eax, 0x00402050 ; jmp dword [0x0040209C] ;  (1 found)
0x000011e7: add bh, bh ; and eax, 0x00402058 ; jmp dword [0x0040205C] ;  (1 found)
0x000011ed: add bh, bh ; and eax, 0x0040205C ; jmp dword [0x00402060] ;  (1 found)
0x000011f3: add bh, bh ; and eax, 0x00402060 ; jmp dword [0x00402064] ;  (1 found)
0x000011f9: add bh, bh ; and eax, 0x00402064 ; jmp dword [0x00402048] ;  (1 found)
0x000011e1: add bh, bh ; and eax, 0x00402068 ; jmp dword [0x00402058] ;  (1 found)
0x000011bd: add bh, bh ; and eax, 0x0040206C ; jmp dword [0x004020A4] ;  (1 found)
0x00001193: add bh, bh ; and eax, 0x00402074 ; jmp dword [0x004020D0] ;  (1 found)
0x00001217: add bh, bh ; and eax, 0x00402078 ; jmp dword [0x0040207C] ;  (1 found)
0x0000121d: add bh, bh ; and eax, 0x0040207C ; jmp dword [0x00402080] ;  (1 found)
0x00001223: add bh, bh ; and eax, 0x00402080 ; jmp dword [0x00402084] ;  (1 found)
0x00001229: add bh, bh ; and eax, 0x00402084 ; jmp dword [0x00402018] ;  (1 found)
0x000011a5: add bh, bh ; and eax, 0x00402088 ; jmp dword [0x0040208C] ;  (1 found)
0x000011ab: add bh, bh ; and eax, 0x0040208C ; jmp dword [0x00402050] ;  (1 found)
0x000011d5: add bh, bh ; and eax, 0x00402090 ; jmp dword [0x004020B8] ;  (1 found)
0x000011cf: add bh, bh ; and eax, 0x00402094 ; jmp dword [0x00402090] ;  (1 found)
0x000011c9: add bh, bh ; and eax, 0x00402098 ; jmp dword [0x00402094] ;  (1 found)
0x000011b7: add bh, bh ; and eax, 0x0040209C ; jmp dword [0x0040206C] ;  (1 found)
0x00001211: add bh, bh ; and eax, 0x004020A0 ; jmp dword [0x00402078] ;  (1 found)
0x000011c3: add bh, bh ; and eax, 0x004020A4 ; jmp dword [0x00402098] ;  (1 found)
0x0000120b: add bh, bh ; and eax, 0x004020B4 ; jmp dword [0x004020A0] ;  (1 found)
0x000011db: add bh, bh ; and eax, 0x004020B8 ; jmp dword [0x00402068] ;  (1 found)
0x0000119f: add bh, bh ; and eax, 0x004020CC ; jmp dword [0x00402088] ;  (1 found)
0x00001199: add bh, bh ; and eax, 0x004020D0 ; jmp dword [0x004020CC] ;  (1 found)
0x00000b9c: add bh, dh ; ror dword [ecx+0x4030140D], 1  ; add byte [edi+0x5E], bl ; mov esp, ebp ; pop ebp ; ret  ;  (1 found)
0x00000bc2: add bl, al ; mov al, 0x01 ; ret  ;  (1 found)
0x00000c1c: add bl, al ; mov eax, 0x0040338C ; ret  ;  (1 found)
0x00000bb6: add bl, al ; push 0x00403050 ; call dword [0x00402028] ;  (1 found)
0x00000b3c: add bl, ch ; lea ax, word [ebp-0x0C] ; push eax ; call dword [0x00402008] ;  (1 found)
0x00001037: add byte [0xA3000000], al ; adc byte [eax], dh ; inc eax ; add byte [ebx], dh ; rcr byte [ebx-0x75], 0xFFFFFFE5 ; pop ebp ; ret  ;  (1 found)
0x00000bb3: add byte [eax+0x00], al ; add bl, al ; push 0x00403050 ; call dword [0x00402028] ;  (1 found)
0x00000939: add byte [eax+eax*8-0x3FCDFB8B], al ; pop ebp ; ret  ;  (1 found)
0x00001083: add byte [eax-0x01], dl ; adc eax, 0x0040200C ; pop ebp ; ret  ;  (1 found)
0x00000725: add byte [eax-0x18], dl ; fimul dword [edx] ; add byte [eax], al ; pop ecx ; ret  ;  (1 found)
0x00000ced: add byte [eax-0x39], al ; inc ebp ; lodsb  ; add dword [eax], eax ; add byte [eax], al ; mov dword [ebp-0x4C], eax ; call dword [0x00402024] ;  (1 found)
0x00000be4: add byte [eax], al ; add ah, cl ; ret  ;  (1 found)
0x000003f9: add byte [eax], al ; add byte [eax], al ; add byte [eax], al ; add byte [ebp-0x75], dl ; in al, dx ; pop ebp ; ret  ;  (1 found)
0x000003fa: add byte [eax], al ; add byte [eax], al ; add byte [eax], al ; push ebp ; mov ebp, esp ; pop ebp ; ret  ;  (1 found)
0x000003fb: add byte [eax], al ; add byte [eax], al ; add byte [ebp-0x75], dl ; in al, dx ; pop ebp ; ret  ;  (1 found)
0x00000665: add byte [eax], al ; add byte [eax], al ; mov eax, dword [ebp-0x08] ; mov esp, ebp ; pop ebp ; ret  ;  (1 found)
0x000003fc: add byte [eax], al ; add byte [eax], al ; push ebp ; mov ebp, esp ; pop ebp ; ret  ;  (1 found)
0x00000e70: add byte [eax], al ; add byte [eax], al ; ret  ;  (1 found)
0x00000d7b: add byte [eax], al ; add byte [eax], al ; setne al ; ret  ;  (1 found)
0x000005a8: add byte [eax], al ; add byte [ebp-0x0002676B], cl ; call dword [edx-0x01] ;  (1 found)
0x000003fd: add byte [eax], al ; add byte [ebp-0x75], dl ; in al, dx ; pop ebp ; ret  ;  (1 found)
0x00001062: add byte [eax], al ; add byte [ebp-0x75], dl ; in al, dx ; push 0x00000000 ; call dword [0x0040201C] ;  (1 found)
0x00001039: add byte [eax], al ; add byte [ebx+0x00403010], ah ; xor eax, eax ; pop ebx ; mov esp, ebp ; pop ebp ; ret  ;  (1 found)
0x0000057e: add byte [eax], al ; add byte [ebx+0x016A04C4], al ; call dword [0x00402074] ;  (1 found)
0x000005d8: add byte [eax], al ; add byte [ebx+0x558B08C4], al ; hlt  ; push edx ; call dword [0x004020B0] ;  (1 found)
0x00000666: add byte [eax], al ; add byte [ebx-0x1A7407BB], cl ; pop ebp ; ret  ;  (1 found)
0x0000041d: add byte [eax], al ; add byte [ecx+0x40], ah ; add byte [ebx-0x1A7403BB], cl ; pop ebp ; ret  ;  (1 found)
0x00000e71: add byte [eax], al ; add dl, dh ; ret  ;  (1 found)
0x000004d9: add byte [eax], al ; add esp, 0x04 ; push 0x00000001 ; call dword [0x00402074] ;  (1 found)
0x0000057f: add byte [eax], al ; add esp, 0x04 ; push 0x00000001 ; call dword [0x00402074] ;  (1 found)
0x000005d9: add byte [eax], al ; add esp, 0x08 ; mov edx, dword [ebp-0x0C] ; push edx ; call dword [0x004020B0] ;  (1 found)
0x00000554: add byte [eax], al ; add esp, 0x08 ; push 0x00402128 ; lea edx, dword [ebp-0x000001A0] ; push edx ; call dword [0x004020C4] ;  (1 found)
0x0000046d: add byte [eax], al ; add esp, 0x08 ; xor eax, eax ; mov esp, ebp ; pop ebp ; ret  ;  (1 found)
0x00000ea7: add byte [eax], al ; add esp, 0x18 ; pop ebp ; ret  ;  (1 found)
0x0000041e: add byte [eax], al ; and dword [fs:eax+0x00], eax ; mov eax, dword [ebp-0x04] ; mov esp, ebp ; pop ebp ; ret  ;  (1 found)
0x00000dec: add byte [eax], al ; call edi ;  (1 found)
0x00000e17: add byte [eax], al ; call edi ;  (1 found)
0x000007e8: add byte [eax], al ; call esi ;  (1 found)
0x00000cec: add byte [eax], al ; inc eax ; mov dword [ebp-0x54], 0x00000001 ; mov dword [ebp-0x4C], eax ; call dword [0x00402024] ;  (1 found)
0x00000be5: add byte [eax], al ; int3  ; ret  ;  (1 found)
0x000005a9: add byte [eax], al ; lea edx, dword [ebp-0x00000268] ; push edx ; call dword [0x004020C0] ;  (1 found)
0x0000103a: add byte [eax], al ; mov dword [0x00403010], eax ; xor eax, eax ; pop ebx ; mov esp, ebp ; pop ebp ; ret  ;  (1 found)
0x00000cf4: add byte [eax], al ; mov dword [ebp-0x4C], eax ; call dword [0x00402024] ;  (1 found)
0x00000ce0: add byte [eax], al ; mov eax, dword [ebp+0x04] ; add esp, 0x0C ; mov dword [ebp-0x58], 0x40000015 ; mov dword [ebp-0x54], 0x00000001 ; mov dword [ebp-0x4C], eax ; call dword [0x00402024] ;  (1 found)
0x00000667: add byte [eax], al ; mov eax, dword [ebp-0x08] ; mov esp, ebp ; pop ebp ; ret  ;  (1 found)
0x00000452: add byte [eax], al ; mov edx, dword [ebp+0x0C] ; push edx ; call dword [0x004020C0] ;  (1 found)
0x00000ab7: add byte [eax], al ; pop ecx ; pop ecx ; mov al, 0x01 ; pop ebp ; ret  ;  (1 found)
0x00000869: add byte [eax], al ; pop ecx ; pop ecx ; ret  ;  (1 found)
0x0000072a: add byte [eax], al ; pop ecx ; ret  ;  (1 found)
0x000003fe: add byte [eax], al ; push ebp ; mov ebp, esp ; pop ebp ; ret  ;  (1 found)
0x00001063: add byte [eax], al ; push ebp ; mov ebp, esp ; push 0x00000000 ; call dword [0x0040201C] ;  (1 found)
0x0000089a: add byte [eax], al ; ret  ;  (1 found)
0x00000a77: add byte [eax], al ; ret  ;  (1 found)
0x00000bb5: add byte [eax], al ; ret  ;  (1 found)
0x00000e72: add byte [eax], al ; ret  ;  (1 found)
0x00000d7d: add byte [eax], al ; setne al ; ret  ;  (1 found)
0x00000625: add byte [eax], al ; xor eax, eax ; pop edi ; pop esi ; mov esp, ebp ; pop ebp ; ret  ;  (1 found)
0x00000717: add byte [eax], al ; xor eax, eax ; ret  ;  (1 found)
0x00000707: add byte [eax], al ; xor eax, eax ; ret  ;  (1 found)
0x00000a89: add byte [ebp+0x09], dh ; xor eax, eax ; mov ecx, 0x00403030 ; xchg dword [ecx], eax ; pop ebp ; ret  ;  (1 found)
0x00000515: add byte [ebp-0x0000D36B], cl ; call dword [edx-0x18] ;  (1 found)
0x0000055d: add byte [ebp-0x00019F6B], cl ; call dword [edx-0x01] ;  (1 found)
0x000004ff: add byte [ebp-0x00019F73], cl ; call dword [ecx-0x18] ;  (1 found)
0x000005aa: add byte [ebp-0x0002676B], cl ; call dword [edx-0x01] ;  (1 found)
0x0000052b: add byte [ebp-0x0002677B], cl ; call dword [eax-0x18] ;  (1 found)
0x000003ff: add byte [ebp-0x75], dl ; in al, dx ; pop ebp ; ret  ;  (1 found)
0x00001064: add byte [ebp-0x75], dl ; in al, dx ; push 0x00000000 ; call dword [0x0040201C] ;  (1 found)
0x0000103b: add byte [ebx+0x00403010], ah ; xor eax, eax ; pop ebx ; mov esp, ebp ; pop ebp ; ret  ;  (1 found)
0x000004da: add byte [ebx+0x016A04C4], al ; call dword [0x00402074] ;  (1 found)
0x00000580: add byte [ebx+0x016A04C4], al ; call dword [0x00402074] ;  (1 found)
0x00000555: add byte [ebx+0x286808C4], al ; and dword [eax+0x00], eax ; lea edx, dword [ebp-0x000001A0] ; push edx ; call dword [0x004020C4] ;  (1 found)
0x00000b48: add byte [ebx+0x4533F845], cl ; hlt  ; mov dword [ebp-0x04], eax ; call dword [0x00402004] ;  (1 found)
0x000005da: add byte [ebx+0x558B08C4], al ; hlt  ; push edx ; call dword [0x004020B0] ;  (1 found)
0x0000058b: add byte [ebx-0x0000D77B], cl ; call dword [eax+0x68] ;  (1 found)
0x00000423: add byte [ebx-0x1A7403BB], cl ; pop ebp ; ret  ;  (1 found)
0x00000668: add byte [ebx-0x1A7407BB], cl ; pop ebp ; ret  ;  (1 found)
0x0000046e: add byte [ebx-0x3FCCF73C], al ; mov esp, ebp ; pop ebp ; ret  ;  (1 found)
0x00000a59: add byte [ebx], dh ; leave  ; cmp dword [eax], 0xC0000005 ; sete cl ; mov eax, ecx ; ret  ;  (1 found)
0x00001040: add byte [ebx], dh ; rcr byte [ebx-0x75], 0xFFFFFFE5 ; pop ebp ; ret  ;  (1 found)
0x00000626: add byte [ebx], dh ; rcr byte [edi+0x5E], 0xFFFFFF8B ; in eax, 0x5D ; ret  ;  (1 found)
0x0000041f: add byte [ecx+0x40], ah ; add byte [ebx-0x1A7403BB], cl ; pop ebp ; ret  ;  (1 found)
0x00000ab8: add byte [ecx+0x59], bl ; mov al, 0x01 ; pop ebp ; ret  ;  (1 found)
0x0000086a: add byte [ecx+0x59], bl ; ret  ;  (1 found)
0x00000aec: add byte [ecx-0x09], bl ; fcomp dword [ecx+0x1B] ; sal bh, 0xFFFFFFD0 ; and eax, dword [ebp+0x08] ; pop ebp ; ret  ;  (1 found)
0x00000b57: add byte [ecx], dh ; inc ebp ; cld  ; call dword [0x00402000] ;  (1 found)
0x00000b60: add byte [ecx], dh ; inc ebp ; cld  ; lea eax, dword [ebp-0x14] ; push eax ; call dword [0x0040202C] ;  (1 found)
0x00000ba4: add byte [edi+0x5E], bl ; mov esp, ebp ; pop ebp ; ret  ;  (1 found)
0x00000c13: add byte [edi], cl ; xchg eax, esp ; rol bl, 0xFFFFFFB8 ; nop  ; xor eax, dword [eax+0x00] ; ret  ;  (1 found)
0x00000d38: add byte [esi+0x5B], bl ; mov esp, ebp ; pop ebp ; ret  ;  (1 found)
0x0000105c: add dh, dl ; ret  ;  (1 found)
0x00000e73: add dl, dh ; ret  ;  (1 found)
0x0000044e: add dword [eax-0x30], ebp ; pop es ; add byte [eax], al ; mov edx, dword [ebp+0x0C] ; push edx ; call dword [0x004020C0] ;  (1 found)
0x000005a5: add dword [eax-0x38], ebp ; add byte [eax], al ; add byte [ebp-0x0002676B], cl ; call dword [edx-0x01] ;  (1 found)
0x00000cf2: add dword [eax], eax ; add byte [eax], al ; mov dword [ebp-0x4C], eax ; call dword [0x00402024] ;  (1 found)
0x000004d8: add dword [eax], eax ; add byte [ebx+0x016A04C4], al ; call dword [0x00402074] ;  (1 found)
0x0000046c: add dword [eax], eax ; add byte [ebx-0x3FCCF73C], al ; mov esp, ebp ; pop ebp ; ret  ;  (1 found)
0x00000624: add dword [eax], eax ; add byte [ebx], dh ; rcr byte [edi+0x5E], 0xFFFFFF8B ; in eax, 0x5D ; ret  ;  (1 found)
0x00000ab6: add dword [eax], eax ; add byte [ecx+0x59], bl ; mov al, 0x01 ; pop ebp ; ret  ;  (1 found)
0x000009de: add dword [ebp+0x5E5FA5A5], esp ; mov esp, ebp ; pop ebp ; ret  ;  (1 found)
0x00000c0f: add eax, 0x00403004 ; sete al ; ret  ;  (1 found)
0x0000104b: add eax, 0x0040301C ; setne al ; ret  ;  (1 found)
0x00000d34: add eax, 0x00403060 ; pop esi ; pop ebx ; mov esp, ebp ; pop ebp ; ret  ;  (1 found)
0x00000932: add eax, 0x8AE80000 ; add al, byte [eax] ; add byte [eax+eax*8-0x3FCDFB8B], al ; pop ebp ; ret  ;  (1 found)
0x00001038: add eax, 0xA3000000 ; adc byte [eax], dh ; inc eax ; add byte [ebx], dh ; rcr byte [ebx-0x75], 0xFFFFFFE5 ; pop ebp ; ret  ;  (1 found)
0x00000621: add esp, 0x000001A4 ; xor eax, eax ; pop edi ; pop esi ; mov esp, ebp ; pop ebp ; ret  ;  (1 found)
0x000004db: add esp, 0x04 ; push 0x00000001 ; call dword [0x00402074] ;  (1 found)
0x00000581: add esp, 0x04 ; push 0x00000001 ; call dword [0x00402074] ;  (1 found)
0x000005db: add esp, 0x08 ; mov edx, dword [ebp-0x0C] ; push edx ; call dword [0x004020B0] ;  (1 found)
0x00000556: add esp, 0x08 ; push 0x00402128 ; lea edx, dword [ebp-0x000001A0] ; push edx ; call dword [0x004020C4] ;  (1 found)
0x0000046f: add esp, 0x08 ; xor eax, eax ; mov esp, ebp ; pop ebp ; ret  ;  (1 found)
0x00000ce5: add esp, 0x0C ; mov dword [ebp-0x58], 0x40000015 ; mov dword [ebp-0x54], 0x00000001 ; mov dword [ebp-0x4C], eax ; call dword [0x00402024] ;  (1 found)
0x0000065c: add esp, 0x10 ; mov dword [ebp-0x08], eax ; mov dword [ebp-0x04], 0x00000000 ; mov eax, dword [ebp-0x08] ; mov esp, ebp ; pop ebp ; ret  ;  (1 found)
0x000004b5: add esp, 0x18 ; pop ebp ; ret  ;  (1 found)
0x00000ea9: add esp, 0x18 ; pop ebp ; ret  ;  (1 found)
0x000004b2: and byte [eax+0x00], al ; add esp, 0x18 ; pop ebp ; ret  ;  (1 found)
0x0000122d: and byte [eax+0x00], al ; jmp dword [0x00402018] ;  (1 found)
0x0000118b: and byte [eax+0x00], al ; jmp dword [0x00402034] ;  (1 found)
0x00001203: and byte [eax+0x00], al ; jmp dword [0x00402040] ;  (1 found)
0x000011fd: and byte [eax+0x00], al ; jmp dword [0x00402048] ;  (1 found)
0x000011af: and byte [eax+0x00], al ; jmp dword [0x00402050] ;  (1 found)
0x000011e5: and byte [eax+0x00], al ; jmp dword [0x00402058] ;  (1 found)
0x000011eb: and byte [eax+0x00], al ; jmp dword [0x0040205C] ;  (1 found)
0x000011f1: and byte [eax+0x00], al ; jmp dword [0x00402060] ;  (1 found)
0x000011f7: and byte [eax+0x00], al ; jmp dword [0x00402064] ;  (1 found)
0x000011df: and byte [eax+0x00], al ; jmp dword [0x00402068] ;  (1 found)
0x000011bb: and byte [eax+0x00], al ; jmp dword [0x0040206C] ;  (1 found)
0x00001191: and byte [eax+0x00], al ; jmp dword [0x00402074] ;  (1 found)
0x00001215: and byte [eax+0x00], al ; jmp dword [0x00402078] ;  (1 found)
0x0000121b: and byte [eax+0x00], al ; jmp dword [0x0040207C] ;  (1 found)
0x00001221: and byte [eax+0x00], al ; jmp dword [0x00402080] ;  (1 found)
0x00001227: and byte [eax+0x00], al ; jmp dword [0x00402084] ;  (1 found)
0x000011a3: and byte [eax+0x00], al ; jmp dword [0x00402088] ;  (1 found)
0x000011a9: and byte [eax+0x00], al ; jmp dword [0x0040208C] ;  (1 found)
0x000011d3: and byte [eax+0x00], al ; jmp dword [0x00402090] ;  (1 found)
0x000011cd: and byte [eax+0x00], al ; jmp dword [0x00402094] ;  (1 found)
0x000011c7: and byte [eax+0x00], al ; jmp dword [0x00402098] ;  (1 found)
0x000011b5: and byte [eax+0x00], al ; jmp dword [0x0040209C] ;  (1 found)
0x0000120f: and byte [eax+0x00], al ; jmp dword [0x004020A0] ;  (1 found)
0x000011c1: and byte [eax+0x00], al ; jmp dword [0x004020A4] ;  (1 found)
0x00001209: and byte [eax+0x00], al ; jmp dword [0x004020B4] ;  (1 found)
0x000011d9: and byte [eax+0x00], al ; jmp dword [0x004020B8] ;  (1 found)
0x0000119d: and byte [eax+0x00], al ; jmp dword [0x004020CC] ;  (1 found)
0x00001197: and byte [eax+0x00], al ; jmp dword [0x004020D0] ;  (1 found)
0x00000d1b: and byte [eax+0x00], al ; lea eax, dword [ebp-0x08] ; push eax ; call dword [0x00402020] ;  (1 found)
0x00000b46: and byte [eax+0x00], al ; mov eax, dword [ebp-0x08] ; xor eax, dword [ebp-0x0C] ; mov dword [ebp-0x04], eax ; call dword [0x00402004] ;  (1 found)
0x00001088: and byte [eax+0x00], al ; pop ebp ; ret  ;  (1 found)
0x00001076: and byte [eax+0x00], al ; push 0xC0000409 ; call dword [0x00402010] ;  (1 found)
0x0000106d: and byte [eax+0x00], al ; push dword [ebp+0x08] ; call dword [0x00402020] ;  (1 found)
0x00001081: and byte [eax+0x00], al ; push eax ; call dword [0x0040200C] ;  (1 found)
0x00000bc0: and byte [eax+0x00], al ; ret  ;  (1 found)
0x00000d8b: and byte [eax+0x00], al ; ret  ;  (1 found)
0x00000b55: and byte [eax+0x00], al ; xor dword [ebp-0x04], eax ; call dword [0x00402000] ;  (1 found)
0x00000b5e: and byte [eax+0x00], al ; xor dword [ebp-0x04], eax ; lea eax, dword [ebp-0x14] ; push eax ; call dword [0x0040202C] ;  (1 found)
0x00001226: and byte [eax], 0x00000040 ; add bh, bh ; and eax, 0x00402084 ; jmp dword [0x00402018] ;  (1 found)
0x000004d2: and byte [ecx], ah ; inc eax ; add al, ch ; push ebp ; add dword [eax], eax ; add byte [ebx+0x016A04C4], al ; call dword [0x00402074] ;  (1 found)
0x000011fc: and byte [fs:eax+0x00], al ; jmp dword [0x00402048] ;  (1 found)
0x00000d33: and dword [0x00403060], eax ; pop esi ; pop ebx ; mov esp, ebp ; pop ebp ; ret  ;  (1 found)
0x00000436: and dword [eax+0x00], eax ; lea eax, dword [ebp+0x10] ; push eax ; call dword [0x004020C4] ;  (1 found)
0x0000055b: and dword [eax+0x00], eax ; lea edx, dword [ebp-0x000001A0] ; push edx ; call dword [0x004020C4] ;  (1 found)
0x00000421: and dword [eax+0x00], eax ; mov eax, dword [ebp-0x04] ; mov esp, ebp ; pop ebp ; ret  ;  (1 found)
0x00000420: and dword [fs:eax+0x00], eax ; mov eax, dword [ebp-0x04] ; mov esp, ebp ; pop ebp ; ret  ;  (1 found)
0x0000118f: and eax, 0x00402034 ; jmp dword [0x00402074] ;  (1 found)
0x00001189: and eax, 0x00402038 ; jmp dword [0x00402034] ;  (1 found)
0x00001207: and eax, 0x00402040 ; jmp dword [0x004020B4] ;  (1 found)
0x00001201: and eax, 0x00402048 ; jmp dword [0x00402040] ;  (1 found)
0x000011b3: and eax, 0x00402050 ; jmp dword [0x0040209C] ;  (1 found)
0x000011e9: and eax, 0x00402058 ; jmp dword [0x0040205C] ;  (1 found)
0x000011ef: and eax, 0x0040205C ; jmp dword [0x00402060] ;  (1 found)
0x000011f5: and eax, 0x00402060 ; jmp dword [0x00402064] ;  (1 found)
0x000011fb: and eax, 0x00402064 ; jmp dword [0x00402048] ;  (1 found)
0x000011e3: and eax, 0x00402068 ; jmp dword [0x00402058] ;  (1 found)
0x000011bf: and eax, 0x0040206C ; jmp dword [0x004020A4] ;  (1 found)
0x00001195: and eax, 0x00402074 ; jmp dword [0x004020D0] ;  (1 found)
0x00001219: and eax, 0x00402078 ; jmp dword [0x0040207C] ;  (1 found)
0x0000121f: and eax, 0x0040207C ; jmp dword [0x00402080] ;  (1 found)
0x00001225: and eax, 0x00402080 ; jmp dword [0x00402084] ;  (1 found)
0x0000122b: and eax, 0x00402084 ; jmp dword [0x00402018] ;  (1 found)
0x000011a7: and eax, 0x00402088 ; jmp dword [0x0040208C] ;  (1 found)
0x000011ad: and eax, 0x0040208C ; jmp dword [0x00402050] ;  (1 found)
0x000011d7: and eax, 0x00402090 ; jmp dword [0x004020B8] ;  (1 found)
0x000011d1: and eax, 0x00402094 ; jmp dword [0x00402090] ;  (1 found)
0x000011cb: and eax, 0x00402098 ; jmp dword [0x00402094] ;  (1 found)
0x000011b9: and eax, 0x0040209C ; jmp dword [0x0040206C] ;  (1 found)
0x00001213: and eax, 0x004020A0 ; jmp dword [0x00402078] ;  (1 found)
0x000011c5: and eax, 0x004020A4 ; jmp dword [0x00402098] ;  (1 found)
0x0000120d: and eax, 0x004020B4 ; jmp dword [0x004020A0] ;  (1 found)
0x000011dd: and eax, 0x004020B8 ; jmp dword [0x00402068] ;  (1 found)
0x000011a1: and eax, 0x004020CC ; jmp dword [0x00402088] ;  (1 found)
0x0000119b: and eax, 0x004020D0 ; jmp dword [0x004020CC] ;  (1 found)
0x00000af5: and eax, dword [ebp+0x08] ; pop ebp ; ret  ;  (1 found)
0x00000b5b: call dword [0x00402000] ;  (1 found)
0x00000b52: call dword [0x00402004] ;  (1 found)
0x00000b43: call dword [0x00402008] ;  (1 found)
0x00001085: call dword [0x0040200C] ;  (1 found)
0x0000107e: call dword [0x00402010] ;  (1 found)
0x00000d41: call dword [0x00402014] ;  (1 found)
0x00000d18: call dword [0x0040201C] ;  (1 found)
0x00000d88: call dword [0x0040201C] ;  (1 found)
0x0000106a: call dword [0x0040201C] ;  (1 found)
0x00000d22: call dword [0x00402020] ;  (1 found)
0x00001073: call dword [0x00402020] ;  (1 found)
0x00000cf9: call dword [0x00402024] ;  (1 found)
0x00000bbd: call dword [0x00402028] ;  (1 found)
0x00000b68: call dword [0x0040202C] ;  (1 found)
0x000004e0: call dword [0x00402074] ;  (1 found)
0x00000586: call dword [0x00402074] ;  (1 found)
0x000005f6: call dword [0x00402074] ;  (1 found)
0x0000064d: call dword [0x004020AC] ;  (1 found)
0x000005e2: call dword [0x004020B0] ;  (1 found)
0x000004af: call dword [0x004020BC] ;  (1 found)
0x00000458: call dword [0x004020C0] ;  (1 found)
0x000005b2: call dword [0x004020C0] ;  (1 found)
0x0000043d: call dword [0x004020C4] ;  (1 found)
0x00000565: call dword [0x004020C4] ;  (1 found)
0x00000591: call dword [eax+0x68] ;  (1 found)
0x00000531: call dword [eax-0x18] ;  (1 found)
0x000005c0: call dword [eax-0x18] ;  (1 found)
0x00000616: call dword [eax-0x75] ;  (1 found)
0x000019bb: call dword [ebp+0x16] ;  (1 found)
0x000008a6: call dword [ebp-0x75] ;  (1 found)
0x00000505: call dword [ecx-0x18] ;  (1 found)
0x0000054f: call dword [ecx-0x18] ;  (1 found)
0x00000563: call dword [edx-0x01] ;  (1 found)
0x000005b0: call dword [edx-0x01] ;  (1 found)
0x0000051b: call dword [edx-0x18] ;  (1 found)
0x000009b7: call ebx ;  (1 found)
0x00000dee: call edi ;  (1 found)
0x00000e19: call edi ;  (1 found)
0x000007ea: call esi ;  (1 found)
0x00000d0a: clc  ; lea eax, dword [ebp-0x00000324] ; sbb bl, bl ; mov dword [ebp-0x04], eax ; inc bl ; call dword [0x0040201C] ;  (1 found)
0x00000e6a: clc  ; lea eax, dword [ebp-0x10] ; mov dword [fs:0x00000000], eax ; ret  ;  (1 found)
0x00000661: clc  ; mov dword [ebp-0x04], 0x00000000 ; mov eax, dword [ebp-0x08] ; mov esp, ebp ; pop ebp ; ret  ;  (1 found)
0x00000e5d: clc  ; mov eax, dword [ebp-0x04] ; mov dword [ebp-0x04], 0xFFFFFFFE ; mov dword [ebp-0x08], eax ; lea eax, dword [ebp-0x10] ; mov dword [fs:0x00000000], eax ; ret  ;  (1 found)
0x0000066b: clc  ; mov esp, ebp ; pop ebp ; ret  ;  (1 found)
0x00000d20: clc  ; push eax ; call dword [0x00402020] ;  (1 found)
0x00000b4b: clc  ; xor eax, dword [ebp-0x0C] ; mov dword [ebp-0x04], eax ; call dword [0x00402004] ;  (1 found)
0x00000664: cld  ; add byte [eax], al ; add byte [eax], al ; mov eax, dword [ebp-0x08] ; mov esp, ebp ; pop ebp ; ret  ;  (1 found)
0x00000b5a: cld  ; call dword [0x00402000] ;  (1 found)
0x00000b51: cld  ; call dword [0x00402004] ;  (1 found)
0x00000d15: cld  ; inc bl ; call dword [0x0040201C] ;  (1 found)
0x00000b63: cld  ; lea eax, dword [ebp-0x14] ; push eax ; call dword [0x0040202C] ;  (1 found)
0x00000419: cld  ; mov dword [eax+0x000000C8], 0x00402164 ; mov eax, dword [ebp-0x04] ; mov esp, ebp ; pop ebp ; ret  ;  (1 found)
0x00000e60: cld  ; mov dword [ebp-0x04], 0xFFFFFFFE ; mov dword [ebp-0x08], eax ; lea eax, dword [ebp-0x10] ; mov dword [fs:0x00000000], eax ; ret  ;  (1 found)
0x00000416: cld  ; mov eax, dword [ebp-0x04] ; mov dword [eax+0x000000C8], 0x00402164 ; mov eax, dword [ebp-0x04] ; mov esp, ebp ; pop ebp ; ret  ;  (1 found)
0x00000426: cld  ; mov esp, ebp ; pop ebp ; ret  ;  (1 found)
0x00000643: cld  ; push ecx ; push 0x00000000 ; mov edx, dword [ebp+0x08] ; push edx ; push 0x00000001 ; call dword [0x004020AC] ;  (1 found)
0x0000044b: cld  ; push ecx ; push 0x00000001 ; push 0x000007D0 ; mov edx, dword [ebp+0x0C] ; push edx ; call dword [0x004020C0] ;  (1 found)
0x000007e6: cmp al, 0x06 ; add byte [eax], al ; call esi ;  (1 found)
0x0000118a: cmp byte [eax], ah ; inc eax ; add bh, bh ; and eax, 0x00402034 ; jmp dword [0x00402074] ;  (1 found)
0x00000dea: cmp byte [eax], al ; add byte [eax], al ; call edi ;  (1 found)
0x00000c70: cmp ch, 0xFFFFFFFF ; dec dword [ecx-0x0002834B] ; dec dword [ecx-0x00028743] ; jmp dword [esi-0x74] ;  (1 found)
0x00000c0e: cmp dword [0x00403004], eax ; sete al ; ret  ;  (1 found)
0x0000104a: cmp dword [0x0040301C], eax ; setne al ; ret  ;  (1 found)
0x00000d78: cmp dword [eax+0x000000E8], 0x00000000 ; setne al ; ret  ;  (1 found)
0x00000a5c: cmp dword [eax], 0xC0000005 ; sete cl ; mov eax, ecx ; ret  ;  (1 found)
0x00000be3: cmp eax, 0xCC000000 ; ret  ;  (1 found)
0x00000867: cmp ecx, dword [ecx] ; add byte [eax], al ; pop ecx ; pop ecx ; ret  ;  (1 found)
0x000011cc: cwde  ; and byte [eax+0x00], al ; jmp dword [0x00402094] ;  (1 found)
0x00001183: dec dword [ebx-0x003CA21B] ; and eax, 0x00402038 ; jmp dword [0x00402034] ;  (1 found)
0x000004a7: dec dword [ebx-0x74AEFBB8] ; adc byte [edx-0x01], dl ; adc eax, 0x004020BC ; add esp, 0x18 ; pop ebp ; ret  ;  (1 found)
0x00000e67: dec dword [ecx+0x458DF845] ; mov dword [fs:0x00000000], eax ; ret  ;  (1 found)
0x00000c61: dec dword [ecx-0x00027773] ; dec dword [ecx-0x00027B6B] ; dec dword [ecx-0x00027F63] ; dec dword [ecx-0x0002834B] ; dec dword [ecx-0x00028743] ; jmp dword [esi-0x74] ;  (1 found)
0x00000c67: dec dword [ecx-0x00027B6B] ; dec dword [ecx-0x00027F63] ; dec dword [ecx-0x0002834B] ; dec dword [ecx-0x00028743] ; jmp dword [esi-0x74] ;  (1 found)
0x00000c6d: dec dword [ecx-0x00027F63] ; dec dword [ecx-0x0002834B] ; dec dword [ecx-0x00028743] ; jmp dword [esi-0x74] ;  (1 found)
0x00000c73: dec dword [ecx-0x0002834B] ; dec dword [ecx-0x00028743] ; jmp dword [esi-0x74] ;  (1 found)
0x00000c79: dec dword [ecx-0x00028743] ; jmp dword [esi-0x74] ;  (1 found)
0x000004a9: dec eax ; add al, 0x51 ; mov edx, dword [eax] ; push edx ; call dword [0x004020BC] ;  (1 found)
0x00000c03: dec eax ; add al, 0x83 ; or byte [edx], al ; mov dword [eax+0x04], ecx ; ret  ;  (1 found)
0x00000c09: dec eax ; add al, 0xC3 ; xor eax, eax ; cmp dword [0x00403004], eax ; sete al ; ret  ;  (1 found)
0x00001202: dec eax ; and byte [eax+0x00], al ; jmp dword [0x00402040] ;  (1 found)
0x00000b0c: dec eax ; pop ebp ; ret  ;  (1 found)
0x000008cd: dec edx ; or al, 0x72 ; or cl, byte [ebx+0x42030842] ; or al, 0x3B ; enter 0x0C72, 0x83 ; retn 0x3B28 ;  (1 found)
0x0000041c: enter 0x0000, 0x00 ; and dword [fs:eax+0x00], eax ; mov eax, dword [ebp-0x04] ; mov esp, ebp ; pop ebp ; ret  ;  (1 found)
0x000005a7: enter 0x0000, 0x00 ; lea edx, dword [ebp-0x00000268] ; push edx ; call dword [0x004020C0] ;  (1 found)
0x000008d8: enter 0x0C72, 0x83 ; retn 0x3B28 ;  (1 found)
0x00000aef: fcomp dword [ecx+0x1B] ; sal bh, 0xFFFFFFD0 ; and eax, dword [ebp+0x08] ; pop ebp ; ret  ;  (1 found)
0x00000b06: fcomp dword [ecx+0x1B] ; sal bh, 0xFFFFFFD8 ; dec eax ; pop ebp ; ret  ;  (1 found)
0x00000728: fimul dword [edx] ; add byte [eax], al ; pop ecx ; ret  ;  (1 found)
0x00000d04: fisttp dword [ebp+0x4589A845] ; clc  ; lea eax, dword [ebp-0x00000324] ; sbb bl, bl ; mov dword [ebp-0x04], eax ; inc bl ; call dword [0x0040201C] ;  (1 found)
0x00000d12: fisttp dword [ecx-0x3C0103BB] ; call dword [0x0040201C] ;  (1 found)
0x00000b0b: fmul dword [eax+0x5D] ; ret  ;  (1 found)
0x00000b4e: hlt  ; mov dword [ebp-0x04], eax ; call dword [0x00402004] ;  (1 found)
0x00000b41: hlt  ; push eax ; call dword [0x00402008] ;  (1 found)
0x000005a2: hlt  ; push ecx ; push 0x00000001 ; push 0x000000C8 ; lea edx, dword [ebp-0x00000268] ; push edx ; call dword [0x004020C0] ;  (1 found)
0x000005e0: hlt  ; push edx ; call dword [0x004020B0] ;  (1 found)
0x00000482: in al, dx ; mov eax, 0x00403020 ; pop ebp ; ret  ;  (1 found)
0x00000a57: in al, dx ; mov eax, dword [eax] ; xor ecx, ecx ; cmp dword [eax], 0xC0000005 ; sete cl ; mov eax, ecx ; ret  ;  (1 found)
0x00000402: in al, dx ; pop ebp ; ret  ;  (1 found)
0x00001067: in al, dx ; push 0x00000000 ; call dword [0x0040201C] ;  (1 found)
0x00000b66: in al, dx ; push eax ; call dword [0x0040202C] ;  (1 found)
0x00000432: in al, dx ; push ecx ; push 0x00402110 ; lea eax, dword [ebp+0x10] ; push eax ; call dword [0x004020C4] ;  (1 found)
0x00000ea5: in eax, 0x02 ; add byte [eax], al ; add esp, 0x18 ; pop ebp ; ret  ;  (1 found)
0x00000e86: in eax, 0x5D ; push ecx ; ret  ;  (1 found)
0x00000428: in eax, 0x5D ; ret  ;  (1 found)
0x00000475: in eax, 0x5D ; ret  ;  (1 found)
0x0000062c: in eax, 0x5D ; ret  ;  (1 found)
0x0000066d: in eax, 0x5D ; ret  ;  (1 found)
0x000009e5: in eax, 0x5D ; ret  ;  (1 found)
0x00000ba8: in eax, 0x5D ; ret  ;  (1 found)
0x00000d3c: in eax, 0x5D ; ret  ;  (1 found)
0x00001045: in eax, 0x5D ; ret  ;  (1 found)
0x00001185: in eax, 0x5D ; ret  ;  (1 found)
0x00000d16: inc bl ; call dword [0x0040201C] ;  (1 found)
0x0000065b: inc dword [ebx+0x458910C4] ; clc  ; mov dword [ebp-0x04], 0x00000000 ; mov eax, dword [ebp-0x08] ; mov esp, ebp ; pop ebp ; ret  ;  (1 found)
0x00000620: inc dword [ecx+0x0001A4C4] ; add byte [ebx], dh ; rcr byte [edi+0x5E], 0xFFFFFF8B ; in eax, 0x5D ; ret  ;  (1 found)
0x00000ea2: inc eax ; add al, ch ; in eax, 0x02 ; add byte [eax], al ; add esp, 0x18 ; pop ebp ; ret  ;  (1 found)
0x000004d4: inc eax ; add al, ch ; push ebp ; add dword [eax], eax ; add byte [ebx+0x016A04C4], al ; call dword [0x00402074] ;  (1 found)
0x00000468: inc eax ; add al, ch ; rol dword [ecx], 0x00000000 ; add byte [ebx-0x3FCCF73C], al ; mov esp, ebp ; pop ebp ; ret  ;  (1 found)
0x0000057a: inc eax ; add al, ch ; scasd  ; add byte [eax], al ; add byte [ebx+0x016A04C4], al ; call dword [0x00402074] ;  (1 found)
0x00000d86: inc eax ; add bh, bh ; adc eax, 0x0040201C ; ret  ;  (1 found)
0x00000bbb: inc eax ; add bh, bh ; adc eax, 0x00402028 ; ret  ;  (1 found)
0x0000118c: inc eax ; add bh, bh ; and eax, 0x00402034 ; jmp dword [0x00402074] ;  (1 found)
0x00001204: inc eax ; add bh, bh ; and eax, 0x00402040 ; jmp dword [0x004020B4] ;  (1 found)
0x000011fe: inc eax ; add bh, bh ; and eax, 0x00402048 ; jmp dword [0x00402040] ;  (1 found)
0x000011b0: inc eax ; add bh, bh ; and eax, 0x00402050 ; jmp dword [0x0040209C] ;  (1 found)
0x000011e6: inc eax ; add bh, bh ; and eax, 0x00402058 ; jmp dword [0x0040205C] ;  (1 found)
0x000011ec: inc eax ; add bh, bh ; and eax, 0x0040205C ; jmp dword [0x00402060] ;  (1 found)
0x000011f2: inc eax ; add bh, bh ; and eax, 0x00402060 ; jmp dword [0x00402064] ;  (1 found)
0x000011f8: inc eax ; add bh, bh ; and eax, 0x00402064 ; jmp dword [0x00402048] ;  (1 found)
0x000011e0: inc eax ; add bh, bh ; and eax, 0x00402068 ; jmp dword [0x00402058] ;  (1 found)
0x000011bc: inc eax ; add bh, bh ; and eax, 0x0040206C ; jmp dword [0x004020A4] ;  (1 found)
0x00001192: inc eax ; add bh, bh ; and eax, 0x00402074 ; jmp dword [0x004020D0] ;  (1 found)
0x00001216: inc eax ; add bh, bh ; and eax, 0x00402078 ; jmp dword [0x0040207C] ;  (1 found)
0x0000121c: inc eax ; add bh, bh ; and eax, 0x0040207C ; jmp dword [0x00402080] ;  (1 found)
0x00001222: inc eax ; add bh, bh ; and eax, 0x00402080 ; jmp dword [0x00402084] ;  (1 found)
0x00001228: inc eax ; add bh, bh ; and eax, 0x00402084 ; jmp dword [0x00402018] ;  (1 found)
0x000011a4: inc eax ; add bh, bh ; and eax, 0x00402088 ; jmp dword [0x0040208C] ;  (1 found)
0x000011aa: inc eax ; add bh, bh ; and eax, 0x0040208C ; jmp dword [0x00402050] ;  (1 found)
0x000011d4: inc eax ; add bh, bh ; and eax, 0x00402090 ; jmp dword [0x004020B8] ;  (1 found)
0x000011ce: inc eax ; add bh, bh ; and eax, 0x00402094 ; jmp dword [0x00402090] ;  (1 found)
0x000011c8: inc eax ; add bh, bh ; and eax, 0x00402098 ; jmp dword [0x00402094] ;  (1 found)
0x000011b6: inc eax ; add bh, bh ; and eax, 0x0040209C ; jmp dword [0x0040206C] ;  (1 found)
0x00001210: inc eax ; add bh, bh ; and eax, 0x004020A0 ; jmp dword [0x00402078] ;  (1 found)
0x000011c2: inc eax ; add bh, bh ; and eax, 0x004020A4 ; jmp dword [0x00402098] ;  (1 found)
0x0000120a: inc eax ; add bh, bh ; and eax, 0x004020B4 ; jmp dword [0x004020A0] ;  (1 found)
0x000011da: inc eax ; add bh, bh ; and eax, 0x004020B8 ; jmp dword [0x00402068] ;  (1 found)
0x0000119e: inc eax ; add bh, bh ; and eax, 0x004020CC ; jmp dword [0x00402088] ;  (1 found)
0x00001198: inc eax ; add bh, bh ; and eax, 0x004020D0 ; jmp dword [0x004020CC] ;  (1 found)
0x00000b9b: inc eax ; add bh, dh ; ror dword [ecx+0x4030140D], 1  ; add byte [edi+0x5E], bl ; mov esp, ebp ; pop ebp ; ret  ;  (1 found)
0x00000bc1: inc eax ; add bl, al ; mov al, 0x01 ; ret  ;  (1 found)
0x00000c1b: inc eax ; add bl, al ; mov eax, 0x0040338C ; ret  ;  (1 found)
0x00000b3b: inc eax ; add bl, ch ; lea ax, word [ebp-0x0C] ; push eax ; call dword [0x00402008] ;  (1 found)
0x00001082: inc eax ; add byte [eax-0x01], dl ; adc eax, 0x0040200C ; pop ebp ; ret  ;  (1 found)
0x00000bb4: inc eax ; add byte [eax], al ; ret  ;  (1 found)
0x0000055c: inc eax ; add byte [ebp-0x00019F6B], cl ; call dword [edx-0x01] ;  (1 found)
0x00000b47: inc eax ; add byte [ebx+0x4533F845], cl ; hlt  ; mov dword [ebp-0x04], eax ; call dword [0x00402004] ;  (1 found)
0x0000058a: inc eax ; add byte [ebx-0x0000D77B], cl ; call dword [eax+0x68] ;  (1 found)
0x00000422: inc eax ; add byte [ebx-0x1A7403BB], cl ; pop ebp ; ret  ;  (1 found)
0x0000103f: inc eax ; add byte [ebx], dh ; rcr byte [ebx-0x75], 0xFFFFFFE5 ; pop ebp ; ret  ;  (1 found)
0x00000b56: inc eax ; add byte [ecx], dh ; inc ebp ; cld  ; call dword [0x00402000] ;  (1 found)
0x00000b5f: inc eax ; add byte [ecx], dh ; inc ebp ; cld  ; lea eax, dword [ebp-0x14] ; push eax ; call dword [0x0040202C] ;  (1 found)
0x00000ba3: inc eax ; add byte [edi+0x5E], bl ; mov esp, ebp ; pop ebp ; ret  ;  (1 found)
0x00000c12: inc eax ; add byte [edi], cl ; xchg eax, esp ; rol bl, 0xFFFFFFB8 ; nop  ; xor eax, dword [eax+0x00] ; ret  ;  (1 found)
0x00000d37: inc eax ; add byte [esi+0x5B], bl ; mov esp, ebp ; pop ebp ; ret  ;  (1 found)
0x00001208: inc eax ; and byte [eax+0x00], al ; jmp dword [0x004020B4] ;  (1 found)
0x00000cee: inc eax ; mov dword [ebp-0x54], 0x00000001 ; mov dword [ebp-0x4C], eax ; call dword [0x00402024] ;  (1 found)
0x00000bad: inc eax ; ret  ;  (1 found)
0x00000d09: inc ebp ; clc  ; lea eax, dword [ebp-0x00000324] ; sbb bl, bl ; mov dword [ebp-0x04], eax ; inc bl ; call dword [0x0040201C] ;  (1 found)
0x00000e69: inc ebp ; clc  ; lea eax, dword [ebp-0x10] ; mov dword [fs:0x00000000], eax ; ret  ;  (1 found)
0x00000660: inc ebp ; clc  ; mov dword [ebp-0x04], 0x00000000 ; mov eax, dword [ebp-0x08] ; mov esp, ebp ; pop ebp ; ret  ;  (1 found)
0x0000066a: inc ebp ; clc  ; mov esp, ebp ; pop ebp ; ret  ;  (1 found)
0x00000d1f: inc ebp ; clc  ; push eax ; call dword [0x00402020] ;  (1 found)
0x00000b4a: inc ebp ; clc  ; xor eax, dword [ebp-0x0C] ; mov dword [ebp-0x04], eax ; call dword [0x00402004] ;  (1 found)
0x00000b59: inc ebp ; cld  ; call dword [0x00402000] ;  (1 found)
0x00000b50: inc ebp ; cld  ; call dword [0x00402004] ;  (1 found)
0x00000d14: inc ebp ; cld  ; inc bl ; call dword [0x0040201C] ;  (1 found)
0x00000b62: inc ebp ; cld  ; lea eax, dword [ebp-0x14] ; push eax ; call dword [0x0040202C] ;  (1 found)
0x00000418: inc ebp ; cld  ; mov dword [eax+0x000000C8], 0x00402164 ; mov eax, dword [ebp-0x04] ; mov esp, ebp ; pop ebp ; ret  ;  (1 found)
0x00000e5f: inc ebp ; cld  ; mov dword [ebp-0x04], 0xFFFFFFFE ; mov dword [ebp-0x08], eax ; lea eax, dword [ebp-0x10] ; mov dword [fs:0x00000000], eax ; ret  ;  (1 found)
0x00000425: inc ebp ; cld  ; mov esp, ebp ; pop ebp ; ret  ;  (1 found)
0x00000b4d: inc ebp ; hlt  ; mov dword [ebp-0x04], eax ; call dword [0x00402004] ;  (1 found)
0x00000b40: inc ebp ; hlt  ; push eax ; call dword [0x00402008] ;  (1 found)
0x00000b65: inc ebp ; in al, dx ; push eax ; call dword [0x0040202C] ;  (1 found)
0x00000cf0: inc ebp ; lodsb  ; add dword [eax], eax ; add byte [eax], al ; mov dword [ebp-0x4C], eax ; call dword [0x00402024] ;  (1 found)
0x00000e6c: inc ebp ; mov dword [fs:0x00000000], eax ; ret  ;  (1 found)
0x00000ce9: inc ebp ; test al, 0x15 ; add byte [eax], al ; inc eax ; mov dword [ebp-0x54], 0x00000001 ; mov dword [ebp-0x4C], eax ; call dword [0x00402024] ;  (1 found)
0x000008d5: inc edx ; or al, 0x3B ; enter 0x0C72, 0x83 ; retn 0x3B28 ;  (1 found)
0x000008d2: inc edx ; or byte [ebx], al ; inc edx ; or al, 0x3B ; enter 0x0C72, 0x83 ; retn 0x3B28 ;  (1 found)
0x00000552: inc esp ; or al, 0x00 ; add byte [ebx+0x286808C4], al ; and dword [eax+0x00], eax ; lea edx, dword [ebp-0x000001A0] ; push edx ; call dword [0x004020C4] ;  (1 found)
0x000011c0: insb  ; and byte [eax+0x00], al ; jmp dword [0x004020A4] ;  (1 found)
0x000011a2: int3  ; and byte [eax+0x00], al ; jmp dword [0x00402088] ;  (1 found)
0x0000047e: int3  ; int3  ; push ebp ; mov ebp, esp ; mov eax, 0x00403020 ; pop ebp ; ret  ;  (1 found)
0x0000047f: int3  ; push ebp ; mov ebp, esp ; mov eax, 0x00403020 ; pop ebp ; ret  ;  (1 found)
0x00000be7: int3  ; ret  ;  (1 found)
0x00001230: jmp dword [0x00402018] ;  (1 found)
0x0000118e: jmp dword [0x00402034] ;  (1 found)
0x00001188: jmp dword [0x00402038] ;  (1 found)
0x00001206: jmp dword [0x00402040] ;  (1 found)
0x00001200: jmp dword [0x00402048] ;  (1 found)
0x000011b2: jmp dword [0x00402050] ;  (1 found)
0x000011e8: jmp dword [0x00402058] ;  (1 found)
0x000011ee: jmp dword [0x0040205C] ;  (1 found)
0x000011f4: jmp dword [0x00402060] ;  (1 found)
0x000011fa: jmp dword [0x00402064] ;  (1 found)
0x000011e2: jmp dword [0x00402068] ;  (1 found)
0x000011be: jmp dword [0x0040206C] ;  (1 found)
0x00001194: jmp dword [0x00402074] ;  (1 found)
0x00001218: jmp dword [0x00402078] ;  (1 found)
0x0000121e: jmp dword [0x0040207C] ;  (1 found)
0x00001224: jmp dword [0x00402080] ;  (1 found)
0x0000122a: jmp dword [0x00402084] ;  (1 found)
0x000011a6: jmp dword [0x00402088] ;  (1 found)
0x000011ac: jmp dword [0x0040208C] ;  (1 found)
0x000011d6: jmp dword [0x00402090] ;  (1 found)
0x000011d0: jmp dword [0x00402094] ;  (1 found)
0x000011ca: jmp dword [0x00402098] ;  (1 found)
0x000011b8: jmp dword [0x0040209C] ;  (1 found)
0x00001212: jmp dword [0x004020A0] ;  (1 found)
0x000011c4: jmp dword [0x004020A4] ;  (1 found)
0x0000120c: jmp dword [0x004020B4] ;  (1 found)
0x000011dc: jmp dword [0x004020B8] ;  (1 found)
0x000011a0: jmp dword [0x004020CC] ;  (1 found)
0x0000119a: jmp dword [0x004020D0] ;  (1 found)
0x00000e26: jmp dword [0x004020D8] ;  (1 found)
0x000004f0: jmp dword [ecx+0x00402070] ;  (1 found)
0x00000c8d: jmp dword [esi-0x74] ;  (1 found)
0x00000c9b: jmp dword [esi-0x74] ;  (1 found)
0x00000c94: jmp dword [esi-0x74] ;  (1 found)
0x00000c86: jmp dword [esi-0x74] ;  (1 found)
0x00000c7f: jmp dword [esi-0x74] ;  (1 found)
0x00000ca2: jmp dword [esi-0x74] ;  (1 found)
0x00000b3e: lea ax, word [ebp-0x0C] ; push eax ; call dword [0x00402008] ;  (1 found)
0x00000439: lea eax, dword [ebp+0x10] ; push eax ; call dword [0x004020C4] ;  (1 found)
0x00000d0b: lea eax, dword [ebp-0x00000324] ; sbb bl, bl ; mov dword [ebp-0x04], eax ; inc bl ; call dword [0x0040201C] ;  (1 found)
0x00000d1e: lea eax, dword [ebp-0x08] ; push eax ; call dword [0x00402020] ;  (1 found)
0x00000b3f: lea eax, dword [ebp-0x0C] ; push eax ; call dword [0x00402008] ;  (1 found)
0x00000e6b: lea eax, dword [ebp-0x10] ; mov dword [fs:0x00000000], eax ; ret  ;  (1 found)
0x00000b64: lea eax, dword [ebp-0x14] ; push eax ; call dword [0x0040202C] ;  (1 found)
0x00000d05: lea eax, dword [ebp-0x58] ; mov dword [ebp-0x08], eax ; lea eax, dword [ebp-0x00000324] ; sbb bl, bl ; mov dword [ebp-0x04], eax ; inc bl ; call dword [0x0040201C] ;  (1 found)
0x0000055e: lea edx, dword [ebp-0x000001A0] ; push edx ; call dword [0x004020C4] ;  (1 found)
0x000005ab: lea edx, dword [ebp-0x00000268] ; push edx ; call dword [0x004020C0] ;  (1 found)
0x00000a5b: leave  ; cmp dword [eax], 0xC0000005 ; sete cl ; mov eax, ecx ; ret  ;  (1 found)
0x000004b6: les ebx,  [eax] ; pop ebp ; ret  ;  (1 found)
0x00000eaa: les ebx,  [eax] ; pop ebp ; ret  ;  (1 found)
0x000005dc: les ecx,  [eax] ; mov edx, dword [ebp-0x0C] ; push edx ; call dword [0x004020B0] ;  (1 found)
0x00000557: les ecx,  [eax] ; push 0x00402128 ; lea edx, dword [ebp-0x000001A0] ; push edx ; call dword [0x004020C4] ;  (1 found)
0x00000470: les ecx,  [eax] ; xor eax, eax ; mov esp, ebp ; pop ebp ; ret  ;  (1 found)
0x0000065d: les edx,  [eax] ; mov dword [ebp-0x08], eax ; mov dword [ebp-0x04], 0x00000000 ; mov eax, dword [ebp-0x08] ; mov esp, ebp ; pop ebp ; ret  ;  (1 found)
0x00000622: les esp,  [ecx+eax-0x3FCD0000] ; pop edi ; pop esi ; mov esp, ebp ; pop ebp ; ret  ;  (1 found)
0x00000cf1: lodsb  ; add dword [eax], eax ; add byte [eax], al ; mov dword [ebp-0x4C], eax ; call dword [0x00402024] ;  (1 found)
0x0000120e: mov ah, 0x20 ; inc eax ; add bh, bh ; and eax, 0x004020A0 ; jmp dword [0x00402078] ;  (1 found)
0x00000955: mov al, 0x01 ; pop ebp ; ret  ;  (1 found)
0x00000abb: mov al, 0x01 ; pop ebp ; ret  ;  (1 found)
0x0000091c: mov al, 0x01 ; pop esi ; ret  ;  (1 found)
0x00000bc4: mov al, 0x01 ; ret  ;  (1 found)
0x00001214: mov al, byte [0xFF004020] ; and eax, 0x00402078 ; jmp dword [0x0040207C] ;  (1 found)
0x000011a8: mov byte [eax], ah ; inc eax ; add bh, bh ; and eax, 0x0040208C ; jmp dword [0x00402050] ;  (1 found)
0x00000e6f: mov dword [0x00000000], eax ; ret  ;  (1 found)
0x0000103c: mov dword [0x00403010], eax ; xor eax, eax ; pop ebx ; mov esp, ebp ; pop ebp ; ret  ;  (1 found)
0x00000b9f: mov dword [0x00403014], ecx ; pop edi ; pop esi ; mov esp, ebp ; pop ebp ; ret  ;  (1 found)
0x00001032: mov dword [0x00403064], 0x00000005 ; mov dword [0x00403010], eax ; xor eax, eax ; pop ebx ; mov esp, ebp ; pop ebp ; ret  ;  (1 found)
0x0000041a: mov dword [eax+0x000000C8], 0x00402164 ; mov eax, dword [ebp-0x04] ; mov esp, ebp ; pop ebp ; ret  ;  (1 found)
0x00000c08: mov dword [eax+0x04], ecx ; ret  ;  (1 found)
0x00000722: mov dword [eax+eax], eax ; add byte [eax-0x18], dl ; fimul dword [edx] ; add byte [eax], al ; pop ecx ; ret  ;  (1 found)
0x00000662: mov dword [ebp-0x04], 0x00000000 ; mov eax, dword [ebp-0x08] ; mov esp, ebp ; pop ebp ; ret  ;  (1 found)
0x00000e61: mov dword [ebp-0x04], 0xFFFFFFFE ; mov dword [ebp-0x08], eax ; lea eax, dword [ebp-0x10] ; mov dword [fs:0x00000000], eax ; ret  ;  (1 found)
0x00000b4f: mov dword [ebp-0x04], eax ; call dword [0x00402004] ;  (1 found)
0x00000d13: mov dword [ebp-0x04], eax ; inc bl ; call dword [0x0040201C] ;  (1 found)
0x00000414: mov dword [ebp-0x04], ecx ; mov eax, dword [ebp-0x04] ; mov dword [eax+0x000000C8], 0x00402164 ; mov eax, dword [ebp-0x04] ; mov esp, ebp ; pop ebp ; ret  ;  (1 found)
0x00000d08: mov dword [ebp-0x08], eax ; lea eax, dword [ebp-0x00000324] ; sbb bl, bl ; mov dword [ebp-0x04], eax ; inc bl ; call dword [0x0040201C] ;  (1 found)
0x00000e68: mov dword [ebp-0x08], eax ; lea eax, dword [ebp-0x10] ; mov dword [fs:0x00000000], eax ; ret  ;  (1 found)
0x0000065f: mov dword [ebp-0x08], eax ; mov dword [ebp-0x04], 0x00000000 ; mov eax, dword [ebp-0x08] ; mov esp, ebp ; pop ebp ; ret  ;  (1 found)
0x00000cf6: mov dword [ebp-0x4C], eax ; call dword [0x00402024] ;  (1 found)
0x00000cef: mov dword [ebp-0x54], 0x00000001 ; mov dword [ebp-0x4C], eax ; call dword [0x00402024] ;  (1 found)
0x00000ce8: mov dword [ebp-0x58], 0x40000015 ; mov dword [ebp-0x54], 0x00000001 ; mov dword [ebp-0x4C], eax ; call dword [0x00402024] ;  (1 found)
0x00000e6d: mov dword [fs:0x00000000], eax ; ret  ;  (1 found)
0x00000e6e: mov dword [fs:0x00000000], eax ; ret  ;  (1 found)
0x00000bb2: mov eax, 0x00004000 ; ret  ;  (1 found)
0x00000483: mov eax, 0x00403020 ; pop ebp ; ret  ;  (1 found)
0x00000be9: mov eax, 0x00403058 ; ret  ;  (1 found)
0x00000c1e: mov eax, 0x0040338C ; ret  ;  (1 found)
0x00000c18: mov eax, 0x00403390 ; ret  ;  (1 found)
0x000011de: mov eax, 0xFF004020 ; and eax, 0x00402068 ; jmp dword [0x00402058] ;  (1 found)
0x00000a58: mov eax, dword [eax] ; xor ecx, ecx ; cmp dword [eax], 0xC0000005 ; sete cl ; mov eax, ecx ; ret  ;  (1 found)
0x00000ce2: mov eax, dword [ebp+0x04] ; add esp, 0x0C ; mov dword [ebp-0x58], 0x40000015 ; mov dword [ebp-0x54], 0x00000001 ; mov dword [ebp-0x4C], eax ; call dword [0x00402024] ;  (1 found)
0x00000417: mov eax, dword [ebp-0x04] ; mov dword [eax+0x000000C8], 0x00402164 ; mov eax, dword [ebp-0x04] ; mov esp, ebp ; pop ebp ; ret  ;  (1 found)
0x00000e5e: mov eax, dword [ebp-0x04] ; mov dword [ebp-0x04], 0xFFFFFFFE ; mov dword [ebp-0x08], eax ; lea eax, dword [ebp-0x10] ; mov dword [fs:0x00000000], eax ; ret  ;  (1 found)
0x00000424: mov eax, dword [ebp-0x04] ; mov esp, ebp ; pop ebp ; ret  ;  (1 found)
0x00000669: mov eax, dword [ebp-0x08] ; mov esp, ebp ; pop ebp ; ret  ;  (1 found)
0x00000b49: mov eax, dword [ebp-0x08] ; xor eax, dword [ebp-0x0C] ; mov dword [ebp-0x04], eax ; call dword [0x00402004] ;  (1 found)
0x00000a55: mov eax, dword [ebp-0x14] ; mov eax, dword [eax] ; xor ecx, ecx ; cmp dword [eax], 0xC0000005 ; sete cl ; mov eax, ecx ; ret  ;  (1 found)
0x00000a65: mov eax, ecx ; ret  ;  (1 found)
0x00000481: mov ebp, esp ; mov eax, 0x00403020 ; pop ebp ; ret  ;  (1 found)
0x00000401: mov ebp, esp ; pop ebp ; ret  ;  (1 found)
0x00001066: mov ebp, esp ; push 0x00000000 ; call dword [0x0040201C] ;  (1 found)
0x00000431: mov ebp, esp ; push ecx ; push 0x00402110 ; lea eax, dword [ebp+0x10] ; push eax ; call dword [0x004020C4] ;  (1 found)
0x00000a8e: mov ecx, 0x00403030 ; xchg dword [ecx], eax ; pop ebp ; ret  ;  (1 found)
0x00000c02: mov ecx, dword [eax+0x04] ; or dword [eax], 0x02 ; mov dword [eax+0x04], ecx ; ret  ;  (1 found)
0x000004a8: mov ecx, dword [eax+0x04] ; push ecx ; mov edx, dword [eax] ; push edx ; call dword [0x004020BC] ;  (1 found)
0x00000641: mov ecx, dword [ebp-0x04] ; push ecx ; push 0x00000000 ; mov edx, dword [ebp+0x08] ; push edx ; push 0x00000001 ; call dword [0x004020AC] ;  (1 found)
0x00000449: mov ecx, dword [ebp-0x04] ; push ecx ; push 0x00000001 ; push 0x000007D0 ; mov edx, dword [ebp+0x0C] ; push edx ; call dword [0x004020C0] ;  (1 found)
0x000005a0: mov ecx, dword [ebp-0x0C] ; push ecx ; push 0x00000001 ; push 0x000000C8 ; lea edx, dword [ebp-0x00000268] ; push edx ; call dword [0x004020C0] ;  (1 found)
0x00000b01: mov edx, 0xF7FFFFFF ; fcomp dword [ecx+0x1B] ; sal bh, 0xFFFFFFD8 ; dec eax ; pop ebp ; ret  ;  (1 found)
0x000004ac: mov edx, dword [eax] ; push edx ; call dword [0x004020BC] ;  (1 found)
0x00000647: mov edx, dword [ebp+0x08] ; push edx ; push 0x00000001 ; call dword [0x004020AC] ;  (1 found)
0x00000454: mov edx, dword [ebp+0x0C] ; push edx ; call dword [0x004020C0] ;  (1 found)
0x000005de: mov edx, dword [ebp-0x0C] ; push edx ; call dword [0x004020B0] ;  (1 found)
0x000004b1: mov esp, 0x83004020 ; les ebx,  [eax] ; pop ebp ; ret  ;  (1 found)
0x00000e85: mov esp, ebp ; pop ebp ; push ecx ; ret  ;  (1 found)
0x00000427: mov esp, ebp ; pop ebp ; ret  ;  (1 found)
0x00000474: mov esp, ebp ; pop ebp ; ret  ;  (1 found)
0x0000062b: mov esp, ebp ; pop ebp ; ret  ;  (1 found)
0x0000066c: mov esp, ebp ; pop ebp ; ret  ;  (1 found)
0x000009e4: mov esp, ebp ; pop ebp ; ret  ;  (1 found)
0x00000ba7: mov esp, ebp ; pop ebp ; ret  ;  (1 found)
0x00000d3b: mov esp, ebp ; pop ebp ; ret  ;  (1 found)
0x00001044: mov esp, ebp ; pop ebp ; ret  ;  (1 found)
0x00001184: mov esp, ebp ; pop ebp ; ret  ;  (1 found)
0x000011ae: mov word [eax], fs ; inc eax ; add bh, bh ; and eax, 0x00402050 ; jmp dword [0x0040209C] ;  (1 found)
0x00000623: movsb  ; add dword [eax], eax ; add byte [ebx], dh ; rcr byte [edi+0x5E], 0xFFFFFF8B ; in eax, 0x5D ; ret  ;  (1 found)
0x000011c6: movsb  ; and byte [eax+0x00], al ; jmp dword [0x00402098] ;  (1 found)
0x000009e0: movsd  ; movsd  ; pop edi ; pop esi ; mov esp, ebp ; pop ebp ; ret  ;  (1 found)
0x000009e1: movsd  ; pop edi ; pop esi ; mov esp, ebp ; pop ebp ; ret  ;  (1 found)
0x00000b0a: neg eax ; dec eax ; pop ebp ; ret  ;  (1 found)
0x00000b05: neg eax ; pop ecx ; sbb eax, eax ; neg eax ; dec eax ; pop ebp ; ret  ;  (1 found)
0x00000aee: neg eax ; pop ecx ; sbb eax, eax ; not eax ; and eax, dword [ebp+0x08] ; pop ebp ; ret  ;  (1 found)
0x000011d8: nop  ; and byte [eax+0x00], al ; jmp dword [0x004020B8] ;  (1 found)
0x00000c19: nop  ; xor eax, dword [eax+0x00] ; ret  ;  (1 found)
0x00000af3: not eax ; and eax, dword [ebp+0x08] ; pop ebp ; ret  ;  (1 found)
0x00000b9d: not ecx ; mov dword [0x00403014], ecx ; pop edi ; pop esi ; mov esp, ebp ; pop ebp ; ret  ;  (1 found)
0x00000553: or al, 0x00 ; add byte [ebx+0x286808C4], al ; and dword [eax+0x00], eax ; lea edx, dword [ebp-0x000001A0] ; push edx ; call dword [0x004020C4] ;  (1 found)
0x0000041b: or al, 0x00000000 ; add byte [eax], al ; and dword [fs:eax+0x00], eax ; mov eax, dword [ebp-0x04] ; mov esp, ebp ; pop ebp ; ret  ;  (1 found)
0x000008cb: or al, 0x3B ; dec edx ; or al, 0x72 ; or cl, byte [ebx+0x42030842] ; or al, 0x3B ; enter 0x0C72, 0x83 ; retn 0x3B28 ;  (1 found)
0x000008d6: or al, 0x3B ; enter 0x0C72, 0x83 ; retn 0x3B28 ;  (1 found)
0x00000456: or al, 0x52 ; call dword [0x004020C0] ;  (1 found)
0x000008ce: or al, 0x72 ; or cl, byte [ebx+0x42030842] ; or al, 0x3B ; enter 0x0C72, 0x83 ; retn 0x3B28 ;  (1 found)
0x000008da: or al, 0x83 ; retn 0x3B28 ;  (1 found)
0x00000aff: or al, ch ; mov edx, 0xF7FFFFFF ; fcomp dword [ecx+0x1B] ; sal bh, 0xFFFFFFD8 ; dec eax ; pop ebp ; ret  ;  (1 found)
0x00001072: or bh, bh ; adc eax, 0x00402020 ; push 0xC0000409 ; call dword [0x00402010] ;  (1 found)
0x00000558: or byte [eax+0x28], ch ; and dword [eax+0x00], eax ; lea edx, dword [ebp-0x000001A0] ; push edx ; call dword [0x004020C4] ;  (1 found)
0x00000b45: or byte [eax], ah ; inc eax ; add byte [ebx+0x4533F845], cl ; hlt  ; mov dword [ebp-0x04], eax ; call dword [0x00402004] ;  (1 found)
0x0000059f: or byte [ebx+0x6A51F44D], cl ; add dword [eax-0x38], ebp ; add byte [eax], al ; add byte [ebp-0x0002676B], cl ; call dword [edx-0x01] ;  (1 found)
0x000008d3: or byte [ebx], al ; inc edx ; or al, 0x3B ; enter 0x0C72, 0x83 ; retn 0x3B28 ;  (1 found)
0x000005f3: or byte [edx+0x01], ch ; call dword [0x00402074] ;  (1 found)
0x00000c06: or byte [edx], al ; mov dword [eax+0x04], ecx ; ret  ;  (1 found)
0x000008d0: or cl, byte [ebx+0x42030842] ; or al, 0x3B ; enter 0x0C72, 0x83 ; retn 0x3B28 ;  (1 found)
0x00000c05: or dword [eax], 0x02 ; mov dword [eax+0x04], ecx ; ret  ;  (1 found)
0x00000868: or dword [eax], eax ; add byte [ecx+0x59], bl ; ret  ;  (1 found)
0x00000e11: or dword [ebx+0x000DE8CF], ecx ; add byte [eax], al ; call edi ;  (1 found)
0x00000de6: or dword [ebx+0x0038E8CF], ecx ; add byte [eax], al ; call edi ;  (1 found)
0x00000ba0: or eax, 0x00403014 ; pop edi ; pop esi ; mov esp, ebp ; pop ebp ; ret  ;  (1 found)
0x00000ab5: or eax, dword [ecx] ; add byte [eax], al ; pop ecx ; pop ecx ; mov al, 0x01 ; pop ebp ; ret  ;  (1 found)
0x0000061d: paddd mm7, mm7 ; inc dword [ecx+0x0001A4C4] ; add byte [ebx], dh ; rcr byte [edi+0x5E], 0xFFFFFF8B ; in eax, 0x5D ; ret  ;  (1 found)
0x000011ea: pop eax ; and byte [eax+0x00], al ; jmp dword [0x0040205C] ;  (1 found)
0x00000bea: pop eax ; xor byte [eax+0x00], al ; ret  ;  (1 found)
0x00000e87: pop ebp ; push ecx ; ret  ;  (1 found)
0x00000403: pop ebp ; ret  ;  (1 found)
0x00000429: pop ebp ; ret  ;  (1 found)
0x000004b8: pop ebp ; ret  ;  (1 found)
0x00000476: pop ebp ; ret  ;  (1 found)
0x00000488: pop ebp ; ret  ;  (1 found)
0x0000066e: pop ebp ; ret  ;  (1 found)
0x0000062d: pop ebp ; ret  ;  (1 found)
0x000008e5: pop ebp ; ret  ;  (1 found)
0x000009e6: pop ebp ; ret  ;  (1 found)
0x00000a95: pop ebp ; ret  ;  (1 found)
0x00000957: pop ebp ; ret  ;  (1 found)
0x00000940: pop ebp ; ret  ;  (1 found)
0x00000b0d: pop ebp ; ret  ;  (1 found)
0x00000abd: pop ebp ; ret  ;  (1 found)
0x00000af8: pop ebp ; ret  ;  (1 found)
0x00000ba9: pop ebp ; ret  ;  (1 found)
0x00000d3d: pop ebp ; ret  ;  (1 found)
0x00001046: pop ebp ; ret  ;  (1 found)
0x00000eac: pop ebp ; ret  ;  (1 found)
0x00001186: pop ebp ; ret  ;  (1 found)
0x0000108b: pop ebp ; ret  ;  (1 found)
0x00000dc6: pop ebp ; retn 0x0004 ;  (1 found)
0x00000e84: pop ebx ; mov esp, ebp ; pop ebp ; push ecx ; ret  ;  (1 found)
0x00000d3a: pop ebx ; mov esp, ebp ; pop ebp ; ret  ;  (1 found)
0x00001043: pop ebx ; mov esp, ebp ; pop ebp ; ret  ;  (1 found)
0x00000df9: pop ebx ; ret  ;  (1 found)
0x00000e24: pop ebx ; ret  ;  (1 found)
0x00000aba: pop ecx ; mov al, 0x01 ; pop ebp ; ret  ;  (1 found)
0x00000ab9: pop ecx ; pop ecx ; mov al, 0x01 ; pop ebp ; ret  ;  (1 found)
0x0000086b: pop ecx ; pop ecx ; ret  ;  (1 found)
0x0000072c: pop ecx ; ret  ;  (1 found)
0x0000086c: pop ecx ; ret  ;  (1 found)
0x00000b07: pop ecx ; sbb eax, eax ; neg eax ; dec eax ; pop ebp ; ret  ;  (1 found)
0x00000af0: pop ecx ; sbb eax, eax ; not eax ; and eax, dword [ebp+0x08] ; pop ebp ; ret  ;  (1 found)
0x00000629: pop edi ; pop esi ; mov esp, ebp ; pop ebp ; ret  ;  (1 found)
0x000009e2: pop edi ; pop esi ; mov esp, ebp ; pop ebp ; ret  ;  (1 found)
0x00000ba5: pop edi ; pop esi ; mov esp, ebp ; pop ebp ; ret  ;  (1 found)
0x00000e82: pop edi ; pop esi ; pop ebx ; mov esp, ebp ; pop ebp ; push ecx ; ret  ;  (1 found)
0x00000e22: pop edi ; pop esi ; pop ebx ; ret  ;  (1 found)
0x00000df7: pop edi ; pop esi ; pop ebx ; ret  ;  (1 found)
0x00000451: pop es ; add byte [eax], al ; mov edx, dword [ebp+0x0C] ; push edx ; call dword [0x004020C0] ;  (1 found)
0x0000062a: pop esi ; mov esp, ebp ; pop ebp ; ret  ;  (1 found)
0x000009e3: pop esi ; mov esp, ebp ; pop ebp ; ret  ;  (1 found)
0x00000ba6: pop esi ; mov esp, ebp ; pop ebp ; ret  ;  (1 found)
0x000008e4: pop esi ; pop ebp ; ret  ;  (1 found)
0x00000e83: pop esi ; pop ebx ; mov esp, ebp ; pop ebp ; push ecx ; ret  ;  (1 found)
0x00000d39: pop esi ; pop ebx ; mov esp, ebp ; pop ebp ; ret  ;  (1 found)
0x00000df8: pop esi ; pop ebx ; ret  ;  (1 found)
0x00000e23: pop esi ; pop ebx ; ret  ;  (1 found)
0x0000091e: pop esi ; ret  ;  (1 found)
0x0000091a: pop esi ; ret  ;  (1 found)
0x000011f0: pop esp ; and byte [eax+0x00], al ; jmp dword [0x00402060] ;  (1 found)
0x00000c6f: popfd  ; cmp ch, 0xFFFFFFFF ; dec dword [ecx-0x0002834B] ; dec dword [ecx-0x00028743] ; jmp dword [esi-0x74] ;  (1 found)
0x00000d3f: push 0x00000000 ; call dword [0x00402014] ;  (1 found)
0x00001068: push 0x00000000 ; call dword [0x0040201C] ;  (1 found)
0x00000645: push 0x00000000 ; mov edx, dword [ebp+0x08] ; push edx ; push 0x00000001 ; call dword [0x004020AC] ;  (1 found)
0x000004de: push 0x00000001 ; call dword [0x00402074] ;  (1 found)
0x00000584: push 0x00000001 ; call dword [0x00402074] ;  (1 found)
0x000005f4: push 0x00000001 ; call dword [0x00402074] ;  (1 found)
0x0000064b: push 0x00000001 ; call dword [0x004020AC] ;  (1 found)
0x000005a4: push 0x00000001 ; push 0x000000C8 ; lea edx, dword [ebp-0x00000268] ; push edx ; call dword [0x004020C0] ;  (1 found)
0x0000044d: push 0x00000001 ; push 0x000007D0 ; mov edx, dword [ebp+0x0C] ; push edx ; call dword [0x004020C0] ;  (1 found)
0x000005a6: push 0x000000C8 ; lea edx, dword [ebp-0x00000268] ; push edx ; call dword [0x004020C0] ;  (1 found)
0x0000044f: push 0x000007D0 ; mov edx, dword [ebp+0x0C] ; push edx ; call dword [0x004020C0] ;  (1 found)
0x00000d83: push 0x0040198F ; call dword [0x0040201C] ;  (1 found)
0x00000434: push 0x00402110 ; lea eax, dword [ebp+0x10] ; push eax ; call dword [0x004020C4] ;  (1 found)
0x00000559: push 0x00402128 ; lea edx, dword [ebp-0x000001A0] ; push edx ; call dword [0x004020C4] ;  (1 found)
0x00000bb8: push 0x00403050 ; call dword [0x00402028] ;  (1 found)
0x00001079: push 0xC0000409 ; call dword [0x00402010] ;  (1 found)
0x000011e4: push 0xFF004020 ; and eax, 0x00402058 ; jmp dword [0x0040205C] ;  (1 found)
0x00001070: push dword [ebp+0x08] ; call dword [0x00402020] ;  (1 found)
0x00000e5b: push dword [ebp-0x08] ; mov eax, dword [ebp-0x04] ; mov dword [ebp-0x04], 0xFFFFFFFE ; mov dword [ebp-0x08], eax ; lea eax, dword [ebp-0x10] ; mov dword [fs:0x00000000], eax ; ret  ;  (1 found)
0x000011b4: push eax ; and byte [eax+0x00], al ; jmp dword [0x0040209C] ;  (1 found)
0x00000b42: push eax ; call dword [0x00402008] ;  (1 found)
0x00001084: push eax ; call dword [0x0040200C] ;  (1 found)
0x00000d21: push eax ; call dword [0x00402020] ;  (1 found)
0x00000b67: push eax ; call dword [0x0040202C] ;  (1 found)
0x0000043c: push eax ; call dword [0x004020C4] ;  (1 found)
0x00000bb9: push eax ; xor byte [eax+0x00], al ; call dword [0x00402028] ;  (1 found)
0x000005d7: push ebp ; add byte [eax], al ; add byte [ebx+0x558B08C4], al ; hlt  ; push edx ; call dword [0x004020B0] ;  (1 found)
0x000004d7: push ebp ; add dword [eax], eax ; add byte [ebx+0x016A04C4], al ; call dword [0x00402074] ;  (1 found)
0x000005df: push ebp ; hlt  ; push edx ; call dword [0x004020B0] ;  (1 found)
0x00000480: push ebp ; mov ebp, esp ; mov eax, 0x00403020 ; pop ebp ; ret  ;  (1 found)
0x00000400: push ebp ; mov ebp, esp ; pop ebp ; ret  ;  (1 found)
0x00001065: push ebp ; mov ebp, esp ; push 0x00000000 ; call dword [0x0040201C] ;  (1 found)
0x00000430: push ebp ; mov ebp, esp ; push ecx ; push 0x00402110 ; lea eax, dword [ebp+0x10] ; push eax ; call dword [0x004020C4] ;  (1 found)
0x00000455: push ebp ; or al, 0x52 ; call dword [0x004020C0] ;  (1 found)
0x000004ab: push ecx ; mov edx, dword [eax] ; push edx ; call dword [0x004020BC] ;  (1 found)
0x00000644: push ecx ; push 0x00000000 ; mov edx, dword [ebp+0x08] ; push edx ; push 0x00000001 ; call dword [0x004020AC] ;  (1 found)
0x000005a3: push ecx ; push 0x00000001 ; push 0x000000C8 ; lea edx, dword [ebp-0x00000268] ; push edx ; call dword [0x004020C0] ;  (1 found)
0x0000044c: push ecx ; push 0x00000001 ; push 0x000007D0 ; mov edx, dword [ebp+0x0C] ; push edx ; call dword [0x004020C0] ;  (1 found)
0x00000433: push ecx ; push 0x00402110 ; lea eax, dword [ebp+0x10] ; push eax ; call dword [0x004020C4] ;  (1 found)
0x00000e88: push ecx ; ret  ;  (1 found)
0x00000b04: push edi ; fcomp dword [ecx+0x1B] ; sal bh, 0xFFFFFFD8 ; dec eax ; pop ebp ; ret  ;  (1 found)
0x000005e1: push edx ; call dword [0x004020B0] ;  (1 found)
0x000004ae: push edx ; call dword [0x004020BC] ;  (1 found)
0x00000457: push edx ; call dword [0x004020C0] ;  (1 found)
0x000005b1: push edx ; call dword [0x004020C0] ;  (1 found)
0x00000564: push edx ; call dword [0x004020C4] ;  (1 found)
0x0000064a: push edx ; push 0x00000001 ; call dword [0x004020AC] ;  (1 found)
0x000007e7: push es ; add byte [eax], al ; call esi ;  (1 found)
0x00000dc3: push es ; xor eax, eax ; pop ebp ; retn 0x0004 ;  (1 found)
0x000011f6: pushad  ; and byte [eax+0x00], al ; jmp dword [0x00402064] ;  (1 found)
0x00000d35: pushad  ; xor byte [eax+0x00], al ; pop esi ; pop ebx ; mov esp, ebp ; pop ebp ; ret  ;  (1 found)
0x000011ba: pushfd  ; and byte [eax+0x00], al ; jmp dword [0x0040206C] ;  (1 found)
0x00001042: rcr byte [ebx-0x75], 0xFFFFFFE5 ; pop ebp ; ret  ;  (1 found)
0x00000628: rcr byte [edi+0x5E], 0xFFFFFF8B ; in eax, 0x5D ; ret  ;  (1 found)
0x00000404: ret  ;  (1 found)
0x0000042a: ret  ;  (1 found)
0x00000477: ret  ;  (1 found)
0x000004b9: ret  ;  (1 found)
0x00000489: ret  ;  (1 found)
0x0000062e: ret  ;  (1 found)
0x0000066f: ret  ;  (1 found)
0x0000070b: ret  ;  (1 found)
0x0000091b: ret  ;  (1 found)
0x000008f6: ret  ;  (1 found)
0x000008e6: ret  ;  (1 found)
0x0000086d: ret  ;  (1 found)
0x0000072d: ret  ;  (1 found)
0x0000071b: ret  ;  (1 found)
0x0000089c: ret  ;  (1 found)
0x00000a96: ret  ;  (1 found)
0x00000a67: ret  ;  (1 found)
0x00000a79: ret  ;  (1 found)
0x00000abe: ret  ;  (1 found)
0x00000941: ret  ;  (1 found)
0x000009e7: ret  ;  (1 found)
0x00000958: ret  ;  (1 found)
0x0000091f: ret  ;  (1 found)
0x00000e74: ret  ;  (1 found)
0x00000b0e: ret  ;  (1 found)
0x00000af9: ret  ;  (1 found)
0x00000baa: ret  ;  (1 found)
0x00000c17: ret  ;  (1 found)
0x00000c23: ret  ;  (1 found)
0x00000bee: ret  ;  (1 found)
0x00000c0b: ret  ;  (1 found)
0x00000c1d: ret  ;  (1 found)
0x00000be8: ret  ;  (1 found)
0x00000bc6: ret  ;  (1 found)
0x00000bb7: ret  ;  (1 found)
0x00000bae: ret  ;  (1 found)
0x00000bb1: ret  ;  (1 found)
0x00000bc3: ret  ;  (1 found)
0x00000bdf: ret  ;  (1 found)
0x00000e25: ret  ;  (1 found)
0x00000dfa: ret  ;  (1 found)
0x0000108c: ret  ;  (1 found)
0x00000d3e: ret  ;  (1 found)
0x00000d2e: ret  ;  (1 found)
0x00000d17: ret  ;  (1 found)
0x00000d4f: ret  ;  (1 found)
0x00000d82: ret  ;  (1 found)
0x00000d8e: ret  ;  (1 found)
0x00000e8a: ret  ;  (1 found)
0x00001053: ret  ;  (1 found)
0x00001047: ret  ;  (1 found)
0x00000ead: ret  ;  (1 found)
0x00000e89: ret  ;  (1 found)
0x00000e75: ret  ;  (1 found)
0x0000105d: ret  ;  (1 found)
0x0000105e: ret  ;  (1 found)
0x00001187: ret  ;  (1 found)
0x00000dc7: retn 0x0004 ;  (1 found)
0x000008dc: retn 0x3B28 ;  (1 found)
0x000008e8: retn 0xF9EB ;  (1 found)
0x00000bb0: rol bl, 0xFFFFFFB8 ; add byte [eax+0x00], al ; add bl, al ; push 0x00403050 ; call dword [0x00402028] ;  (1 found)
0x00000c16: rol bl, 0xFFFFFFB8 ; nop  ; xor eax, dword [eax+0x00] ; ret  ;  (1 found)
0x00000bac: rol byte [eax-0x3D], 0x00000033 ; rol bl, 0xFFFFFFB8 ; add byte [eax+0x00], al ; add bl, al ; push 0x00403050 ; call dword [0x00402028] ;  (1 found)
0x00000450: rol byte [edi], 1  ; add byte [eax], al ; mov edx, dword [ebp+0x0C] ; push edx ; call dword [0x004020C0] ;  (1 found)
0x0000046b: rol dword [ecx], 0x00000000 ; add byte [ebx-0x3FCCF73C], al ; mov esp, ebp ; pop ebp ; ret  ;  (1 found)
0x00000b9e: ror dword [ecx+0x4030140D], 1  ; add byte [edi+0x5E], bl ; mov esp, ebp ; pop ebp ; ret  ;  (1 found)
0x00000af2: sal bh, 0xFFFFFFD0 ; and eax, dword [ebp+0x08] ; pop ebp ; ret  ;  (1 found)
0x00000b09: sal bh, 0xFFFFFFD8 ; dec eax ; pop ebp ; ret  ;  (1 found)
0x0000107d: sar bh, 0x00000015 ; adc byte [eax], ah ; inc eax ; add byte [eax-0x01], dl ; adc eax, 0x0040200C ; pop ebp ; ret  ;  (1 found)
0x00000d11: sbb bl, bl ; mov dword [ebp-0x04], eax ; inc bl ; call dword [0x0040201C] ;  (1 found)
0x00000d85: sbb dword [eax+0x00], eax ; call dword [0x0040201C] ;  (1 found)
0x000008c8: sbb dword [ebx+0x4A3B0C4D], ecx ; or al, 0x72 ; or cl, byte [ebx+0x42030842] ; or al, 0x3B ; enter 0x0C72, 0x83 ; retn 0x3B28 ;  (1 found)
0x00000d31: sbb eax, eax ; and dword [0x00403060], eax ; pop esi ; pop ebx ; mov esp, ebp ; pop ebp ; ret  ;  (1 found)
0x00000b08: sbb eax, eax ; neg eax ; dec eax ; pop ebp ; ret  ;  (1 found)
0x00000af1: sbb eax, eax ; not eax ; and eax, dword [ebp+0x08] ; pop ebp ; ret  ;  (1 found)
0x0000057d: scasd  ; add byte [eax], al ; add byte [ebx+0x016A04C4], al ; call dword [0x00402074] ;  (1 found)
0x00000c14: sete al ; ret  ;  (1 found)
0x00000a62: sete cl ; mov eax, ecx ; ret  ;  (1 found)
0x00000d7f: setne al ; ret  ;  (1 found)
0x00001050: setne al ; ret  ;  (1 found)
0x0000119c: shl byte [eax], 1  ; inc eax ; add bh, bh ; and eax, 0x004020CC ; jmp dword [0x00402088] ;  (1 found)
0x00000578: sub al, 0x21 ; inc eax ; add al, ch ; scasd  ; add byte [eax], al ; add byte [ebx+0x016A04C4], al ; call dword [0x00402074] ;  (1 found)
0x00000bbf: sub byte [eax], ah ; inc eax ; add bl, al ; mov al, 0x01 ; ret  ;  (1 found)
0x00001061: sub byte [eax], al ; add byte [eax], al ; push ebp ; mov ebp, esp ; push 0x00000000 ; call dword [0x0040201C] ;  (1 found)
0x0000055a: sub byte [ecx], ah ; inc eax ; add byte [ebp-0x00019F6B], cl ; call dword [edx-0x01] ;  (1 found)
0x00000cea: test al, 0x15 ; add byte [eax], al ; inc eax ; mov dword [ebp-0x54], 0x00000001 ; mov dword [ebp-0x4C], eax ; call dword [0x00402024] ;  (1 found)
0x00000a93: xchg dword [ecx], eax ; pop ebp ; ret  ;  (1 found)
0x000011d2: xchg eax, esp ; and byte [eax+0x00], al ; jmp dword [0x00402090] ;  (1 found)
0x00000c15: xchg eax, esp ; rol bl, 0xFFFFFFB8 ; nop  ; xor eax, dword [eax+0x00] ; ret  ;  (1 found)
0x00001190: xor al, 0x20 ; inc eax ; add bh, bh ; and eax, 0x00402074 ; jmp dword [0x004020D0] ;  (1 found)
0x0000093e: xor al, al ; pop ebp ; ret  ;  (1 found)
0x00000917: xor al, al ; pop esi ; ret  ;  (1 found)
0x00000918: xor al, al ; pop esi ; ret  ;  (1 found)
0x000008f4: xor al, al ; ret  ;  (1 found)
0x00000d4d: xor al, al ; ret  ;  (1 found)
0x00000bba: xor byte [eax+0x00], al ; call dword [0x00402028] ;  (1 found)
0x00000485: xor byte [eax+0x00], al ; pop ebp ; ret  ;  (1 found)
0x00000ba2: xor byte [eax+0x00], al ; pop edi ; pop esi ; mov esp, ebp ; pop ebp ; ret  ;  (1 found)
0x00000d36: xor byte [eax+0x00], al ; pop esi ; pop ebx ; mov esp, ebp ; pop ebp ; ret  ;  (1 found)
0x00000beb: xor byte [eax+0x00], al ; ret  ;  (1 found)
0x00000c11: xor byte [eax+0x00], al ; sete al ; ret  ;  (1 found)
0x0000104d: xor byte [eax+0x00], al ; setne al ; ret  ;  (1 found)
0x00000a90: xor byte [eax+0x00], al ; xchg dword [ecx], eax ; pop ebp ; ret  ;  (1 found)
0x0000103e: xor byte [eax+0x00], al ; xor eax, eax ; pop ebx ; mov esp, ebp ; pop ebp ; ret  ;  (1 found)
0x00000b58: xor dword [ebp-0x04], eax ; call dword [0x00402000] ;  (1 found)
0x00000b61: xor dword [ebp-0x04], eax ; lea eax, dword [ebp-0x14] ; push eax ; call dword [0x0040202C] ;  (1 found)
0x00000c1a: xor eax, dword [eax+0x00] ; ret  ;  (1 found)
0x00000c20: xor eax, dword [eax+0x00] ; ret  ;  (1 found)
0x00000b4c: xor eax, dword [ebp-0x0C] ; mov dword [ebp-0x04], eax ; call dword [0x00402004] ;  (1 found)
0x00000c0c: xor eax, eax ; cmp dword [0x00403004], eax ; sete al ; ret  ;  (1 found)
0x00001048: xor eax, eax ; cmp dword [0x0040301C], eax ; setne al ; ret  ;  (1 found)
0x00000bab: xor eax, eax ; inc eax ; ret  ;  (1 found)
0x00000a8c: xor eax, eax ; mov ecx, 0x00403030 ; xchg dword [ecx], eax ; pop ebp ; ret  ;  (1 found)
0x00000472: xor eax, eax ; mov esp, ebp ; pop ebp ; ret  ;  (1 found)
0x00000dc4: xor eax, eax ; pop ebp ; retn 0x0004 ;  (1 found)
0x00001041: xor eax, eax ; pop ebx ; mov esp, ebp ; pop ebp ; ret  ;  (1 found)
0x00000627: xor eax, eax ; pop edi ; pop esi ; mov esp, ebp ; pop ebp ; ret  ;  (1 found)
0x000008e2: xor eax, eax ; pop esi ; pop ebp ; ret  ;  (1 found)
0x00000709: xor eax, eax ; ret  ;  (1 found)
0x00000719: xor eax, eax ; ret  ;  (1 found)
0x00000baf: xor eax, eax ; ret  ;  (1 found)
0x00000a5a: xor ecx, ecx ; cmp dword [eax], 0xC0000005 ; sete cl ; mov eax, ecx ; ret  ;  (1 found)
