Trying to open 'A:/re/ida/x/examen-level-11b/level-11b.exe'..
FileFormat: raw, Arch: Ia32
Using the Nasm syntax..

Wait a few seconds, rp++ is looking for gadgets..
in .raw
988 found.

A total of 988 gadgets found.
0x000005c1: aam 0x30 ; adc byte [eax], dl ; add esp, 0x18 ; pop ebp ; ret  ;  (1 found)
0x00000800: aam 0x5D ; ret  ;  (1 found)
0x00000f3b: adc al, 0x30 ; adc byte [eax], dl ; xor dword [ebp-0x04], eax ; lea eax, dword [ebp-0x14] ; push eax ; call dword [0x10103010] ;  (1 found)
0x0000145d: adc al, 0x40 ; adc byte [eax], dl ; setne al ; ret  ;  (1 found)
0x00000629: adc al, ch ; popad  ; add dword [eax], eax ; add byte [ebx+0x016A04C4], al ; call dword [0x1010309C] ;  (1 found)
0x00001162: adc bh, bh ; adc eax, 0x10103000 ; ret  ;  (1 found)
0x00000f9a: adc bh, bh ; adc eax, 0x10103020 ; ret  ;  (1 found)
0x0000152f: adc bh, bh ; and eax, 0x1010300C ; mov al, 0x01 ; ret  ;  (1 found)
0x0000147b: adc bh, bh ; and eax, 0x10103034 ; jmp dword [0x10103040] ;  (1 found)
0x00001475: adc bh, bh ; and eax, 0x10103038 ; jmp dword [0x10103034] ;  (1 found)
0x0000146f: adc bh, bh ; and eax, 0x1010303C ; jmp dword [0x10103038] ;  (1 found)
0x00001481: adc bh, bh ; and eax, 0x10103040 ; jmp dword [0x101030E0] ;  (1 found)
0x00001499: adc bh, bh ; and eax, 0x1010304C ; jmp dword [0x101030B8] ;  (1 found)
0x00001529: adc bh, bh ; and eax, 0x10103050 ; jmp dword [0x1010300C] ;  (1 found)
0x00001493: adc bh, bh ; and eax, 0x10103054 ; jmp dword [0x1010304C] ;  (1 found)
0x000014ff: adc bh, bh ; and eax, 0x10103058 ; jmp dword [0x101030C4] ;  (1 found)
0x000014f9: adc bh, bh ; and eax, 0x10103060 ; jmp dword [0x10103058] ;  (1 found)
0x000014ab: adc bh, bh ; and eax, 0x10103068 ; jmp dword [0x10103078] ;  (1 found)
0x000014ed: adc bh, bh ; and eax, 0x10103070 ; jmp dword [0x10103074] ;  (1 found)
0x000014f3: adc bh, bh ; and eax, 0x10103074 ; jmp dword [0x10103060] ;  (1 found)
0x000014b1: adc bh, bh ; and eax, 0x10103078 ; jmp dword [0x101030BC] ;  (1 found)
0x000014e7: adc bh, bh ; and eax, 0x1010307C ; jmp dword [0x10103070] ;  (1 found)
0x000014e1: adc bh, bh ; and eax, 0x10103084 ; jmp dword [0x1010307C] ;  (1 found)
0x00001511: adc bh, bh ; and eax, 0x10103088 ; jmp dword [0x1010308C] ;  (1 found)
0x00001517: adc bh, bh ; and eax, 0x1010308C ; jmp dword [0x10103090] ;  (1 found)
0x0000151d: adc bh, bh ; and eax, 0x10103090 ; jmp dword [0x10103094] ;  (1 found)
0x00001523: adc bh, bh ; and eax, 0x10103094 ; jmp dword [0x10103050] ;  (1 found)
0x000014db: adc bh, bh ; and eax, 0x10103098 ; jmp dword [0x10103084] ;  (1 found)
0x0000148d: adc bh, bh ; and eax, 0x1010309C ; jmp dword [0x10103054] ;  (1 found)
0x000014cf: adc bh, bh ; and eax, 0x101030A0 ; jmp dword [0x101030C8] ;  (1 found)
0x000014c9: adc bh, bh ; and eax, 0x101030A4 ; jmp dword [0x101030A0] ;  (1 found)
0x000014c3: adc bh, bh ; and eax, 0x101030A8 ; jmp dword [0x101030A4] ;  (1 found)
0x000014bd: adc bh, bh ; and eax, 0x101030AC ; jmp dword [0x101030A8] ;  (1 found)
0x0000150b: adc bh, bh ; and eax, 0x101030B0 ; jmp dword [0x10103088] ;  (1 found)
0x000014a5: adc bh, bh ; and eax, 0x101030B4 ; jmp dword [0x10103068] ;  (1 found)
0x0000149f: adc bh, bh ; and eax, 0x101030B8 ; jmp dword [0x101030B4] ;  (1 found)
0x000014b7: adc bh, bh ; and eax, 0x101030BC ; jmp dword [0x101030AC] ;  (1 found)
0x00001505: adc bh, bh ; and eax, 0x101030C4 ; jmp dword [0x101030B0] ;  (1 found)
0x000014d5: adc bh, bh ; and eax, 0x101030C8 ; jmp dword [0x10103098] ;  (1 found)
0x00001487: adc bh, bh ; and eax, 0x101030E0 ; jmp dword [0x1010309C] ;  (1 found)
0x00000f7a: adc bh, dh ; ror dword [ecx+0x1040000D], 1  ; adc byte [edi+0x5E], bl ; mov esp, ebp ; pop ebp ; ret  ;  (1 found)
0x00000ff7: adc bl, al ; mov eax, 0x101043F4 ; ret  ;  (1 found)
0x00000b60: adc bl, al ; push ebp ; mov ebp, esp ; push 0x00000000 ; call dword [0x10103000] ;  (1 found)
0x00000f1a: adc bl, ch ; lea ax, word [ebp-0x0C] ; push eax ; call dword [0x10103024] ;  (1 found)
0x00001448: adc byte [0xA3000000], al ; adc byte [eax+0x10], al ; adc byte [ebx], dh ; rcr byte [ebx-0x75], 0xFFFFFFE5 ; pop ebp ; ret  ;  (1 found)
0x00000b75: adc byte [eax+0x09], ch ; add al, 0x00 ; sar bh, 0x00000015 ; add al, 0x30 ; adc byte [eax], dl ; push eax ; call dword [0x10103008] ;  (1 found)
0x0000144e: adc byte [eax+0x10], al ; adc byte [ebx], dh ; rcr byte [ebx-0x75], 0xFFFFFFE5 ; pop ebp ; ret  ;  (1 found)
0x000008a4: adc byte [eax+eax], cl ; add al, ch ; fadd qword [esi] ; add byte [eax], al ; xor eax, eax ; ret  ;  (1 found)
0x00000b80: adc byte [eax-0x01], dl ; adc eax, 0x10103008 ; pop ebp ; ret  ;  (1 found)
0x00000ae5: adc byte [eax-0x18], dl ; mov cl, byte [ecx] ; add byte [eax], al ; pop ecx ; ret  ;  (1 found)
0x00000657: adc byte [eax-0x70], ch ; xor dword [eax], edx ; adc byte [ebp-0x0000CB7B], cl ; call dword [eax-0x01] ;  (1 found)
0x0000074b: adc byte [eax], dl ; adc byte [ebx-0x0003F37B], cl ; call dword [eax+0x68] ;  (1 found)
0x00001447: adc byte [eax], dl ; add eax, 0xA3000000 ; adc byte [eax+0x10], al ; adc byte [ebx], dh ; rcr byte [ebx-0x75], 0xFFFFFFE5 ; pop ebp ; ret  ;  (1 found)
0x00000653: adc byte [eax], dl ; add esp, 0x10 ; push 0x10103190 ; lea eax, dword [ebp-0x000000CC] ; push eax ; call dword [0x101030E4] ;  (1 found)
0x000005c3: adc byte [eax], dl ; add esp, 0x18 ; pop ebp ; ret  ;  (1 found)
0x00001161: adc byte [eax], dl ; call dword [0x10103000] ;  (1 found)
0x00000f99: adc byte [eax], dl ; call dword [0x10103020] ;  (1 found)
0x000005f5: adc byte [eax], dl ; call dword [0x101030CC] ;  (1 found)
0x0000152e: adc byte [eax], dl ; jmp dword [0x1010300C] ;  (1 found)
0x0000147a: adc byte [eax], dl ; jmp dword [0x10103034] ;  (1 found)
0x00001474: adc byte [eax], dl ; jmp dword [0x10103038] ;  (1 found)
0x0000146e: adc byte [eax], dl ; jmp dword [0x1010303C] ;  (1 found)
0x00001480: adc byte [eax], dl ; jmp dword [0x10103040] ;  (1 found)
0x00001498: adc byte [eax], dl ; jmp dword [0x1010304C] ;  (1 found)
0x00001528: adc byte [eax], dl ; jmp dword [0x10103050] ;  (1 found)
0x00001492: adc byte [eax], dl ; jmp dword [0x10103054] ;  (1 found)
0x000014fe: adc byte [eax], dl ; jmp dword [0x10103058] ;  (1 found)
0x000014f8: adc byte [eax], dl ; jmp dword [0x10103060] ;  (1 found)
0x000014aa: adc byte [eax], dl ; jmp dword [0x10103068] ;  (1 found)
0x000014ec: adc byte [eax], dl ; jmp dword [0x10103070] ;  (1 found)
0x000014f2: adc byte [eax], dl ; jmp dword [0x10103074] ;  (1 found)
0x000014b0: adc byte [eax], dl ; jmp dword [0x10103078] ;  (1 found)
0x000014e6: adc byte [eax], dl ; jmp dword [0x1010307C] ;  (1 found)
0x000014e0: adc byte [eax], dl ; jmp dword [0x10103084] ;  (1 found)
0x00001510: adc byte [eax], dl ; jmp dword [0x10103088] ;  (1 found)
0x00001516: adc byte [eax], dl ; jmp dword [0x1010308C] ;  (1 found)
0x0000151c: adc byte [eax], dl ; jmp dword [0x10103090] ;  (1 found)
0x00001522: adc byte [eax], dl ; jmp dword [0x10103094] ;  (1 found)
0x000014da: adc byte [eax], dl ; jmp dword [0x10103098] ;  (1 found)
0x0000148c: adc byte [eax], dl ; jmp dword [0x1010309C] ;  (1 found)
0x000014ce: adc byte [eax], dl ; jmp dword [0x101030A0] ;  (1 found)
0x000014c8: adc byte [eax], dl ; jmp dword [0x101030A4] ;  (1 found)
0x000014c2: adc byte [eax], dl ; jmp dword [0x101030A8] ;  (1 found)
0x000014bc: adc byte [eax], dl ; jmp dword [0x101030AC] ;  (1 found)
0x0000150a: adc byte [eax], dl ; jmp dword [0x101030B0] ;  (1 found)
0x000014a4: adc byte [eax], dl ; jmp dword [0x101030B4] ;  (1 found)
0x0000149e: adc byte [eax], dl ; jmp dword [0x101030B8] ;  (1 found)
0x000014b6: adc byte [eax], dl ; jmp dword [0x101030BC] ;  (1 found)
0x00001504: adc byte [eax], dl ; jmp dword [0x101030C4] ;  (1 found)
0x000014d4: adc byte [eax], dl ; jmp dword [0x101030C8] ;  (1 found)
0x00001486: adc byte [eax], dl ; jmp dword [0x101030E0] ;  (1 found)
0x0000065b: adc byte [eax], dl ; lea eax, dword [ebp-0x000000CC] ; push eax ; call dword [0x101030E4] ;  (1 found)
0x000010f7: adc byte [eax], dl ; lea eax, dword [ebp-0x08] ; push eax ; call dword [0x1010302C] ;  (1 found)
0x00001534: adc byte [eax], dl ; mov al, 0x01 ; ret  ;  (1 found)
0x00000a75: adc byte [eax], dl ; mov dword [ecx], 0x101031F4 ; ret  ;  (1 found)
0x00000aa8: adc byte [eax], dl ; mov dword [ecx], 0x10103210 ; ret  ;  (1 found)
0x00000f25: adc byte [eax], dl ; mov eax, dword [ebp-0x08] ; xor eax, dword [ebp-0x0C] ; mov dword [ebp-0x04], eax ; call dword [0x10103028] ;  (1 found)
0x00000a5d: adc byte [eax], dl ; mov eax, esi ; pop esi ; pop ebp ; retn 0x0004 ;  (1 found)
0x00000a90: adc byte [eax], dl ; mov eax, esi ; pop esi ; pop ebp ; retn 0x0004 ;  (1 found)
0x00000596: adc byte [eax], dl ; pop ebp ; ret  ;  (1 found)
0x00000b86: adc byte [eax], dl ; pop ebp ; ret  ;  (1 found)
0x00000f81: adc byte [eax], dl ; pop edi ; pop esi ; mov esp, ebp ; pop ebp ; ret  ;  (1 found)
0x00001112: adc byte [eax], dl ; pop esi ; pop ebx ; mov esp, ebp ; pop ebp ; ret  ;  (1 found)
0x000006ec: adc byte [eax], dl ; push 0x00000000 ; call dword [0x101030E4] ;  (1 found)
0x000005f0: adc byte [eax], dl ; push 0x10103150 ; call dword [0x101030CC] ;  (1 found)
0x00000b74: adc byte [eax], dl ; push 0xC0000409 ; call dword [0x10103004] ;  (1 found)
0x00000b6b: adc byte [eax], dl ; push dword [ebp+0x08] ; call dword [0x1010302C] ;  (1 found)
0x00000b7f: adc byte [eax], dl ; push eax ; call dword [0x10103008] ;  (1 found)
0x00000aae: adc byte [eax], dl ; ret  ;  (1 found)
0x00000a7b: adc byte [eax], dl ; ret  ;  (1 found)
0x00000b5f: adc byte [eax], dl ; ret  ;  (1 found)
0x00000f9f: adc byte [eax], dl ; ret  ;  (1 found)
0x00000fc7: adc byte [eax], dl ; ret  ;  (1 found)
0x00000ffc: adc byte [eax], dl ; ret  ;  (1 found)
0x00000ff6: adc byte [eax], dl ; ret  ;  (1 found)
0x00001167: adc byte [eax], dl ; ret  ;  (1 found)
0x00000fed: adc byte [eax], dl ; sete al ; ret  ;  (1 found)
0x0000145f: adc byte [eax], dl ; setne al ; ret  ;  (1 found)
0x00000e6f: adc byte [eax], dl ; xchg dword [ecx], eax ; pop ebp ; ret  ;  (1 found)
0x00000f34: adc byte [eax], dl ; xor dword [ebp-0x04], eax ; call dword [0x10103014] ;  (1 found)
0x00000f3d: adc byte [eax], dl ; xor dword [ebp-0x04], eax ; lea eax, dword [ebp-0x14] ; push eax ; call dword [0x10103010] ;  (1 found)
0x00001450: adc byte [eax], dl ; xor eax, eax ; pop ebx ; mov esp, ebp ; pop ebp ; ret  ;  (1 found)
0x000005dc: adc byte [eax], dl ; xor eax, ebp ; mov dword [ebp-0x04], eax ; mov dword [ebp-0x000003F4], 0x00000000 ; push 0x1010314C ; push 0x10103150 ; call dword [0x101030CC] ;  (1 found)
0x0000065c: adc byte [ebp-0x0000CB7B], cl ; call dword [eax-0x01] ;  (1 found)
0x00000f26: adc byte [ebx+0x4533F845], cl ; hlt  ; mov dword [ebp-0x04], eax ; call dword [0x10103028] ;  (1 found)
0x0000074d: adc byte [ebx-0x0003F37B], cl ; call dword [eax+0x68] ;  (1 found)
0x00000639: adc byte [ebx-0x0003F773], cl ; call dword [ecx+0x6A] ;  (1 found)
0x00000654: adc byte [ebx-0x6F97EF3C], al ; xor dword [eax], edx ; adc byte [ebp-0x0000CB7B], cl ; call dword [eax-0x01] ;  (1 found)
0x00001451: adc byte [ebx], dh ; rcr byte [ebx-0x75], 0xFFFFFFE5 ; pop ebp ; ret  ;  (1 found)
0x00000f35: adc byte [ecx], dh ; inc ebp ; cld  ; call dword [0x10103014] ;  (1 found)
0x00000f3e: adc byte [ecx], dh ; inc ebp ; cld  ; lea eax, dword [ebp-0x14] ; push eax ; call dword [0x10103010] ;  (1 found)
0x00000f82: adc byte [edi+0x5E], bl ; mov esp, ebp ; pop ebp ; ret  ;  (1 found)
0x00001460: adc byte [edi], cl ; xchg eax, ebp ; rol bl, 0xFFFFFFE9 ; rol byte [eax], 0x00000000 ; add bh, bh ; and eax, 0x10103044 ; jmp dword [0x1010303C] ;  (1 found)
0x00000fee: adc byte [edi], cl ; xchg eax, esp ; rol bl, 0xFFFFFFB8 ; clc  ; inc ebx ; adc byte [eax], dl ; ret  ;  (1 found)
0x000006ed: adc byte [edx+0x00], ch ; call dword [0x101030E4] ;  (1 found)
0x000005bd: adc byte [edx-0x01], dl ; adc eax, 0x101030D4 ; add esp, 0x18 ; pop ebp ; ret  ;  (1 found)
0x00000a8e: adc byte [edx], dh ; adc byte [eax], dl ; mov eax, esi ; pop esi ; pop ebp ; retn 0x0004 ;  (1 found)
0x00000aac: adc byte [edx], dh ; adc byte [eax], dl ; ret  ;  (1 found)
0x00001113: adc byte [esi+0x5B], bl ; mov esp, ebp ; pop ebp ; ret  ;  (1 found)
0x000010f4: adc eax, 0x10103000 ; lea eax, dword [ebp-0x08] ; push eax ; call dword [0x1010302C] ;  (1 found)
0x00000b68: adc eax, 0x10103000 ; push dword [ebp+0x08] ; call dword [0x1010302C] ;  (1 found)
0x00001164: adc eax, 0x10103000 ; ret  ;  (1 found)
0x00000b7c: adc eax, 0x10103004 ; push eax ; call dword [0x10103008] ;  (1 found)
0x00000b83: adc eax, 0x10103008 ; pop ebp ; ret  ;  (1 found)
0x00000f3a: adc eax, 0x10103014 ; xor dword [ebp-0x04], eax ; lea eax, dword [ebp-0x14] ; push eax ; call dword [0x10103010] ;  (1 found)
0x00000f9c: adc eax, 0x10103020 ; ret  ;  (1 found)
0x00000f22: adc eax, 0x10103024 ; mov eax, dword [ebp-0x08] ; xor eax, dword [ebp-0x0C] ; mov dword [ebp-0x04], eax ; call dword [0x10103028] ;  (1 found)
0x00000f31: adc eax, 0x10103028 ; xor dword [ebp-0x04], eax ; call dword [0x10103014] ;  (1 found)
0x00000b71: adc eax, 0x1010302C ; push 0xC0000409 ; call dword [0x10103004] ;  (1 found)
0x000005c0: adc eax, 0x101030D4 ; add esp, 0x18 ; pop ebp ; ret  ;  (1 found)
0x00000650: adc eax, 0x101030D8 ; add esp, 0x10 ; push 0x10103190 ; lea eax, dword [ebp-0x000000CC] ; push eax ; call dword [0x101030E4] ;  (1 found)
0x00000624: adc eax, 0x10316068 ; adc al, ch ; popad  ; add dword [eax], eax ; add byte [ebx+0x016A04C4], al ; call dword [0x1010309C] ;  (1 found)
0x000010c6: adc eax, 0xC7400000 ; inc ebp ; lodsb  ; add dword [eax], eax ; add byte [eax], al ; mov dword [ebp-0x4C], eax ; call dword [0x1010301C] ;  (1 found)
0x00000fc1: add ah, cl ; ret  ;  (1 found)
0x00000a64: add al, 0x00 ; and dword [ecx+0x04], 0x00000000 ; mov eax, ecx ; and dword [ecx+0x08], 0x00000000 ; mov dword [ecx+0x04], 0x101031FC ; mov dword [ecx], 0x101031F4 ; ret  ;  (1 found)
0x00000a97: add al, 0x00 ; and dword [ecx+0x04], 0x00000000 ; mov eax, ecx ; and dword [ecx+0x08], 0x00000000 ; mov dword [ecx+0x04], 0x10103218 ; mov dword [ecx], 0x10103210 ; ret  ;  (1 found)
0x00000a68: add al, 0x00 ; mov eax, ecx ; and dword [ecx+0x08], 0x00000000 ; mov dword [ecx+0x04], 0x101031FC ; mov dword [ecx], 0x101031F4 ; ret  ;  (1 found)
0x00000a9b: add al, 0x00 ; mov eax, ecx ; and dword [ecx+0x08], 0x00000000 ; mov dword [ecx+0x04], 0x10103218 ; mov dword [ecx], 0x10103210 ; ret  ;  (1 found)
0x00000b78: add al, 0x00 ; sar bh, 0x00000015 ; add al, 0x30 ; adc byte [eax], dl ; push eax ; call dword [0x10103008] ;  (1 found)
0x00000b7d: add al, 0x30 ; adc byte [eax], dl ; push eax ; call dword [0x10103008] ;  (1 found)
0x000005ba: add al, 0x51 ; mov edx, dword [eax] ; push edx ; call dword [0x101030D4] ;  (1 found)
0x00000fdf: add al, 0x83 ; or byte [edx], al ; mov dword [eax+0x04], ecx ; ret  ;  (1 found)
0x00000b57: add al, 0x85 ; sal byte [ebp+0x05], 0xFFFFFFB8 ; fdiv qword [ecx] ; adc byte [eax], dl ; ret  ;  (1 found)
0x00000fe5: add al, 0xC3 ; xor eax, eax ; cmp dword [0x1010400C], eax ; sete al ; ret  ;  (1 found)
0x00000b79: add al, al ; call dword [0x10103004] ;  (1 found)
0x00000e3e: add al, al ; sete cl ; mov eax, ecx ; ret  ;  (1 found)
0x000008a7: add al, ch ; fadd qword [esi] ; add byte [eax], al ; xor eax, eax ; ret  ;  (1 found)
0x00000d12: add al, ch ; push ds ; or byte [eax], al ; add byte [eax+eax*8-0x3FCDFB8B], al ; pop ebp ; ret  ;  (1 found)
0x00000b66: add bh, bh ; adc eax, 0x10103000 ; push dword [ebp+0x08] ; call dword [0x1010302C] ;  (1 found)
0x00001469: add bh, bh ; and eax, 0x10103044 ; jmp dword [0x1010303C] ;  (1 found)
0x00000f94: add bl, al ; push 0x101043D8 ; call dword [0x10103020] ;  (1 found)
0x00000f91: add byte [eax+0x00], al ; add bl, al ; push 0x101043D8 ; call dword [0x10103020] ;  (1 found)
0x00000f17: add byte [eax+0x10], al ; adc bl, ch ; lea ax, word [ebp-0x0C] ; push eax ; call dword [0x10103024] ;  (1 found)
0x00000f7f: add byte [eax+0x10], al ; adc byte [edi+0x5E], bl ; mov esp, ebp ; pop ebp ; ret  ;  (1 found)
0x0000089e: add byte [eax+eax*8+0x10E80574], al ; or al, 0x00 ; add al, ch ; fadd qword [esi] ; add byte [eax], al ; xor eax, eax ; ret  ;  (1 found)
0x00000d17: add byte [eax+eax*8-0x3FCDFB8B], al ; pop ebp ; ret  ;  (1 found)
0x000010c8: add byte [eax-0x39], al ; inc ebp ; lodsb  ; add dword [eax], eax ; add byte [eax], al ; mov dword [ebp-0x4C], eax ; call dword [0x1010301C] ;  (1 found)
0x00000fbf: add byte [eax], al ; add ah, cl ; ret  ;  (1 found)
0x00001467: add byte [eax], al ; add bh, bh ; and eax, 0x10103044 ; jmp dword [0x1010303C] ;  (1 found)
0x0000153e: add byte [eax], al ; add byte [eax], al ; add byte [eax], al ; add byte [eax], al ; add byte [eax], al ; add byte [eax], al ; call ecx ;  (1 found)
0x00001540: add byte [eax], al ; add byte [eax], al ; add byte [eax], al ; add byte [eax], al ; add byte [eax], al ; call ecx ;  (1 found)
0x00001542: add byte [eax], al ; add byte [eax], al ; add byte [eax], al ; add byte [eax], al ; call ecx ;  (1 found)
0x000003f9: add byte [eax], al ; add byte [eax], al ; add byte [eax], al ; add byte [ebp-0x75], dl ; in al, dx ; pop ebp ; ret  ;  (1 found)
0x00001544: add byte [eax], al ; add byte [eax], al ; add byte [eax], al ; call ecx ;  (1 found)
0x000003fa: add byte [eax], al ; add byte [eax], al ; add byte [eax], al ; push ebp ; mov ebp, esp ; pop ebp ; ret  ;  (1 found)
0x000016e6: add byte [eax], al ; add byte [eax], al ; add byte [eax], al ; ret  ;  (1 found)
0x000003fb: add byte [eax], al ; add byte [eax], al ; add byte [ebp-0x75], dl ; in al, dx ; pop ebp ; ret  ;  (1 found)
0x00001546: add byte [eax], al ; add byte [eax], al ; call ecx ;  (1 found)
0x000007c5: add byte [eax], al ; add byte [eax], al ; mov eax, dword [ebp-0x08] ; mov esp, ebp ; pop ebp ; ret  ;  (1 found)
0x000005e9: add byte [eax], al ; add byte [eax], al ; push 0x1010314C ; push 0x10103150 ; call dword [0x101030CC] ;  (1 found)
0x000003fc: add byte [eax], al ; add byte [eax], al ; push ebp ; mov ebp, esp ; pop ebp ; ret  ;  (1 found)
0x00001250: add byte [eax], al ; add byte [eax], al ; ret  ;  (1 found)
0x000016e8: add byte [eax], al ; add byte [eax], al ; ret  ;  (1 found)
0x00001156: add byte [eax], al ; add byte [eax], al ; setne al ; ret  ;  (1 found)
0x000006e4: add byte [eax], al ; add byte [ebp+0x5B], bh ; push 0x101031A4 ; push 0x00000000 ; call dword [0x101030E4] ;  (1 found)
0x00000645: add byte [eax], al ; add byte [ebp-0x0000CB6B], cl ; call dword [edx-0x01] ;  (1 found)
0x000003fd: add byte [eax], al ; add byte [ebp-0x75], dl ; in al, dx ; pop ebp ; ret  ;  (1 found)
0x0000144a: add byte [eax], al ; add byte [ebx+0x10104010], ah ; xor eax, eax ; pop ebx ; mov esp, ebp ; pop ebp ; ret  ;  (1 found)
0x000007c6: add byte [eax], al ; add byte [ebx-0x1A7407BB], cl ; pop ebp ; ret  ;  (1 found)
0x00001157: add byte [eax], al ; add byte [edi], cl ; xchg eax, ebp ; rol bl, 0x00000068 ; push 0x0000001D ; adc byte [eax], dl ; call dword [0x10103000] ;  (1 found)
0x00001251: add byte [eax], al ; add dl, dh ; ret  ;  (1 found)
0x0000062d: add byte [eax], al ; add esp, 0x04 ; push 0x00000001 ; call dword [0x1010309C] ;  (1 found)
0x0000075d: add byte [eax], al ; add esp, 0x08 ; lea ecx, dword [ebp-0x000003EC] ; push ecx ; mov edx, dword [ebp-0x000003F4] ; push edx ; call dword [ebp-0x000003FC] ;  (1 found)
0x00001287: add byte [eax], al ; add esp, 0x18 ; pop ebp ; ret  ;  (1 found)
0x00001548: add byte [eax], al ; call ecx ;  (1 found)
0x000011c7: add byte [eax], al ; call edi ;  (1 found)
0x000011f2: add byte [eax], al ; call edi ;  (1 found)
0x00000549: add byte [eax], al ; call edx ;  (1 found)
0x0000098c: add byte [eax], al ; call esi ;  (1 found)
0x000010c7: add byte [eax], al ; inc eax ; mov dword [ebp-0x54], 0x00000001 ; mov dword [ebp-0x4C], eax ; call dword [0x1010301C] ;  (1 found)
0x00000fc0: add byte [eax], al ; int3  ; ret  ;  (1 found)
0x00001468: add byte [eax], al ; jmp dword [0x10103044] ;  (1 found)
0x00000646: add byte [eax], al ; lea edx, dword [ebp-0x000000CC] ; push edx ; call dword [0x101030D8] ;  (1 found)
0x000016e2: add byte [eax], al ; mov byte [edx], bh ; add byte [eax], al ; add byte [eax], al ; add byte [eax], al ; ret  ;  (1 found)
0x0000144b: add byte [eax], al ; mov dword [0x10104010], eax ; xor eax, eax ; pop ebx ; mov esp, ebp ; pop ebp ; ret  ;  (1 found)
0x000010cf: add byte [eax], al ; mov dword [ebp-0x4C], eax ; call dword [0x1010301C] ;  (1 found)
0x00000a57: add byte [eax], al ; mov dword [esi], 0x101031F4 ; mov eax, esi ; pop esi ; pop ebp ; retn 0x0004 ;  (1 found)
0x00000a8a: add byte [eax], al ; mov dword [esi], 0x10103210 ; mov eax, esi ; pop esi ; pop ebp ; retn 0x0004 ;  (1 found)
0x000010bb: add byte [eax], al ; mov eax, dword [ebp+0x04] ; add esp, 0x0C ; mov dword [ebp-0x58], 0x40000015 ; mov dword [ebp-0x54], 0x00000001 ; mov dword [ebp-0x4C], eax ; call dword [0x1010301C] ;  (1 found)
0x000007c7: add byte [eax], al ; mov eax, dword [ebp-0x08] ; mov esp, ebp ; pop ebp ; ret  ;  (1 found)
0x00000582: add byte [eax], al ; mov esp, ebp ; pop ebp ; ret  ;  (1 found)
0x00000783: add byte [eax], al ; mov esp, ebp ; pop ebp ; ret  ;  (1 found)
0x00001297: add byte [eax], al ; pop ecx ; pop ebp ; ret  ;  (1 found)
0x00000e95: add byte [eax], al ; pop ecx ; pop ecx ; mov al, 0x01 ; pop ebp ; ret  ;  (1 found)
0x00000ad2: add byte [eax], al ; pop ecx ; pop ecx ; mov eax, esi ; pop esi ; pop ebp ; retn 0x0004 ;  (1 found)
0x00000b10: add byte [eax], al ; pop ecx ; pop ecx ; mov eax, esi ; pop esi ; pop ebp ; retn 0x0004 ;  (1 found)
0x00000a0d: add byte [eax], al ; pop ecx ; pop ecx ; ret  ;  (1 found)
0x000008ce: add byte [eax], al ; pop ecx ; ret  ;  (1 found)
0x00000aea: add byte [eax], al ; pop ecx ; ret  ;  (1 found)
0x000005eb: add byte [eax], al ; push 0x1010314C ; push 0x10103150 ; call dword [0x101030CC] ;  (1 found)
0x000003fe: add byte [eax], al ; push ebp ; mov ebp, esp ; pop ebp ; ret  ;  (1 found)
0x00000535: add byte [eax], al ; push edx ; mov eax, dword [ebp-0x00000328] ; mov ecx, dword [ebp+eax*4-0x00000324] ; mov edx, dword [ecx+0x000000DC] ; call edx ;  (1 found)
0x00000a3e: add byte [eax], al ; ret  ;  (1 found)
0x00000e55: add byte [eax], al ; ret  ;  (1 found)
0x00000f93: add byte [eax], al ; ret  ;  (1 found)
0x00001252: add byte [eax], al ; ret  ;  (1 found)
0x000016ea: add byte [eax], al ; ret  ;  (1 found)
0x00001158: add byte [eax], al ; setne al ; ret  ;  (1 found)
0x000008ab: add byte [eax], al ; xor eax, eax ; ret  ;  (1 found)
0x000008bb: add byte [eax], al ; xor eax, eax ; ret  ;  (1 found)
0x000010f5: add byte [eax], dh ; adc byte [eax], dl ; lea eax, dword [ebp-0x08] ; push eax ; call dword [0x1010302C] ;  (1 found)
0x00000b69: add byte [eax], dh ; adc byte [eax], dl ; push dword [ebp+0x08] ; call dword [0x1010302C] ;  (1 found)
0x00001165: add byte [eax], dh ; adc byte [eax], dl ; ret  ;  (1 found)
0x0000068b: add byte [ebp+0x08], dh ; push 0x00000001 ; call dword [0x1010309C] ;  (1 found)
0x00000e67: add byte [ebp+0x09], dh ; xor eax, eax ; mov ecx, 0x101043B8 ; xchg dword [ecx], eax ; pop ebp ; ret  ;  (1 found)
0x000006e6: add byte [ebp+0x5B], bh ; push 0x101031A4 ; push 0x00000000 ; call dword [0x101030E4] ;  (1 found)
0x00000647: add byte [ebp-0x0000CB6B], cl ; call dword [edx-0x01] ;  (1 found)
0x0000060c: add byte [ebp-0x0000CB7B], cl ; call dword [eax-0x18] ;  (1 found)
0x00000433: add byte [ebp-0x0003237B], cl ; call dword [eax-0x18] ;  (1 found)
0x000003ff: add byte [ebp-0x75], dl ; in al, dx ; pop ebp ; ret  ;  (1 found)
0x0000062e: add byte [ebx+0x016A04C4], al ; call dword [0x1010309C] ;  (1 found)
0x0000144c: add byte [ebx+0x10104010], ah ; xor eax, eax ; pop ebx ; mov esp, ebp ; pop ebp ; ret  ;  (1 found)
0x000007c8: add byte [ebx-0x1A7407BB], cl ; pop ebp ; ret  ;  (1 found)
0x00000e37: add byte [ebx], dh ; leave  ; cmp dword [eax], 0xC0000005 ; sete cl ; mov eax, ecx ; ret  ;  (1 found)
0x000005d8: add byte [ecx+0x10104004], ah ; xor eax, ebp ; mov dword [ebp-0x04], eax ; mov dword [ebp-0x000003F4], 0x00000000 ; push 0x1010314C ; push 0x10103150 ; call dword [0x101030CC] ;  (1 found)
0x00000e96: add byte [ecx+0x59], bl ; mov al, 0x01 ; pop ebp ; ret  ;  (1 found)
0x00000ad3: add byte [ecx+0x59], bl ; mov eax, esi ; pop esi ; pop ebp ; retn 0x0004 ;  (1 found)
0x00000b11: add byte [ecx+0x59], bl ; mov eax, esi ; pop esi ; pop ebp ; retn 0x0004 ;  (1 found)
0x00000a0e: add byte [ecx+0x59], bl ; ret  ;  (1 found)
0x00001298: add byte [ecx+0x5D], bl ; ret  ;  (1 found)
0x00000eca: add byte [ecx-0x09], bl ; fcomp dword [ecx+0x1B] ; sal bh, 0xFFFFFFD0 ; and eax, dword [ebp+0x08] ; pop ebp ; ret  ;  (1 found)
0x00001159: add byte [edi], cl ; xchg eax, ebp ; rol bl, 0x00000068 ; push 0x0000001D ; adc byte [eax], dl ; call dword [0x10103000] ;  (1 found)
0x000016df: add byte [esi+0x3A], bh ; add byte [eax], al ; mov byte [edx], bh ; add byte [eax], al ; add byte [eax], al ; add byte [eax], al ; ret  ;  (1 found)
0x00000fe2: add cl, byte [ecx+0x33C30448] ; sar byte [ecx], 0x00000005 ; or al, 0x40 ; adc byte [eax], dl ; sete al ; ret  ;  (1 found)
0x0000080b: add dh, dl ; ret  ;  (1 found)
0x00001253: add dl, dh ; ret  ;  (1 found)
0x00000642: add dword [eax-0x38], ebp ; add byte [eax], al ; add byte [ebp-0x0000CB6B], cl ; call dword [edx-0x01] ;  (1 found)
0x000010cd: add dword [eax], eax ; add byte [eax], al ; mov dword [ebp-0x4C], eax ; call dword [0x1010301C] ;  (1 found)
0x0000062c: add dword [eax], eax ; add byte [ebx+0x016A04C4], al ; call dword [0x1010309C] ;  (1 found)
0x00001296: add dword [eax], eax ; add byte [ecx+0x5D], bl ; ret  ;  (1 found)
0x00000dbc: add dword [ebp+0x5E5FA5A5], esp ; mov esp, ebp ; pop ebp ; ret  ;  (1 found)
0x000008a2: add eax, 0x000C10E8 ; add al, ch ; fadd qword [esi] ; add byte [eax], al ; xor eax, eax ; ret  ;  (1 found)
0x00000fea: add eax, 0x1010400C ; sete al ; ret  ;  (1 found)
0x0000145c: add eax, 0x10104014 ; setne al ; ret  ;  (1 found)
0x0000110f: add eax, 0x101043E8 ; pop esi ; pop ebx ; mov esp, ebp ; pop ebp ; ret  ;  (1 found)
0x00001444: add eax, 0x101043EC ; add eax, 0xA3000000 ; adc byte [eax+0x10], al ; adc byte [ebx], dh ; rcr byte [ebx-0x75], 0xFFFFFFE5 ; pop ebp ; ret  ;  (1 found)
0x00000b5b: add eax, 0x1031DCB8 ; adc bl, al ; push ebp ; mov ebp, esp ; push 0x00000000 ; call dword [0x10103000] ;  (1 found)
0x00000d10: add eax, 0x1EE80000 ; or byte [eax], al ; add byte [eax+eax*8-0x3FCDFB8B], al ; pop ebp ; ret  ;  (1 found)
0x00001449: add eax, 0xA3000000 ; adc byte [eax+0x10], al ; adc byte [ebx], dh ; rcr byte [ebx-0x75], 0xFFFFFFE5 ; pop ebp ; ret  ;  (1 found)
0x00000d0d: add eax, ebp ; lodsb  ; add eax, 0x1EE80000 ; or byte [eax], al ; add byte [eax+eax*8-0x3FCDFB8B], al ; pop ebp ; ret  ;  (1 found)
0x00000531: add edx, 0x000000C8 ; push edx ; mov eax, dword [ebp-0x00000328] ; mov ecx, dword [ebp+eax*4-0x00000324] ; mov edx, dword [ecx+0x000000DC] ; call edx ;  (1 found)
0x0000062f: add esp, 0x04 ; push 0x00000001 ; call dword [0x1010309C] ;  (1 found)
0x0000075f: add esp, 0x08 ; lea ecx, dword [ebp-0x000003EC] ; push ecx ; mov edx, dword [ebp-0x000003F4] ; push edx ; call dword [ebp-0x000003FC] ;  (1 found)
0x000010c0: add esp, 0x0C ; mov dword [ebp-0x58], 0x40000015 ; mov dword [ebp-0x54], 0x00000001 ; mov dword [ebp-0x4C], eax ; call dword [0x1010301C] ;  (1 found)
0x000007bc: add esp, 0x10 ; mov dword [ebp-0x08], eax ; mov dword [ebp-0x04], 0x00000000 ; mov eax, dword [ebp-0x08] ; mov esp, ebp ; pop ebp ; ret  ;  (1 found)
0x00000655: add esp, 0x10 ; push 0x10103190 ; lea eax, dword [ebp-0x000000CC] ; push eax ; call dword [0x101030E4] ;  (1 found)
0x00001289: add esp, 0x18 ; pop ebp ; ret  ;  (1 found)
0x000005c5: add esp, 0x18 ; pop ebp ; ret  ;  (1 found)
0x00000ae1: add esp, edx ; xor dword [eax], edx ; adc byte [eax-0x18], dl ; mov cl, byte [ecx] ; add byte [eax], al ; pop ecx ; ret  ;  (1 found)
0x00000f23: and al, 0x30 ; adc byte [eax], dl ; mov eax, dword [ebp-0x08] ; xor eax, dword [ebp-0x0C] ; mov dword [ebp-0x04], eax ; call dword [0x10103028] ;  (1 found)
0x00000f9d: and byte [eax], dh ; adc byte [eax], dl ; ret  ;  (1 found)
0x0000110e: and dword [0x101043E8], eax ; pop esi ; pop ebx ; mov esp, ebp ; pop ebp ; ret  ;  (1 found)
0x00000a66: and dword [ecx+0x04], 0x00000000 ; mov eax, ecx ; and dword [ecx+0x08], 0x00000000 ; mov dword [ecx+0x04], 0x101031FC ; mov dword [ecx], 0x101031F4 ; ret  ;  (1 found)
0x00000a99: and dword [ecx+0x04], 0x00000000 ; mov eax, ecx ; and dword [ecx+0x08], 0x00000000 ; mov dword [ecx+0x04], 0x10103218 ; mov dword [ecx], 0x10103210 ; ret  ;  (1 found)
0x00000a6c: and dword [ecx+0x08], 0x00000000 ; mov dword [ecx+0x04], 0x101031FC ; mov dword [ecx], 0x101031F4 ; ret  ;  (1 found)
0x00000a9f: and dword [ecx+0x08], 0x00000000 ; mov dword [ecx+0x04], 0x10103218 ; mov dword [ecx], 0x10103210 ; ret  ;  (1 found)
0x00001531: and eax, 0x1010300C ; mov al, 0x01 ; ret  ;  (1 found)
0x0000147d: and eax, 0x10103034 ; jmp dword [0x10103040] ;  (1 found)
0x00001477: and eax, 0x10103038 ; jmp dword [0x10103034] ;  (1 found)
0x00001471: and eax, 0x1010303C ; jmp dword [0x10103038] ;  (1 found)
0x00001483: and eax, 0x10103040 ; jmp dword [0x101030E0] ;  (1 found)
0x0000146b: and eax, 0x10103044 ; jmp dword [0x1010303C] ;  (1 found)
0x0000149b: and eax, 0x1010304C ; jmp dword [0x101030B8] ;  (1 found)
0x0000152b: and eax, 0x10103050 ; jmp dword [0x1010300C] ;  (1 found)
0x00001495: and eax, 0x10103054 ; jmp dword [0x1010304C] ;  (1 found)
0x00001501: and eax, 0x10103058 ; jmp dword [0x101030C4] ;  (1 found)
0x000014fb: and eax, 0x10103060 ; jmp dword [0x10103058] ;  (1 found)
0x000014ad: and eax, 0x10103068 ; jmp dword [0x10103078] ;  (1 found)
0x000014ef: and eax, 0x10103070 ; jmp dword [0x10103074] ;  (1 found)
0x000014f5: and eax, 0x10103074 ; jmp dword [0x10103060] ;  (1 found)
0x000014b3: and eax, 0x10103078 ; jmp dword [0x101030BC] ;  (1 found)
0x000014e9: and eax, 0x1010307C ; jmp dword [0x10103070] ;  (1 found)
0x000014e3: and eax, 0x10103084 ; jmp dword [0x1010307C] ;  (1 found)
0x00001513: and eax, 0x10103088 ; jmp dword [0x1010308C] ;  (1 found)
0x00001519: and eax, 0x1010308C ; jmp dword [0x10103090] ;  (1 found)
0x0000151f: and eax, 0x10103090 ; jmp dword [0x10103094] ;  (1 found)
0x00001525: and eax, 0x10103094 ; jmp dword [0x10103050] ;  (1 found)
0x000014dd: and eax, 0x10103098 ; jmp dword [0x10103084] ;  (1 found)
0x0000148f: and eax, 0x1010309C ; jmp dword [0x10103054] ;  (1 found)
0x000014d1: and eax, 0x101030A0 ; jmp dword [0x101030C8] ;  (1 found)
0x000014cb: and eax, 0x101030A4 ; jmp dword [0x101030A0] ;  (1 found)
0x000014c5: and eax, 0x101030A8 ; jmp dword [0x101030A4] ;  (1 found)
0x000014bf: and eax, 0x101030AC ; jmp dword [0x101030A8] ;  (1 found)
0x0000150d: and eax, 0x101030B0 ; jmp dword [0x10103088] ;  (1 found)
0x000014a7: and eax, 0x101030B4 ; jmp dword [0x10103068] ;  (1 found)
0x000014a1: and eax, 0x101030B8 ; jmp dword [0x101030B4] ;  (1 found)
0x000014b9: and eax, 0x101030BC ; jmp dword [0x101030AC] ;  (1 found)
0x00001507: and eax, 0x101030C4 ; jmp dword [0x101030B0] ;  (1 found)
0x000014d7: and eax, 0x101030C8 ; jmp dword [0x10103098] ;  (1 found)
0x00001489: and eax, 0x101030E0 ; jmp dword [0x1010309C] ;  (1 found)
0x00000ed3: and eax, dword [ebp+0x08] ; pop ebp ; ret  ;  (1 found)
0x00000b67: call dword [0x10103000] ;  (1 found)
0x000010f3: call dword [0x10103000] ;  (1 found)
0x00001163: call dword [0x10103000] ;  (1 found)
0x00000b7b: call dword [0x10103004] ;  (1 found)
0x00000b82: call dword [0x10103008] ;  (1 found)
0x00000f46: call dword [0x10103010] ;  (1 found)
0x00000f39: call dword [0x10103014] ;  (1 found)
0x0000111c: call dword [0x10103018] ;  (1 found)
0x000010d4: call dword [0x1010301C] ;  (1 found)
0x00000f9b: call dword [0x10103020] ;  (1 found)
0x00000f21: call dword [0x10103024] ;  (1 found)
0x00000f30: call dword [0x10103028] ;  (1 found)
0x00000b70: call dword [0x1010302C] ;  (1 found)
0x000010fd: call dword [0x1010302C] ;  (1 found)
0x00000634: call dword [0x1010309C] ;  (1 found)
0x00000690: call dword [0x1010309C] ;  (1 found)
0x000005f7: call dword [0x101030CC] ;  (1 found)
0x000007ad: call dword [0x101030D0] ;  (1 found)
0x000005bf: call dword [0x101030D4] ;  (1 found)
0x0000064f: call dword [0x101030D8] ;  (1 found)
0x000006f0: call dword [0x101030E4] ;  (1 found)
0x00000664: call dword [0x101030E4] ;  (1 found)
0x00000753: call dword [eax+0x68] ;  (1 found)
0x00000662: call dword [eax-0x01] ;  (1 found)
0x00000612: call dword [eax-0x18] ;  (1 found)
0x00000439: call dword [eax-0x18] ;  (1 found)
0x00000749: call dword [eax] ;  (1 found)
0x00000770: call dword [ebp-0x000003FC] ;  (1 found)
0x00000a4a: call dword [ebp-0x75] ;  (1 found)
0x00000724: call dword [ecx+0x68] ;  (1 found)
0x000006a4: call dword [ecx+0x68] ;  (1 found)
0x0000063f: call dword [ecx+0x6A] ;  (1 found)
0x00000767: call dword [ecx-0x75] ;  (1 found)
0x0000064d: call dword [edx-0x01] ;  (1 found)
0x0000076e: call dword [edx-0x01] ;  (1 found)
0x000004db: call dword [edx-0x18] ;  (1 found)
0x00000d95: call ebx ;  (1 found)
0x0000154a: call ecx ;  (1 found)
0x0000154c: call ecx ;  (1 found)
0x000011c9: call edi ;  (1 found)
0x000011f4: call edi ;  (1 found)
0x0000154e: call edx ;  (1 found)
0x0000054b: call edx ;  (1 found)
0x0000098e: call esi ;  (1 found)
0x00000ff4: clc  ; inc ebx ; adc byte [eax], dl ; ret  ;  (1 found)
0x000010e5: clc  ; lea eax, dword [ebp-0x00000324] ; sbb bl, bl ; mov dword [ebp-0x04], eax ; inc bl ; call dword [0x10103000] ;  (1 found)
0x0000124a: clc  ; lea eax, dword [ebp-0x10] ; mov dword [fs:0x00000000], eax ; ret  ;  (1 found)
0x000007c1: clc  ; mov dword [ebp-0x04], 0x00000000 ; mov eax, dword [ebp-0x08] ; mov esp, ebp ; pop ebp ; ret  ;  (1 found)
0x0000123d: clc  ; mov eax, dword [ebp-0x04] ; mov dword [ebp-0x04], 0xFFFFFFFE ; mov dword [ebp-0x08], eax ; lea eax, dword [ebp-0x10] ; mov dword [fs:0x00000000], eax ; ret  ;  (1 found)
0x000007cb: clc  ; mov esp, ebp ; pop ebp ; ret  ;  (1 found)
0x000010fb: clc  ; push eax ; call dword [0x1010302C] ;  (1 found)
0x00000f29: clc  ; xor eax, dword [ebp-0x0C] ; mov dword [ebp-0x04], eax ; call dword [0x10103028] ;  (1 found)
0x000007c4: cld  ; add byte [eax], al ; add byte [eax], al ; mov eax, dword [ebp-0x08] ; mov esp, ebp ; pop ebp ; ret  ;  (1 found)
0x00000f38: cld  ; call dword [0x10103014] ;  (1 found)
0x00000f2f: cld  ; call dword [0x10103028] ;  (1 found)
0x000010f0: cld  ; inc bl ; call dword [0x10103000] ;  (1 found)
0x00000f41: cld  ; lea eax, dword [ebp-0x14] ; push eax ; call dword [0x10103010] ;  (1 found)
0x000005e2: cld  ; mov dword [ebp-0x000003F4], 0x00000000 ; push 0x1010314C ; push 0x10103150 ; call dword [0x101030CC] ;  (1 found)
0x00001240: cld  ; mov dword [ebp-0x04], 0xFFFFFFFE ; mov dword [ebp-0x08], eax ; lea eax, dword [ebp-0x10] ; mov dword [fs:0x00000000], eax ; ret  ;  (1 found)
0x000007a3: cld  ; push ecx ; push 0x00000000 ; mov edx, dword [ebp+0x08] ; push edx ; push 0x00000001 ; call dword [0x101030D0] ;  (1 found)
0x00001472: cmp al, 0x30 ; adc byte [eax], dl ; jmp dword [0x10103038] ;  (1 found)
0x000011c5: cmp byte [eax], al ; add byte [eax], al ; call edi ;  (1 found)
0x00001478: cmp byte [eax], dh ; adc byte [eax], dl ; jmp dword [0x10103034] ;  (1 found)
0x0000104b: cmp ch, 0xFFFFFFFF ; dec dword [ecx-0x0002834B] ; dec dword [ecx-0x00028743] ; jmp dword [esi-0x74] ;  (1 found)
0x00000fe9: cmp dword [0x1010400C], eax ; sete al ; ret  ;  (1 found)
0x0000145b: cmp dword [0x10104014], eax ; setne al ; ret  ;  (1 found)
0x00001153: cmp dword [eax+0x000000E8], 0x00000000 ; setne al ; ret  ;  (1 found)
0x00000e3a: cmp dword [eax], 0xC0000005 ; sete cl ; mov eax, ecx ; ret  ;  (1 found)
0x00000fbe: cmp eax, 0xCC000000 ; ret  ;  (1 found)
0x000014de: cwde  ; xor byte [eax], dl ; adc bh, bh ; and eax, 0x10103084 ; jmp dword [0x1010307C] ;  (1 found)
0x00000fdc: dec dword [ebx+0x08830448] ; add cl, byte [ecx+0x33C30448] ; sar byte [ecx], 0x00000005 ; or al, 0x40 ; adc byte [eax], dl ; sete al ; ret  ;  (1 found)
0x000005b7: dec dword [ebx-0x74AEFBB8] ; adc byte [edx-0x01], dl ; adc eax, 0x101030D4 ; add esp, 0x18 ; pop ebp ; ret  ;  (1 found)
0x00001247: dec dword [ecx+0x458DF845] ; mov dword [fs:0x00000000], eax ; ret  ;  (1 found)
0x0000103c: dec dword [ecx-0x00027773] ; dec dword [ecx-0x00027B6B] ; dec dword [ecx-0x00027F63] ; dec dword [ecx-0x0002834B] ; dec dword [ecx-0x00028743] ; jmp dword [esi-0x74] ;  (1 found)
0x00001042: dec dword [ecx-0x00027B6B] ; dec dword [ecx-0x00027F63] ; dec dword [ecx-0x0002834B] ; dec dword [ecx-0x00028743] ; jmp dword [esi-0x74] ;  (1 found)
0x00001048: dec dword [ecx-0x00027F63] ; dec dword [ecx-0x0002834B] ; dec dword [ecx-0x00028743] ; jmp dword [esi-0x74] ;  (1 found)
0x0000104e: dec dword [ecx-0x0002834B] ; dec dword [ecx-0x00028743] ; jmp dword [esi-0x74] ;  (1 found)
0x00001054: dec dword [ecx-0x00028743] ; jmp dword [esi-0x74] ;  (1 found)
0x000005b9: dec eax ; add al, 0x51 ; mov edx, dword [eax] ; push edx ; call dword [0x101030D4] ;  (1 found)
0x00000fde: dec eax ; add al, 0x83 ; or byte [edx], al ; mov dword [eax+0x04], ecx ; ret  ;  (1 found)
0x00000fe4: dec eax ; add al, 0xC3 ; xor eax, eax ; cmp dword [0x1010400C], eax ; sete al ; ret  ;  (1 found)
0x000006e2: dec eax ; add byte [eax], al ; add byte [ebp+0x5B], bh ; push 0x101031A4 ; push 0x00000000 ; call dword [0x101030E4] ;  (1 found)
0x00000eea: dec eax ; pop ebp ; ret  ;  (1 found)
0x00000cab: dec edx ; or al, 0x72 ; or cl, byte [ebx+0x42030842] ; or al, 0x3B ; enter 0x0C72, 0x83 ; retn 0x3B28 ;  (1 found)
0x0000149c: dec esp ; xor byte [eax], dl ; adc bh, bh ; and eax, 0x101030B8 ; jmp dword [0x101030B4] ;  (1 found)
0x00000644: enter 0x0000, 0x00 ; lea edx, dword [ebp-0x000000CC] ; push edx ; call dword [0x101030D8] ;  (1 found)
0x00000533: enter 0x0000, 0x00 ; push edx ; mov eax, dword [ebp-0x00000328] ; mov ecx, dword [ebp+eax*4-0x00000324] ; mov edx, dword [ecx+0x000000DC] ; call edx ;  (1 found)
0x00000cb6: enter 0x0C72, 0x83 ; retn 0x3B28 ;  (1 found)
0x000014d8: enter 0x1030, 0x10 ; jmp dword [0x10103098] ;  (1 found)
0x00000682: enter 0x8300, 0xBC ; or eax, 0xFFFFFC14 ; add byte [ebp+0x08], dh ; push 0x00000001 ; call dword [0x1010309C] ;  (1 found)
0x00000f97: fadd dword [ebx+0x10] ; adc bh, bh ; adc eax, 0x10103020 ; ret  ;  (1 found)
0x00000547: fadd qword [eax] ; add byte [eax], al ; call edx ;  (1 found)
0x000008a9: fadd qword [esi] ; add byte [eax], al ; xor eax, eax ; ret  ;  (1 found)
0x00000ecd: fcomp dword [ecx+0x1B] ; sal bh, 0xFFFFFFD0 ; and eax, dword [ebp+0x08] ; pop ebp ; ret  ;  (1 found)
0x00000ee4: fcomp dword [ecx+0x1B] ; sal bh, 0xFFFFFFD8 ; dec eax ; pop ebp ; ret  ;  (1 found)
0x00000651: fdiv dword [eax] ; adc byte [eax], dl ; add esp, 0x10 ; push 0x10103190 ; lea eax, dword [ebp-0x000000CC] ; push eax ; call dword [0x101030E4] ;  (1 found)
0x00000b5d: fdiv qword [ecx] ; adc byte [eax], dl ; ret  ;  (1 found)
0x000010df: fisttp dword [ebp+0x4589A845] ; clc  ; lea eax, dword [ebp-0x00000324] ; sbb bl, bl ; mov dword [ebp-0x04], eax ; inc bl ; call dword [0x10103000] ;  (1 found)
0x000010ed: fisttp dword [ecx-0x3C0103BB] ; call dword [0x10103000] ;  (1 found)
0x00000ee9: fmul dword [eax+0x5D] ; ret  ;  (1 found)
0x00000ffa: hlt  ; inc ebx ; adc byte [eax], dl ; ret  ;  (1 found)
0x00000f2c: hlt  ; mov dword [ebp-0x04], eax ; call dword [0x10103028] ;  (1 found)
0x00000f1f: hlt  ; push eax ; call dword [0x10103024] ;  (1 found)
0x00000592: in al, dx ; mov eax, 0x10104090 ; pop ebp ; ret  ;  (1 found)
0x00000e35: in al, dx ; mov eax, dword [eax] ; xor ecx, ecx ; cmp dword [eax], 0xC0000005 ; sete cl ; mov eax, ecx ; ret  ;  (1 found)
0x00000402: in al, dx ; pop ebp ; ret  ;  (1 found)
0x00000b64: in al, dx ; push 0x00000000 ; call dword [0x10103000] ;  (1 found)
0x00000f44: in al, dx ; push eax ; call dword [0x10103010] ;  (1 found)
0x00001266: in eax, 0x5D ; push ecx ; ret  ;  (1 found)
0x00000585: in eax, 0x5D ; ret  ;  (1 found)
0x000007cd: in eax, 0x5D ; ret  ;  (1 found)
0x00000786: in eax, 0x5D ; ret  ;  (1 found)
0x00000c82: in eax, 0x5D ; ret  ;  (1 found)
0x00000dc3: in eax, 0x5D ; ret  ;  (1 found)
0x00000f86: in eax, 0x5D ; ret  ;  (1 found)
0x00001117: in eax, 0x5D ; ret  ;  (1 found)
0x00001456: in eax, 0x5D ; ret  ;  (1 found)
0x000010f1: inc bl ; call dword [0x10103000] ;  (1 found)
0x000007bb: inc dword [ebx+0x458910C4] ; clc  ; mov dword [ebp-0x04], 0x00000000 ; mov eax, dword [ebp-0x08] ; mov esp, ebp ; pop ebp ; ret  ;  (1 found)
0x00000e53: inc dword [ebx] ; add byte [eax], al ; ret  ;  (1 found)
0x000006dc: inc dword [ecx-0x0003EF43] ; dec eax ; add byte [eax], al ; add byte [ebp+0x5B], bh ; push 0x101031A4 ; push 0x00000000 ; call dword [0x101030E4] ;  (1 found)
0x00000595: inc eax ; adc byte [eax], dl ; pop ebp ; ret  ;  (1 found)
0x00000f80: inc eax ; adc byte [eax], dl ; pop edi ; pop esi ; mov esp, ebp ; pop ebp ; ret  ;  (1 found)
0x00000fec: inc eax ; adc byte [eax], dl ; sete al ; ret  ;  (1 found)
0x0000145e: inc eax ; adc byte [eax], dl ; setne al ; ret  ;  (1 found)
0x0000144f: inc eax ; adc byte [eax], dl ; xor eax, eax ; pop ebx ; mov esp, ebp ; pop ebp ; ret  ;  (1 found)
0x00000f92: inc eax ; add byte [eax], al ; ret  ;  (1 found)
0x000010c9: inc eax ; mov dword [ebp-0x54], 0x00000001 ; mov dword [ebp-0x4C], eax ; call dword [0x1010301C] ;  (1 found)
0x00000f8e: inc eax ; ret  ;  (1 found)
0x00001484: inc eax ; xor byte [eax], dl ; adc bh, bh ; and eax, 0x101030E0 ; jmp dword [0x1010309C] ;  (1 found)
0x000010e4: inc ebp ; clc  ; lea eax, dword [ebp-0x00000324] ; sbb bl, bl ; mov dword [ebp-0x04], eax ; inc bl ; call dword [0x10103000] ;  (1 found)
0x00001249: inc ebp ; clc  ; lea eax, dword [ebp-0x10] ; mov dword [fs:0x00000000], eax ; ret  ;  (1 found)
0x000007c0: inc ebp ; clc  ; mov dword [ebp-0x04], 0x00000000 ; mov eax, dword [ebp-0x08] ; mov esp, ebp ; pop ebp ; ret  ;  (1 found)
0x000007ca: inc ebp ; clc  ; mov esp, ebp ; pop ebp ; ret  ;  (1 found)
0x000010fa: inc ebp ; clc  ; push eax ; call dword [0x1010302C] ;  (1 found)
0x00000f28: inc ebp ; clc  ; xor eax, dword [ebp-0x0C] ; mov dword [ebp-0x04], eax ; call dword [0x10103028] ;  (1 found)
0x00000f37: inc ebp ; cld  ; call dword [0x10103014] ;  (1 found)
0x00000f2e: inc ebp ; cld  ; call dword [0x10103028] ;  (1 found)
0x000010ef: inc ebp ; cld  ; inc bl ; call dword [0x10103000] ;  (1 found)
0x00000f40: inc ebp ; cld  ; lea eax, dword [ebp-0x14] ; push eax ; call dword [0x10103010] ;  (1 found)
0x000005e1: inc ebp ; cld  ; mov dword [ebp-0x000003F4], 0x00000000 ; push 0x1010314C ; push 0x10103150 ; call dword [0x101030CC] ;  (1 found)
0x0000123f: inc ebp ; cld  ; mov dword [ebp-0x04], 0xFFFFFFFE ; mov dword [ebp-0x08], eax ; lea eax, dword [ebp-0x10] ; mov dword [fs:0x00000000], eax ; ret  ;  (1 found)
0x00000f2b: inc ebp ; hlt  ; mov dword [ebp-0x04], eax ; call dword [0x10103028] ;  (1 found)
0x00000f1e: inc ebp ; hlt  ; push eax ; call dword [0x10103024] ;  (1 found)
0x00000f43: inc ebp ; in al, dx ; push eax ; call dword [0x10103010] ;  (1 found)
0x000010cb: inc ebp ; lodsb  ; add dword [eax], eax ; add byte [eax], al ; mov dword [ebp-0x4C], eax ; call dword [0x1010301C] ;  (1 found)
0x0000124c: inc ebp ; mov dword [fs:0x00000000], eax ; ret  ;  (1 found)
0x000010c4: inc ebp ; test al, 0x15 ; add byte [eax], al ; inc eax ; mov dword [ebp-0x54], 0x00000001 ; mov dword [ebp-0x4C], eax ; call dword [0x1010301C] ;  (1 found)
0x00000f98: inc ebx ; adc byte [eax], dl ; call dword [0x10103020] ;  (1 found)
0x00001111: inc ebx ; adc byte [eax], dl ; pop esi ; pop ebx ; mov esp, ebp ; pop ebp ; ret  ;  (1 found)
0x00000fc6: inc ebx ; adc byte [eax], dl ; ret  ;  (1 found)
0x00000ff5: inc ebx ; adc byte [eax], dl ; ret  ;  (1 found)
0x00000ffb: inc ebx ; adc byte [eax], dl ; ret  ;  (1 found)
0x00000e6e: inc ebx ; adc byte [eax], dl ; xchg dword [ecx], eax ; pop ebp ; ret  ;  (1 found)
0x00000b56: inc ecx ; add al, 0x85 ; sal byte [ebp+0x05], 0xFFFFFFB8 ; fdiv qword [ecx] ; adc byte [eax], dl ; ret  ;  (1 found)
0x00000cb3: inc edx ; or al, 0x3B ; enter 0x0C72, 0x83 ; retn 0x3B28 ;  (1 found)
0x00000cb0: inc edx ; or byte [ebx], al ; inc edx ; or al, 0x3B ; enter 0x0C72, 0x83 ; retn 0x3B28 ;  (1 found)
0x0000146c: inc esp ; xor byte [eax], dl ; adc bh, bh ; and eax, 0x1010303C ; jmp dword [0x10103038] ;  (1 found)
0x00001295: int3  ; add dword [eax], eax ; add byte [ecx+0x5D], bl ; ret  ;  (1 found)
0x0000058e: int3  ; int3  ; push ebp ; mov ebp, esp ; mov eax, 0x10104090 ; pop ebp ; ret  ;  (1 found)
0x0000058f: int3  ; push ebp ; mov ebp, esp ; mov eax, 0x10104090 ; pop ebp ; ret  ;  (1 found)
0x00000fc2: int3  ; ret  ;  (1 found)
0x00001530: jmp dword [0x1010300C] ;  (1 found)
0x0000147c: jmp dword [0x10103034] ;  (1 found)
0x00001476: jmp dword [0x10103038] ;  (1 found)
0x00001470: jmp dword [0x1010303C] ;  (1 found)
0x00001482: jmp dword [0x10103040] ;  (1 found)
0x0000146a: jmp dword [0x10103044] ;  (1 found)
0x0000149a: jmp dword [0x1010304C] ;  (1 found)
0x0000152a: jmp dword [0x10103050] ;  (1 found)
0x00001494: jmp dword [0x10103054] ;  (1 found)
0x00001500: jmp dword [0x10103058] ;  (1 found)
0x000014fa: jmp dword [0x10103060] ;  (1 found)
0x000014ac: jmp dword [0x10103068] ;  (1 found)
0x000014ee: jmp dword [0x10103070] ;  (1 found)
0x000014f4: jmp dword [0x10103074] ;  (1 found)
0x000014b2: jmp dword [0x10103078] ;  (1 found)
0x000014e8: jmp dword [0x1010307C] ;  (1 found)
0x000014e2: jmp dword [0x10103084] ;  (1 found)
0x00001512: jmp dword [0x10103088] ;  (1 found)
0x00001518: jmp dword [0x1010308C] ;  (1 found)
0x0000151e: jmp dword [0x10103090] ;  (1 found)
0x00001524: jmp dword [0x10103094] ;  (1 found)
0x000014dc: jmp dword [0x10103098] ;  (1 found)
0x0000148e: jmp dword [0x1010309C] ;  (1 found)
0x000014d0: jmp dword [0x101030A0] ;  (1 found)
0x000014ca: jmp dword [0x101030A4] ;  (1 found)
0x000014c4: jmp dword [0x101030A8] ;  (1 found)
0x000014be: jmp dword [0x101030AC] ;  (1 found)
0x0000150c: jmp dword [0x101030B0] ;  (1 found)
0x000014a6: jmp dword [0x101030B4] ;  (1 found)
0x000014a0: jmp dword [0x101030B8] ;  (1 found)
0x000014b8: jmp dword [0x101030BC] ;  (1 found)
0x00001506: jmp dword [0x101030C4] ;  (1 found)
0x000014d6: jmp dword [0x101030C8] ;  (1 found)
0x00001488: jmp dword [0x101030E0] ;  (1 found)
0x00001201: jmp dword [0x101030EC] ;  (1 found)
0x000004b6: jmp dword [ecx+0x10103080] ;  (1 found)
0x0000105a: jmp dword [esi-0x74] ;  (1 found)
0x0000106f: jmp dword [esi-0x74] ;  (1 found)
0x00001068: jmp dword [esi-0x74] ;  (1 found)
0x00001061: jmp dword [esi-0x74] ;  (1 found)
0x0000107d: jmp dword [esi-0x74] ;  (1 found)
0x00001076: jmp dword [esi-0x74] ;  (1 found)
0x00000f1c: lea ax, word [ebp-0x0C] ; push eax ; call dword [0x10103024] ;  (1 found)
0x0000065d: lea eax, dword [ebp-0x000000CC] ; push eax ; call dword [0x101030E4] ;  (1 found)
0x000010e6: lea eax, dword [ebp-0x00000324] ; sbb bl, bl ; mov dword [ebp-0x04], eax ; inc bl ; call dword [0x10103000] ;  (1 found)
0x000010f9: lea eax, dword [ebp-0x08] ; push eax ; call dword [0x1010302C] ;  (1 found)
0x00000f1d: lea eax, dword [ebp-0x0C] ; push eax ; call dword [0x10103024] ;  (1 found)
0x0000124b: lea eax, dword [ebp-0x10] ; mov dword [fs:0x00000000], eax ; ret  ;  (1 found)
0x00000f42: lea eax, dword [ebp-0x14] ; push eax ; call dword [0x10103010] ;  (1 found)
0x000010e0: lea eax, dword [ebp-0x58] ; mov dword [ebp-0x08], eax ; lea eax, dword [ebp-0x00000324] ; sbb bl, bl ; mov dword [ebp-0x04], eax ; inc bl ; call dword [0x10103000] ;  (1 found)
0x00000762: lea ecx, dword [ebp-0x000003EC] ; push ecx ; mov edx, dword [ebp-0x000003F4] ; push edx ; call dword [ebp-0x000003FC] ;  (1 found)
0x00000648: lea edx, dword [ebp-0x000000CC] ; push edx ; call dword [0x101030D8] ;  (1 found)
0x00000e39: leave  ; cmp dword [eax], 0xC0000005 ; sete cl ; mov eax, ecx ; ret  ;  (1 found)
0x0000128a: les ebx,  [eax] ; pop ebp ; ret  ;  (1 found)
0x000005c6: les ebx,  [eax] ; pop ebp ; ret  ;  (1 found)
0x00000760: les ecx,  [eax] ; lea ecx, dword [ebp-0x000003EC] ; push ecx ; mov edx, dword [ebp-0x000003F4] ; push edx ; call dword [ebp-0x000003FC] ;  (1 found)
0x000007bd: les edx,  [eax] ; mov dword [ebp-0x08], eax ; mov dword [ebp-0x04], 0x00000000 ; mov eax, dword [ebp-0x08] ; mov esp, ebp ; pop ebp ; ret  ;  (1 found)
0x00000656: les edx,  [eax] ; push 0x10103190 ; lea eax, dword [ebp-0x000000CC] ; push eax ; call dword [0x101030E4] ;  (1 found)
0x00001508: les esi,  [eax] ; adc byte [eax], dl ; jmp dword [0x101030B0] ;  (1 found)
0x000010cc: lodsb  ; add dword [eax], eax ; add byte [eax], al ; mov dword [ebp-0x4C], eax ; call dword [0x1010301C] ;  (1 found)
0x00000d0f: lodsb  ; add eax, 0x1EE80000 ; or byte [eax], al ; add byte [eax+eax*8-0x3FCDFB8B], al ; pop ebp ; ret  ;  (1 found)
0x000014c0: lodsb  ; xor byte [eax], dl ; adc bh, bh ; and eax, 0x101030A8 ; jmp dword [0x101030A4] ;  (1 found)
0x000014a8: mov ah, 0x30 ; adc byte [eax], dl ; jmp dword [0x10103068] ;  (1 found)
0x00000d33: mov al, 0x01 ; pop ebp ; ret  ;  (1 found)
0x00000e99: mov al, 0x01 ; pop ebp ; ret  ;  (1 found)
0x00000cfa: mov al, 0x01 ; pop esi ; ret  ;  (1 found)
0x00001536: mov al, 0x01 ; ret  ;  (1 found)
0x0000150e: mov al, 0x30 ; adc byte [eax], dl ; jmp dword [0x10103088] ;  (1 found)
0x000014d2: mov al, byte [0xFF101030] ; and eax, 0x101030C8 ; jmp dword [0x10103098] ;  (1 found)
0x00001514: mov byte [eax], dh ; adc byte [eax], dl ; jmp dword [0x1010308C] ;  (1 found)
0x000016e4: mov byte [edx], bh ; add byte [eax], al ; add byte [eax], al ; add byte [eax], al ; ret  ;  (1 found)
0x00000ae8: mov cl, byte [ecx] ; add byte [eax], al ; pop ecx ; ret  ;  (1 found)
0x0000124f: mov dword [0x00000000], eax ; ret  ;  (1 found)
0x00000f7d: mov dword [0x10104000], ecx ; pop edi ; pop esi ; mov esp, ebp ; pop ebp ; ret  ;  (1 found)
0x0000144d: mov dword [0x10104010], eax ; xor eax, eax ; pop ebx ; mov esp, ebp ; pop ebp ; ret  ;  (1 found)
0x00001443: mov dword [0x101043EC], 0x00000005 ; mov dword [0x10104010], eax ; xor eax, eax ; pop ebx ; mov esp, ebp ; pop ebp ; ret  ;  (1 found)
0x00000fe3: mov dword [eax+0x04], ecx ; ret  ;  (1 found)
0x000005e3: mov dword [ebp-0x000003F4], 0x00000000 ; push 0x1010314C ; push 0x10103150 ; call dword [0x101030CC] ;  (1 found)
0x000007c2: mov dword [ebp-0x04], 0x00000000 ; mov eax, dword [ebp-0x08] ; mov esp, ebp ; pop ebp ; ret  ;  (1 found)
0x00001241: mov dword [ebp-0x04], 0xFFFFFFFE ; mov dword [ebp-0x08], eax ; lea eax, dword [ebp-0x10] ; mov dword [fs:0x00000000], eax ; ret  ;  (1 found)
0x00000f2d: mov dword [ebp-0x04], eax ; call dword [0x10103028] ;  (1 found)
0x000010ee: mov dword [ebp-0x04], eax ; inc bl ; call dword [0x10103000] ;  (1 found)
0x000005e0: mov dword [ebp-0x04], eax ; mov dword [ebp-0x000003F4], 0x00000000 ; push 0x1010314C ; push 0x10103150 ; call dword [0x101030CC] ;  (1 found)
0x000010e3: mov dword [ebp-0x08], eax ; lea eax, dword [ebp-0x00000324] ; sbb bl, bl ; mov dword [ebp-0x04], eax ; inc bl ; call dword [0x10103000] ;  (1 found)
0x00001248: mov dword [ebp-0x08], eax ; lea eax, dword [ebp-0x10] ; mov dword [fs:0x00000000], eax ; ret  ;  (1 found)
0x000007bf: mov dword [ebp-0x08], eax ; mov dword [ebp-0x04], 0x00000000 ; mov eax, dword [ebp-0x08] ; mov esp, ebp ; pop ebp ; ret  ;  (1 found)
0x000010d1: mov dword [ebp-0x4C], eax ; call dword [0x1010301C] ;  (1 found)
0x000010ca: mov dword [ebp-0x54], 0x00000001 ; mov dword [ebp-0x4C], eax ; call dword [0x1010301C] ;  (1 found)
0x000010c3: mov dword [ebp-0x58], 0x40000015 ; mov dword [ebp-0x54], 0x00000001 ; mov dword [ebp-0x4C], eax ; call dword [0x1010301C] ;  (1 found)
0x00000a70: mov dword [ecx+0x04], 0x101031FC ; mov dword [ecx], 0x101031F4 ; ret  ;  (1 found)
0x00000aa3: mov dword [ecx+0x04], 0x10103218 ; mov dword [ecx], 0x10103210 ; ret  ;  (1 found)
0x00000a77: mov dword [ecx], 0x101031F4 ; ret  ;  (1 found)
0x00000aaa: mov dword [ecx], 0x10103210 ; ret  ;  (1 found)
0x00000a59: mov dword [esi], 0x101031F4 ; mov eax, esi ; pop esi ; pop ebp ; retn 0x0004 ;  (1 found)
0x00000a8c: mov dword [esi], 0x10103210 ; mov eax, esi ; pop esi ; pop ebp ; retn 0x0004 ;  (1 found)
0x0000124d: mov dword [fs:0x00000000], eax ; ret  ;  (1 found)
0x0000124e: mov dword [fs:0x00000000], eax ; ret  ;  (1 found)
0x00001154: mov eax, 0x000000E8 ; add byte [edi], cl ; xchg eax, ebp ; rol bl, 0x00000068 ; push 0x0000001D ; adc byte [eax], dl ; call dword [0x10103000] ;  (1 found)
0x00000f90: mov eax, 0x00004000 ; ret  ;  (1 found)
0x00000b5c: mov eax, 0x101031DC ; ret  ;  (1 found)
0x00000593: mov eax, 0x10104090 ; pop ebp ; ret  ;  (1 found)
0x00000fc4: mov eax, 0x101043E0 ; ret  ;  (1 found)
0x00000ff9: mov eax, 0x101043F4 ; ret  ;  (1 found)
0x00000ff3: mov eax, 0x101043F8 ; ret  ;  (1 found)
0x000014a2: mov eax, 0xFF101030 ; and eax, 0x101030B4 ; jmp dword [0x10103068] ;  (1 found)
0x000005d9: mov eax, dword [0x10104004] ; xor eax, ebp ; mov dword [ebp-0x04], eax ; mov dword [ebp-0x000003F4], 0x00000000 ; push 0x1010314C ; push 0x10103150 ; call dword [0x101030CC] ;  (1 found)
0x00000e36: mov eax, dword [eax] ; xor ecx, ecx ; cmp dword [eax], 0xC0000005 ; sete cl ; mov eax, ecx ; ret  ;  (1 found)
0x000010bd: mov eax, dword [ebp+0x04] ; add esp, 0x0C ; mov dword [ebp-0x58], 0x40000015 ; mov dword [ebp-0x54], 0x00000001 ; mov dword [ebp-0x4C], eax ; call dword [0x1010301C] ;  (1 found)
0x00000538: mov eax, dword [ebp-0x00000328] ; mov ecx, dword [ebp+eax*4-0x00000324] ; mov edx, dword [ecx+0x000000DC] ; call edx ;  (1 found)
0x0000123e: mov eax, dword [ebp-0x04] ; mov dword [ebp-0x04], 0xFFFFFFFE ; mov dword [ebp-0x08], eax ; lea eax, dword [ebp-0x10] ; mov dword [fs:0x00000000], eax ; ret  ;  (1 found)
0x000007c9: mov eax, dword [ebp-0x08] ; mov esp, ebp ; pop ebp ; ret  ;  (1 found)
0x00000f27: mov eax, dword [ebp-0x08] ; xor eax, dword [ebp-0x0C] ; mov dword [ebp-0x04], eax ; call dword [0x10103028] ;  (1 found)
0x00000e33: mov eax, dword [ebp-0x14] ; mov eax, dword [eax] ; xor ecx, ecx ; cmp dword [eax], 0xC0000005 ; sete cl ; mov eax, ecx ; ret  ;  (1 found)
0x00000a6a: mov eax, ecx ; and dword [ecx+0x08], 0x00000000 ; mov dword [ecx+0x04], 0x101031FC ; mov dword [ecx], 0x101031F4 ; ret  ;  (1 found)
0x00000a9d: mov eax, ecx ; and dword [ecx+0x08], 0x00000000 ; mov dword [ecx+0x04], 0x10103218 ; mov dword [ecx], 0x10103210 ; ret  ;  (1 found)
0x00000e43: mov eax, ecx ; ret  ;  (1 found)
0x00000ad6: mov eax, esi ; pop esi ; pop ebp ; retn 0x0004 ;  (1 found)
0x00000a5f: mov eax, esi ; pop esi ; pop ebp ; retn 0x0004 ;  (1 found)
0x00000a92: mov eax, esi ; pop esi ; pop ebp ; retn 0x0004 ;  (1 found)
0x00000b14: mov eax, esi ; pop esi ; pop ebp ; retn 0x0004 ;  (1 found)
0x000012b8: mov eax, esi ; pop esi ; pop ebp ; retn 0x0004 ;  (1 found)
0x00000591: mov ebp, esp ; mov eax, 0x10104090 ; pop ebp ; ret  ;  (1 found)
0x00000401: mov ebp, esp ; pop ebp ; ret  ;  (1 found)
0x00000b63: mov ebp, esp ; push 0x00000000 ; call dword [0x10103000] ;  (1 found)
0x00000e6c: mov ecx, 0x101043B8 ; xchg dword [ecx], eax ; pop ebp ; ret  ;  (1 found)
0x00000fdd: mov ecx, dword [eax+0x04] ; or dword [eax], 0x02 ; mov dword [eax+0x04], ecx ; ret  ;  (1 found)
0x000005b8: mov ecx, dword [eax+0x04] ; push ecx ; mov edx, dword [eax] ; push edx ; call dword [0x101030D4] ;  (1 found)
0x0000053e: mov ecx, dword [ebp+eax*4-0x00000324] ; mov edx, dword [ecx+0x000000DC] ; call edx ;  (1 found)
0x0000063a: mov ecx, dword [ebp-0x000003F8] ; push ecx ; push 0x00000001 ; push 0x000000C8 ; lea edx, dword [ebp-0x000000CC] ; push edx ; call dword [0x101030D8] ;  (1 found)
0x000007a1: mov ecx, dword [ebp-0x04] ; push ecx ; push 0x00000000 ; mov edx, dword [ebp+0x08] ; push edx ; push 0x00000001 ; call dword [0x101030D0] ;  (1 found)
0x00000edf: mov edx, 0xF7FFFFFF ; fcomp dword [ecx+0x1B] ; sal bh, 0xFFFFFFD8 ; dec eax ; pop ebp ; ret  ;  (1 found)
0x000005bc: mov edx, dword [eax] ; push edx ; call dword [0x101030D4] ;  (1 found)
0x000007a7: mov edx, dword [ebp+0x08] ; push edx ; push 0x00000001 ; call dword [0x101030D0] ;  (1 found)
0x0000052a: mov edx, dword [ebp+ecx*4-0x00000324] ; add edx, 0x000000C8 ; push edx ; mov eax, dword [ebp-0x00000328] ; mov ecx, dword [ebp+eax*4-0x00000324] ; mov edx, dword [ecx+0x000000DC] ; call edx ;  (1 found)
0x00000769: mov edx, dword [ebp-0x000003F4] ; push edx ; call dword [ebp-0x000003FC] ;  (1 found)
0x00000545: mov edx, dword [ecx+0x000000DC] ; call edx ;  (1 found)
0x000014ba: mov esp, 0xFF101030 ; and eax, 0x101030AC ; jmp dword [0x101030A8] ;  (1 found)
0x00001265: mov esp, ebp ; pop ebp ; push ecx ; ret  ;  (1 found)
0x00000584: mov esp, ebp ; pop ebp ; ret  ;  (1 found)
0x00000785: mov esp, ebp ; pop ebp ; ret  ;  (1 found)
0x000007cc: mov esp, ebp ; pop ebp ; ret  ;  (1 found)
0x00000c81: mov esp, ebp ; pop ebp ; ret  ;  (1 found)
0x00000dc2: mov esp, ebp ; pop ebp ; ret  ;  (1 found)
0x00000f85: mov esp, ebp ; pop ebp ; ret  ;  (1 found)
0x00001116: mov esp, ebp ; pop ebp ; ret  ;  (1 found)
0x00001455: mov esp, ebp ; pop ebp ; ret  ;  (1 found)
0x0000151a: mov word [eax], seg? ; adc byte [eax], dl ; jmp dword [0x10103090] ;  (1 found)
0x0000053f: mov word [ebp-0x00000324], es ; mov edx, dword [ecx+0x000000DC] ; call edx ;  (1 found)
0x000014cc: movsb  ; xor byte [eax], dl ; adc bh, bh ; and eax, 0x101030A0 ; jmp dword [0x101030C8] ;  (1 found)
0x000006ea: movsb  ; xor dword [eax], edx ; adc byte [edx+0x00], ch ; call dword [0x101030E4] ;  (1 found)
0x00000dbe: movsd  ; movsd  ; pop edi ; pop esi ; mov esp, ebp ; pop ebp ; ret  ;  (1 found)
0x00000dbf: movsd  ; pop edi ; pop esi ; mov esp, ebp ; pop ebp ; ret  ;  (1 found)
0x00000ee8: neg eax ; dec eax ; pop ebp ; ret  ;  (1 found)
0x00000ee3: neg eax ; pop ecx ; sbb eax, eax ; neg eax ; dec eax ; pop ebp ; ret  ;  (1 found)
0x00000ecc: neg eax ; pop ecx ; sbb eax, eax ; not eax ; and eax, dword [ebp+0x08] ; pop ebp ; ret  ;  (1 found)
0x00000594: nop  ; inc eax ; adc byte [eax], dl ; pop ebp ; ret  ;  (1 found)
0x00001520: nop  ; xor byte [eax], dl ; adc bh, bh ; and eax, 0x10103094 ; jmp dword [0x10103050] ;  (1 found)
0x00000659: nop  ; xor dword [eax], edx ; adc byte [ebp-0x0000CB7B], cl ; call dword [eax-0x01] ;  (1 found)
0x00000ed1: not eax ; and eax, dword [ebp+0x08] ; pop ebp ; ret  ;  (1 found)
0x00000f7b: not ecx ; mov dword [0x10104000], ecx ; pop edi ; pop esi ; mov esp, ebp ; pop ebp ; ret  ;  (1 found)
0x000008a5: or al, 0x00 ; add al, ch ; fadd qword [esi] ; add byte [eax], al ; xor eax, eax ; ret  ;  (1 found)
0x00001532: or al, 0x30 ; adc byte [eax], dl ; mov al, 0x01 ; ret  ;  (1 found)
0x00000ca9: or al, 0x3B ; dec edx ; or al, 0x72 ; or cl, byte [ebx+0x42030842] ; or al, 0x3B ; enter 0x0C72, 0x83 ; retn 0x3B28 ;  (1 found)
0x00000cb4: or al, 0x3B ; enter 0x0C72, 0x83 ; retn 0x3B28 ;  (1 found)
0x00000feb: or al, 0x40 ; adc byte [eax], dl ; sete al ; ret  ;  (1 found)
0x00000cac: or al, 0x72 ; or cl, byte [ebx+0x42030842] ; or al, 0x3B ; enter 0x0C72, 0x83 ; retn 0x3B28 ;  (1 found)
0x00000cb8: or al, 0x83 ; retn 0x3B28 ;  (1 found)
0x00000a0c: or al, byte [eax] ; add byte [ecx+0x59], bl ; ret  ;  (1 found)
0x00001293: or al, ch ; int3  ; add dword [eax], eax ; add byte [ecx+0x5D], bl ; ret  ;  (1 found)
0x00000edd: or al, ch ; mov edx, 0xF7FFFFFF ; fcomp dword [ecx+0x1B] ; sal bh, 0xFFFFFFD8 ; dec eax ; pop ebp ; ret  ;  (1 found)
0x00000b6f: or bh, bh ; adc eax, 0x1010302C ; push 0xC0000409 ; call dword [0x10103004] ;  (1 found)
0x00000d15: or byte [eax], al ; add byte [eax+eax*8-0x3FCDFB8B], al ; pop ebp ; ret  ;  (1 found)
0x00000a6e: or byte [eax], al ; mov dword [ecx+0x04], 0x101031FC ; mov dword [ecx], 0x101031F4 ; ret  ;  (1 found)
0x00000aa1: or byte [eax], al ; mov dword [ecx+0x04], 0x10103218 ; mov dword [ecx], 0x10103210 ; ret  ;  (1 found)
0x00000b84: or byte [eax], dh ; adc byte [eax], dl ; pop ebp ; ret  ;  (1 found)
0x00000761: or byte [ebp-0x0003EB73], cl ; call dword [ecx-0x75] ;  (1 found)
0x00000a84: or byte [ebx+0x0025E8F1], cl ; add byte [eax], al ; mov dword [esi], 0x10103210 ; mov eax, esi ; pop esi ; pop ebp ; retn 0x0004 ;  (1 found)
0x00000a51: or byte [ebx+0x0058E8F1], cl ; add byte [eax], al ; mov dword [esi], 0x101031F4 ; mov eax, esi ; pop esi ; pop ebp ; retn 0x0004 ;  (1 found)
0x00000cb1: or byte [ebx], al ; inc edx ; or al, 0x3B ; enter 0x0C72, 0x83 ; retn 0x3B28 ;  (1 found)
0x0000068d: or byte [edx+0x01], ch ; call dword [0x1010309C] ;  (1 found)
0x00000fe1: or byte [edx], al ; mov dword [eax+0x04], ecx ; ret  ;  (1 found)
0x00000cae: or cl, byte [ebx+0x42030842] ; or al, 0x3B ; enter 0x0C72, 0x83 ; retn 0x3B28 ;  (1 found)
0x00000b77: or dword [eax+eax], eax ; sar bh, 0x00000015 ; add al, 0x30 ; adc byte [eax], dl ; push eax ; call dword [0x10103008] ;  (1 found)
0x00000fe0: or dword [eax], 0x02 ; mov dword [eax+0x04], ecx ; ret  ;  (1 found)
0x00000ad1: or dword [eax], eax ; add byte [ecx+0x59], bl ; mov eax, esi ; pop esi ; pop ebp ; retn 0x0004 ;  (1 found)
0x000011ec: or dword [ebx+0x000DE8CF], ecx ; add byte [eax], al ; call edi ;  (1 found)
0x000011c1: or dword [ebx+0x0038E8CF], ecx ; add byte [eax], al ; call edi ;  (1 found)
0x00000f7e: or eax, 0x10104000 ; pop edi ; pop esi ; mov esp, ebp ; pop ebp ; ret  ;  (1 found)
0x00000686: or eax, 0xFFFFFC14 ; add byte [ebp+0x08], dh ; push 0x00000001 ; call dword [0x1010309C] ;  (1 found)
0x00001502: pop eax ; xor byte [eax], dl ; adc bh, bh ; and eax, 0x101030C4 ; jmp dword [0x101030B0] ;  (1 found)
0x00001267: pop ebp ; push ecx ; ret  ;  (1 found)
0x00000586: pop ebp ; ret  ;  (1 found)
0x00000598: pop ebp ; ret  ;  (1 found)
0x00000787: pop ebp ; ret  ;  (1 found)
0x000007ce: pop ebp ; ret  ;  (1 found)
0x00000801: pop ebp ; ret  ;  (1 found)
0x00000b88: pop ebp ; ret  ;  (1 found)
0x00000c83: pop ebp ; ret  ;  (1 found)
0x00000cc3: pop ebp ; ret  ;  (1 found)
0x00000dc4: pop ebp ; ret  ;  (1 found)
0x00000d1e: pop ebp ; ret  ;  (1 found)
0x00000d35: pop ebp ; ret  ;  (1 found)
0x00000ed6: pop ebp ; ret  ;  (1 found)
0x00000e9b: pop ebp ; ret  ;  (1 found)
0x00000e73: pop ebp ; ret  ;  (1 found)
0x00000eeb: pop ebp ; ret  ;  (1 found)
0x00000f87: pop ebp ; ret  ;  (1 found)
0x00001118: pop ebp ; ret  ;  (1 found)
0x0000128c: pop ebp ; ret  ;  (1 found)
0x0000129a: pop ebp ; ret  ;  (1 found)
0x00001457: pop ebp ; ret  ;  (1 found)
0x000005c8: pop ebp ; ret  ;  (1 found)
0x00000403: pop ebp ; ret  ;  (1 found)
0x00000ad9: pop ebp ; retn 0x0004 ;  (1 found)
0x00000a62: pop ebp ; retn 0x0004 ;  (1 found)
0x00000a95: pop ebp ; retn 0x0004 ;  (1 found)
0x00000b17: pop ebp ; retn 0x0004 ;  (1 found)
0x000011a1: pop ebp ; retn 0x0004 ;  (1 found)
0x000012bb: pop ebp ; retn 0x0004 ;  (1 found)
0x00001264: pop ebx ; mov esp, ebp ; pop ebp ; push ecx ; ret  ;  (1 found)
0x00001115: pop ebx ; mov esp, ebp ; pop ebp ; ret  ;  (1 found)
0x00001454: pop ebx ; mov esp, ebp ; pop ebp ; ret  ;  (1 found)
0x000006e8: pop ebx ; push 0x101031A4 ; push 0x00000000 ; call dword [0x101030E4] ;  (1 found)
0x000011d4: pop ebx ; ret  ;  (1 found)
0x000011ff: pop ebx ; ret  ;  (1 found)
0x00000e98: pop ecx ; mov al, 0x01 ; pop ebp ; ret  ;  (1 found)
0x00000ad5: pop ecx ; mov eax, esi ; pop esi ; pop ebp ; retn 0x0004 ;  (1 found)
0x00000b13: pop ecx ; mov eax, esi ; pop esi ; pop ebp ; retn 0x0004 ;  (1 found)
0x000012b7: pop ecx ; mov eax, esi ; pop esi ; pop ebp ; retn 0x0004 ;  (1 found)
0x00001299: pop ecx ; pop ebp ; ret  ;  (1 found)
0x00000e97: pop ecx ; pop ecx ; mov al, 0x01 ; pop ebp ; ret  ;  (1 found)
0x00000ad4: pop ecx ; pop ecx ; mov eax, esi ; pop esi ; pop ebp ; retn 0x0004 ;  (1 found)
0x00000b12: pop ecx ; pop ecx ; mov eax, esi ; pop esi ; pop ebp ; retn 0x0004 ;  (1 found)
0x000012b6: pop ecx ; pop ecx ; mov eax, esi ; pop esi ; pop ebp ; retn 0x0004 ;  (1 found)
0x00000a0f: pop ecx ; pop ecx ; ret  ;  (1 found)
0x00000a10: pop ecx ; ret  ;  (1 found)
0x000008d0: pop ecx ; ret  ;  (1 found)
0x00000aec: pop ecx ; ret  ;  (1 found)
0x00000ee5: pop ecx ; sbb eax, eax ; neg eax ; dec eax ; pop ebp ; ret  ;  (1 found)
0x00000ece: pop ecx ; sbb eax, eax ; not eax ; and eax, dword [ebp+0x08] ; pop ebp ; ret  ;  (1 found)
0x00000dc0: pop edi ; pop esi ; mov esp, ebp ; pop ebp ; ret  ;  (1 found)
0x00000f83: pop edi ; pop esi ; mov esp, ebp ; pop ebp ; ret  ;  (1 found)
0x00001262: pop edi ; pop esi ; pop ebx ; mov esp, ebp ; pop ebp ; push ecx ; ret  ;  (1 found)
0x000011fd: pop edi ; pop esi ; pop ebx ; ret  ;  (1 found)
0x000011d2: pop edi ; pop esi ; pop ebx ; ret  ;  (1 found)
0x000008ba: pop es ; add byte [eax], al ; xor eax, eax ; ret  ;  (1 found)
0x00000dc1: pop esi ; mov esp, ebp ; pop ebp ; ret  ;  (1 found)
0x00000f84: pop esi ; mov esp, ebp ; pop ebp ; ret  ;  (1 found)
0x00000cc2: pop esi ; pop ebp ; ret  ;  (1 found)
0x00000a61: pop esi ; pop ebp ; retn 0x0004 ;  (1 found)
0x00000a94: pop esi ; pop ebp ; retn 0x0004 ;  (1 found)
0x00000ad8: pop esi ; pop ebp ; retn 0x0004 ;  (1 found)
0x00000b16: pop esi ; pop ebp ; retn 0x0004 ;  (1 found)
0x000012ba: pop esi ; pop ebp ; retn 0x0004 ;  (1 found)
0x00001263: pop esi ; pop ebx ; mov esp, ebp ; pop ebp ; push ecx ; ret  ;  (1 found)
0x00001114: pop esi ; pop ebx ; mov esp, ebp ; pop ebp ; ret  ;  (1 found)
0x000011d3: pop esi ; pop ebx ; ret  ;  (1 found)
0x000011fe: pop esi ; pop ebx ; ret  ;  (1 found)
0x00000cf8: pop esi ; ret  ;  (1 found)
0x00000cfc: pop esi ; ret  ;  (1 found)
0x00000a67: popad  ; add al, 0x00 ; mov eax, ecx ; and dword [ecx+0x08], 0x00000000 ; mov dword [ecx+0x04], 0x101031FC ; mov dword [ecx], 0x101031F4 ; ret  ;  (1 found)
0x00000a9a: popad  ; add al, 0x00 ; mov eax, ecx ; and dword [ecx+0x08], 0x00000000 ; mov dword [ecx+0x04], 0x10103218 ; mov dword [ecx], 0x10103210 ; ret  ;  (1 found)
0x0000062b: popad  ; add dword [eax], eax ; add byte [ebx+0x016A04C4], al ; call dword [0x1010309C] ;  (1 found)
0x00000a6d: popad  ; or byte [eax], al ; mov dword [ecx+0x04], 0x101031FC ; mov dword [ecx], 0x101031F4 ; ret  ;  (1 found)
0x00000aa0: popad  ; or byte [eax], al ; mov dword [ecx+0x04], 0x10103218 ; mov dword [ecx], 0x10103210 ; ret  ;  (1 found)
0x0000104a: popfd  ; cmp ch, 0xFFFFFFFF ; dec dword [ecx-0x0002834B] ; dec dword [ecx-0x00028743] ; jmp dword [esi-0x74] ;  (1 found)
0x00000b65: push 0x00000000 ; call dword [0x10103000] ;  (1 found)
0x0000111a: push 0x00000000 ; call dword [0x10103018] ;  (1 found)
0x000006ee: push 0x00000000 ; call dword [0x101030E4] ;  (1 found)
0x000007a5: push 0x00000000 ; mov edx, dword [ebp+0x08] ; push edx ; push 0x00000001 ; call dword [0x101030D0] ;  (1 found)
0x00000632: push 0x00000001 ; call dword [0x1010309C] ;  (1 found)
0x0000068e: push 0x00000001 ; call dword [0x1010309C] ;  (1 found)
0x000007ab: push 0x00000001 ; call dword [0x101030D0] ;  (1 found)
0x00000641: push 0x00000001 ; push 0x000000C8 ; lea edx, dword [ebp-0x000000CC] ; push edx ; call dword [0x101030D8] ;  (1 found)
0x0000115f: push 0x0000001D ; adc byte [eax], dl ; call dword [0x10103000] ;  (1 found)
0x00000643: push 0x000000C8 ; lea edx, dword [ebp-0x000000CC] ; push edx ; call dword [0x101030D8] ;  (1 found)
0x0000115e: push 0x10101D6A ; call dword [0x10103000] ;  (1 found)
0x000005ed: push 0x1010314C ; push 0x10103150 ; call dword [0x101030CC] ;  (1 found)
0x000005f2: push 0x10103150 ; call dword [0x101030CC] ;  (1 found)
0x00000658: push 0x10103190 ; lea eax, dword [ebp-0x000000CC] ; push eax ; call dword [0x101030E4] ;  (1 found)
0x000006e9: push 0x101031A4 ; push 0x00000000 ; call dword [0x101030E4] ;  (1 found)
0x00000f96: push 0x101043D8 ; call dword [0x10103020] ;  (1 found)
0x00000b76: push 0xC0000409 ; call dword [0x10103004] ;  (1 found)
0x000014ae: push 0xFF101030 ; and eax, 0x10103078 ; jmp dword [0x101030BC] ;  (1 found)
0x00000d14: push ds ; or byte [eax], al ; add byte [eax+eax*8-0x3FCDFB8B], al ; pop ebp ; ret  ;  (1 found)
0x00000b6d: push dword [ebp+0x08] ; call dword [0x1010302C] ;  (1 found)
0x0000123b: push dword [ebp-0x08] ; mov eax, dword [ebp-0x04] ; mov dword [ebp-0x04], 0xFFFFFFFE ; mov dword [ebp-0x08], eax ; lea eax, dword [ebp-0x10] ; mov dword [fs:0x00000000], eax ; ret  ;  (1 found)
0x00000b81: push eax ; call dword [0x10103008] ;  (1 found)
0x00000f45: push eax ; call dword [0x10103010] ;  (1 found)
0x00000f20: push eax ; call dword [0x10103024] ;  (1 found)
0x000010fc: push eax ; call dword [0x1010302C] ;  (1 found)
0x00000663: push eax ; call dword [0x101030E4] ;  (1 found)
0x0000152c: push eax ; xor byte [eax], dl ; adc bh, bh ; and eax, 0x1010300C ; mov al, 0x01 ; ret  ;  (1 found)
0x00000590: push ebp ; mov ebp, esp ; mov eax, 0x10104090 ; pop ebp ; ret  ;  (1 found)
0x00000400: push ebp ; mov ebp, esp ; pop ebp ; ret  ;  (1 found)
0x00000b62: push ebp ; mov ebp, esp ; push 0x00000000 ; call dword [0x10103000] ;  (1 found)
0x000005bb: push ecx ; mov edx, dword [eax] ; push edx ; call dword [0x101030D4] ;  (1 found)
0x00000768: push ecx ; mov edx, dword [ebp-0x000003F4] ; push edx ; call dword [ebp-0x000003FC] ;  (1 found)
0x000007a4: push ecx ; push 0x00000000 ; mov edx, dword [ebp+0x08] ; push edx ; push 0x00000001 ; call dword [0x101030D0] ;  (1 found)
0x00000640: push ecx ; push 0x00000001 ; push 0x000000C8 ; lea edx, dword [ebp-0x000000CC] ; push edx ; call dword [0x101030D8] ;  (1 found)
0x00001268: push ecx ; ret  ;  (1 found)
0x00000ee2: push edi ; fcomp dword [ecx+0x1B] ; sal bh, 0xFFFFFFD8 ; dec eax ; pop ebp ; ret  ;  (1 found)
0x000005be: push edx ; call dword [0x101030D4] ;  (1 found)
0x0000064e: push edx ; call dword [0x101030D8] ;  (1 found)
0x0000076f: push edx ; call dword [ebp-0x000003FC] ;  (1 found)
0x00000537: push edx ; mov eax, dword [ebp-0x00000328] ; mov ecx, dword [ebp+eax*4-0x00000324] ; mov edx, dword [ecx+0x000000DC] ; call edx ;  (1 found)
0x000007aa: push edx ; push 0x00000001 ; call dword [0x101030D0] ;  (1 found)
0x00000a8d: push es ; adc byte [edx], dh ; adc byte [eax], dl ; mov eax, esi ; pop esi ; pop ebp ; retn 0x0004 ;  (1 found)
0x00000e94: push es ; add byte [eax], al ; pop ecx ; pop ecx ; mov al, 0x01 ; pop ebp ; ret  ;  (1 found)
0x000008aa: push es ; add byte [eax], al ; xor eax, eax ; ret  ;  (1 found)
0x0000119e: push es ; xor eax, eax ; pop ebp ; retn 0x0004 ;  (1 found)
0x00001496: push esp ; xor byte [eax], dl ; adc bh, bh ; and eax, 0x1010304C ; jmp dword [0x101030B8] ;  (1 found)
0x000014fc: pushad  ; xor byte [eax], dl ; adc bh, bh ; and eax, 0x10103058 ; jmp dword [0x101030C4] ;  (1 found)
0x00000626: pushad  ; xor dword [eax], edx ; adc al, ch ; popad  ; add dword [eax], eax ; add byte [ebx+0x016A04C4], al ; call dword [0x1010309C] ;  (1 found)
0x00000ad0: pushfd  ; or dword [eax], eax ; add byte [ecx+0x59], bl ; mov eax, esi ; pop esi ; pop ebp ; retn 0x0004 ;  (1 found)
0x00001490: pushfd  ; xor byte [eax], dl ; adc bh, bh ; and eax, 0x10103054 ; jmp dword [0x1010304C] ;  (1 found)
0x00000636: pushfd  ; xor byte [eax], dl ; adc byte [ebx-0x0003F773], cl ; call dword [ecx+0x6A] ;  (1 found)
0x00001453: rcr byte [ebx-0x75], 0xFFFFFFE5 ; pop ebp ; ret  ;  (1 found)
0x00000599: ret  ;  (1 found)
0x00000587: ret  ;  (1 found)
0x000005c9: ret  ;  (1 found)
0x00000788: ret  ;  (1 found)
0x00000802: ret  ;  (1 found)
0x000007cf: ret  ;  (1 found)
0x0000080d: ret  ;  (1 found)
0x0000080c: ret  ;  (1 found)
0x00000a40: ret  ;  (1 found)
0x000008af: ret  ;  (1 found)
0x000008d1: ret  ;  (1 found)
0x00000a11: ret  ;  (1 found)
0x000008bf: ret  ;  (1 found)
0x00000a7d: ret  ;  (1 found)
0x00000ab0: ret  ;  (1 found)
0x00000aed: ret  ;  (1 found)
0x00000b61: ret  ;  (1 found)
0x00000cd4: ret  ;  (1 found)
0x00000cc4: ret  ;  (1 found)
0x00000c84: ret  ;  (1 found)
0x00000b89: ret  ;  (1 found)
0x00000cf9: ret  ;  (1 found)
0x00000cfd: ret  ;  (1 found)
0x00000d1f: ret  ;  (1 found)
0x00000dc5: ret  ;  (1 found)
0x00000e74: ret  ;  (1 found)
0x00000e9c: ret  ;  (1 found)
0x00000d36: ret  ;  (1 found)
0x00000e45: ret  ;  (1 found)
0x00000e57: ret  ;  (1 found)
0x00000ed7: ret  ;  (1 found)
0x00000eec: ret  ;  (1 found)
0x00000ff2: ret  ;  (1 found)
0x00000fc9: ret  ;  (1 found)
0x00000fa1: ret  ;  (1 found)
0x00000fe6: ret  ;  (1 found)
0x00000fba: ret  ;  (1 found)
0x00000fc3: ret  ;  (1 found)
0x00000f8f: ret  ;  (1 found)
0x00000f8b: ret  ;  (1 found)
0x00000f88: ret  ;  (1 found)
0x00000f95: ret  ;  (1 found)
0x00001109: ret  ;  (1 found)
0x00001119: ret  ;  (1 found)
0x00000ff8: ret  ;  (1 found)
0x00000ffe: ret  ;  (1 found)
0x000010f2: ret  ;  (1 found)
0x000011d5: ret  ;  (1 found)
0x00001169: ret  ;  (1 found)
0x0000115d: ret  ;  (1 found)
0x0000112a: ret  ;  (1 found)
0x00001254: ret  ;  (1 found)
0x00001255: ret  ;  (1 found)
0x00001269: ret  ;  (1 found)
0x0000126a: ret  ;  (1 found)
0x00001200: ret  ;  (1 found)
0x0000129b: ret  ;  (1 found)
0x0000128d: ret  ;  (1 found)
0x00001464: ret  ;  (1 found)
0x00001458: ret  ;  (1 found)
0x000016ec: ret  ;  (1 found)
0x00001538: ret  ;  (1 found)
0x00000404: ret  ;  (1 found)
0x00000a63: retn 0x0004 ;  (1 found)
0x00000ada: retn 0x0004 ;  (1 found)
0x00000a96: retn 0x0004 ;  (1 found)
0x00000b18: retn 0x0004 ;  (1 found)
0x000011a2: retn 0x0004 ;  (1 found)
0x000012bc: retn 0x0004 ;  (1 found)
0x00000532: retn 0x00C8 ;  (1 found)
0x00000cba: retn 0x3B28 ;  (1 found)
0x0000073a: retn 0x8901 ;  (1 found)
0x000006ba: retn 0x8901 ;  (1 found)
0x0000069c: retn 0x8B00 ;  (1 found)
0x00000cc6: retn 0xF9EB ;  (1 found)
0x00000f8a: rol bl, 0x00000033 ; rol byte [eax-0x3D], 0xFFFFFFB8 ; add byte [eax+0x00], al ; add bl, al ; push 0x101043D8 ; call dword [0x10103020] ;  (1 found)
0x0000115c: rol bl, 0x00000068 ; push 0x0000001D ; adc byte [eax], dl ; call dword [0x10103000] ;  (1 found)
0x00000ff1: rol bl, 0xFFFFFFB8 ; clc  ; inc ebx ; adc byte [eax], dl ; ret  ;  (1 found)
0x00001463: rol bl, 0xFFFFFFE9 ; rol byte [eax], 0x00000000 ; add bh, bh ; and eax, 0x10103044 ; jmp dword [0x1010303C] ;  (1 found)
0x00000f8d: rol byte [eax-0x3D], 0xFFFFFFB8 ; add byte [eax+0x00], al ; add bl, al ; push 0x101043D8 ; call dword [0x10103020] ;  (1 found)
0x00001466: rol byte [eax], 0x00000000 ; add bh, bh ; and eax, 0x10103044 ; jmp dword [0x1010303C] ;  (1 found)
0x00000f7c: ror dword [ecx+0x1040000D], 1  ; adc byte [edi+0x5E], bl ; mov esp, ebp ; pop ebp ; ret  ;  (1 found)
0x00000ed0: sal bh, 0xFFFFFFD0 ; and eax, dword [ebp+0x08] ; pop ebp ; ret  ;  (1 found)
0x00000ee7: sal bh, 0xFFFFFFD8 ; dec eax ; pop ebp ; ret  ;  (1 found)
0x00000b59: sal byte [ebp+0x05], 0xFFFFFFB8 ; fdiv qword [ecx] ; adc byte [eax], dl ; ret  ;  (1 found)
0x000008a0: sal byte [ebp+eax-0x18], 0x00000010 ; or al, 0x00 ; add al, ch ; fadd qword [esi] ; add byte [eax], al ; xor eax, eax ; ret  ;  (1 found)
0x00000b7a: sar bh, 0x00000015 ; add al, 0x30 ; adc byte [eax], dl ; push eax ; call dword [0x10103008] ;  (1 found)
0x0000145a: sar byte [ecx], 0x00000005 ; adc al, 0x40 ; adc byte [eax], dl ; setne al ; ret  ;  (1 found)
0x00000fe8: sar byte [ecx], 0x00000005 ; or al, 0x40 ; adc byte [eax], dl ; sete al ; ret  ;  (1 found)
0x000010ec: sbb bl, bl ; mov dword [ebp-0x04], eax ; inc bl ; call dword [0x10103000] ;  (1 found)
0x00000aa6: sbb byte [edx], dh ; adc byte [eax], dl ; mov dword [ecx], 0x10103210 ; ret  ;  (1 found)
0x00000ca6: sbb dword [ebx+0x4A3B0C4D], ecx ; or al, 0x72 ; or cl, byte [ebx+0x42030842] ; or al, 0x3B ; enter 0x0C72, 0x83 ; retn 0x3B28 ;  (1 found)
0x00001160: sbb eax, 0x15FF1010 ; add byte [eax], dh ; adc byte [eax], dl ; ret  ;  (1 found)
0x0000110c: sbb eax, eax ; and dword [0x101043E8], eax ; pop esi ; pop ebx ; mov esp, ebp ; pop ebp ; ret  ;  (1 found)
0x00000ee6: sbb eax, eax ; neg eax ; dec eax ; pop ebp ; ret  ;  (1 found)
0x00000ecf: sbb eax, eax ; not eax ; and eax, dword [ebp+0x08] ; pop ebp ; ret  ;  (1 found)
0x00000fef: sete al ; ret  ;  (1 found)
0x00000e40: sete cl ; mov eax, ecx ; ret  ;  (1 found)
0x0000115a: setne al ; ret  ;  (1 found)
0x00001461: setne al ; ret  ;  (1 found)
0x00000b72: sub al, 0x30 ; adc byte [eax], dl ; push 0xC0000409 ; call dword [0x10103004] ;  (1 found)
0x00000f32: sub byte [eax], dh ; adc byte [eax], dl ; xor dword [ebp-0x04], eax ; call dword [0x10103014] ;  (1 found)
0x000010c5: test al, 0x15 ; add byte [eax], al ; inc eax ; mov dword [ebp-0x54], 0x00000001 ; mov dword [ebp-0x4C], eax ; call dword [0x1010301C] ;  (1 found)
0x000014c6: test al, 0x30 ; adc byte [eax], dl ; jmp dword [0x101030A4] ;  (1 found)
0x000014e4: test byte [eax], dh ; adc byte [eax], dl ; jmp dword [0x1010307C] ;  (1 found)
0x00000e71: xchg dword [ecx], eax ; pop ebp ; ret  ;  (1 found)
0x0000115b: xchg eax, ebp ; rol bl, 0x00000068 ; push 0x0000001D ; adc byte [eax], dl ; call dword [0x10103000] ;  (1 found)
0x00001462: xchg eax, ebp ; rol bl, 0xFFFFFFE9 ; rol byte [eax], 0x00000000 ; add bh, bh ; and eax, 0x10103044 ; jmp dword [0x1010303C] ;  (1 found)
0x00000546: xchg eax, ecx ; fadd qword [eax] ; add byte [eax], al ; call edx ;  (1 found)
0x00000a0b: xchg eax, ecx ; or al, byte [eax] ; add byte [ecx+0x59], bl ; ret  ;  (1 found)
0x00000ff0: xchg eax, esp ; rol bl, 0xFFFFFFB8 ; clc  ; inc ebx ; adc byte [eax], dl ; ret  ;  (1 found)
0x00001526: xchg eax, esp ; xor byte [eax], dl ; adc bh, bh ; and eax, 0x10103050 ; jmp dword [0x1010300C] ;  (1 found)
0x0000147e: xor al, 0x30 ; adc byte [eax], dl ; jmp dword [0x10103040] ;  (1 found)
0x00000d1c: xor al, al ; pop ebp ; ret  ;  (1 found)
0x00000cf6: xor al, al ; pop esi ; ret  ;  (1 found)
0x00000cf5: xor al, al ; pop esi ; ret  ;  (1 found)
0x00000cd2: xor al, al ; ret  ;  (1 found)
0x00001128: xor al, al ; ret  ;  (1 found)
0x0000152d: xor byte [eax], dl ; adc bh, bh ; and eax, 0x1010300C ; mov al, 0x01 ; ret  ;  (1 found)
0x00001479: xor byte [eax], dl ; adc bh, bh ; and eax, 0x10103034 ; jmp dword [0x10103040] ;  (1 found)
0x00001473: xor byte [eax], dl ; adc bh, bh ; and eax, 0x10103038 ; jmp dword [0x10103034] ;  (1 found)
0x0000146d: xor byte [eax], dl ; adc bh, bh ; and eax, 0x1010303C ; jmp dword [0x10103038] ;  (1 found)
0x0000147f: xor byte [eax], dl ; adc bh, bh ; and eax, 0x10103040 ; jmp dword [0x101030E0] ;  (1 found)
0x00001497: xor byte [eax], dl ; adc bh, bh ; and eax, 0x1010304C ; jmp dword [0x101030B8] ;  (1 found)
0x00001527: xor byte [eax], dl ; adc bh, bh ; and eax, 0x10103050 ; jmp dword [0x1010300C] ;  (1 found)
0x00001491: xor byte [eax], dl ; adc bh, bh ; and eax, 0x10103054 ; jmp dword [0x1010304C] ;  (1 found)
0x000014fd: xor byte [eax], dl ; adc bh, bh ; and eax, 0x10103058 ; jmp dword [0x101030C4] ;  (1 found)
0x000014f7: xor byte [eax], dl ; adc bh, bh ; and eax, 0x10103060 ; jmp dword [0x10103058] ;  (1 found)
0x000014a9: xor byte [eax], dl ; adc bh, bh ; and eax, 0x10103068 ; jmp dword [0x10103078] ;  (1 found)
0x000014eb: xor byte [eax], dl ; adc bh, bh ; and eax, 0x10103070 ; jmp dword [0x10103074] ;  (1 found)
0x000014f1: xor byte [eax], dl ; adc bh, bh ; and eax, 0x10103074 ; jmp dword [0x10103060] ;  (1 found)
0x000014af: xor byte [eax], dl ; adc bh, bh ; and eax, 0x10103078 ; jmp dword [0x101030BC] ;  (1 found)
0x000014e5: xor byte [eax], dl ; adc bh, bh ; and eax, 0x1010307C ; jmp dword [0x10103070] ;  (1 found)
0x000014df: xor byte [eax], dl ; adc bh, bh ; and eax, 0x10103084 ; jmp dword [0x1010307C] ;  (1 found)
0x0000150f: xor byte [eax], dl ; adc bh, bh ; and eax, 0x10103088 ; jmp dword [0x1010308C] ;  (1 found)
0x00001515: xor byte [eax], dl ; adc bh, bh ; and eax, 0x1010308C ; jmp dword [0x10103090] ;  (1 found)
0x0000151b: xor byte [eax], dl ; adc bh, bh ; and eax, 0x10103090 ; jmp dword [0x10103094] ;  (1 found)
0x00001521: xor byte [eax], dl ; adc bh, bh ; and eax, 0x10103094 ; jmp dword [0x10103050] ;  (1 found)
0x000014d9: xor byte [eax], dl ; adc bh, bh ; and eax, 0x10103098 ; jmp dword [0x10103084] ;  (1 found)
0x0000148b: xor byte [eax], dl ; adc bh, bh ; and eax, 0x1010309C ; jmp dword [0x10103054] ;  (1 found)
0x000014cd: xor byte [eax], dl ; adc bh, bh ; and eax, 0x101030A0 ; jmp dword [0x101030C8] ;  (1 found)
0x000014c7: xor byte [eax], dl ; adc bh, bh ; and eax, 0x101030A4 ; jmp dword [0x101030A0] ;  (1 found)
0x000014c1: xor byte [eax], dl ; adc bh, bh ; and eax, 0x101030A8 ; jmp dword [0x101030A4] ;  (1 found)
0x000014bb: xor byte [eax], dl ; adc bh, bh ; and eax, 0x101030AC ; jmp dword [0x101030A8] ;  (1 found)
0x00001509: xor byte [eax], dl ; adc bh, bh ; and eax, 0x101030B0 ; jmp dword [0x10103088] ;  (1 found)
0x000014a3: xor byte [eax], dl ; adc bh, bh ; and eax, 0x101030B4 ; jmp dword [0x10103068] ;  (1 found)
0x0000149d: xor byte [eax], dl ; adc bh, bh ; and eax, 0x101030B8 ; jmp dword [0x101030B4] ;  (1 found)
0x000014b5: xor byte [eax], dl ; adc bh, bh ; and eax, 0x101030BC ; jmp dword [0x101030AC] ;  (1 found)
0x00001503: xor byte [eax], dl ; adc bh, bh ; and eax, 0x101030C4 ; jmp dword [0x101030B0] ;  (1 found)
0x000014d3: xor byte [eax], dl ; adc bh, bh ; and eax, 0x101030C8 ; jmp dword [0x10103098] ;  (1 found)
0x00001485: xor byte [eax], dl ; adc bh, bh ; and eax, 0x101030E0 ; jmp dword [0x1010309C] ;  (1 found)
0x00000b7e: xor byte [eax], dl ; adc byte [eax-0x01], dl ; adc eax, 0x10103008 ; pop ebp ; ret  ;  (1 found)
0x00000f24: xor byte [eax], dl ; adc byte [ebx+0x4533F845], cl ; hlt  ; mov dword [ebp-0x04], eax ; call dword [0x10103028] ;  (1 found)
0x00000637: xor byte [eax], dl ; adc byte [ebx-0x0003F773], cl ; call dword [ecx+0x6A] ;  (1 found)
0x00000652: xor byte [eax], dl ; adc byte [ebx-0x6F97EF3C], al ; xor dword [eax], edx ; adc byte [ebp-0x0000CB7B], cl ; call dword [eax-0x01] ;  (1 found)
0x00000f33: xor byte [eax], dl ; adc byte [ecx], dh ; inc ebp ; cld  ; call dword [0x10103014] ;  (1 found)
0x00000f3c: xor byte [eax], dl ; adc byte [ecx], dh ; inc ebp ; cld  ; lea eax, dword [ebp-0x14] ; push eax ; call dword [0x10103010] ;  (1 found)
0x00000627: xor dword [eax], edx ; adc al, ch ; popad  ; add dword [eax], eax ; add byte [ebx+0x016A04C4], al ; call dword [0x1010309C] ;  (1 found)
0x00000b5e: xor dword [eax], edx ; adc bl, al ; push ebp ; mov ebp, esp ; push 0x00000000 ; call dword [0x10103000] ;  (1 found)
0x00000ae3: xor dword [eax], edx ; adc byte [eax-0x18], dl ; mov cl, byte [ecx] ; add byte [eax], al ; pop ecx ; ret  ;  (1 found)
0x0000065a: xor dword [eax], edx ; adc byte [ebp-0x0000CB7B], cl ; call dword [eax-0x01] ;  (1 found)
0x000006eb: xor dword [eax], edx ; adc byte [edx+0x00], ch ; call dword [0x101030E4] ;  (1 found)
0x00000f36: xor dword [ebp-0x04], eax ; call dword [0x10103014] ;  (1 found)
0x00000f3f: xor dword [ebp-0x04], eax ; lea eax, dword [ebp-0x14] ; push eax ; call dword [0x10103010] ;  (1 found)
0x00000f2a: xor eax, dword [ebp-0x0C] ; mov dword [ebp-0x04], eax ; call dword [0x10103028] ;  (1 found)
0x00000fe7: xor eax, eax ; cmp dword [0x1010400C], eax ; sete al ; ret  ;  (1 found)
0x00001459: xor eax, eax ; cmp dword [0x10104014], eax ; setne al ; ret  ;  (1 found)
0x00000f8c: xor eax, eax ; inc eax ; ret  ;  (1 found)
0x00000e6a: xor eax, eax ; mov ecx, 0x101043B8 ; xchg dword [ecx], eax ; pop ebp ; ret  ;  (1 found)
0x0000119f: xor eax, eax ; pop ebp ; retn 0x0004 ;  (1 found)
0x00001452: xor eax, eax ; pop ebx ; mov esp, ebp ; pop ebp ; ret  ;  (1 found)
0x00000cc0: xor eax, eax ; pop esi ; pop ebp ; ret  ;  (1 found)
0x000008bd: xor eax, eax ; ret  ;  (1 found)
0x000008ad: xor eax, eax ; ret  ;  (1 found)
0x00000f89: xor eax, eax ; ret  ;  (1 found)
0x000005de: xor eax, ebp ; mov dword [ebp-0x04], eax ; mov dword [ebp-0x000003F4], 0x00000000 ; push 0x1010314C ; push 0x10103150 ; call dword [0x101030CC] ;  (1 found)
0x00000e38: xor ecx, ecx ; cmp dword [eax], 0xC0000005 ; sete cl ; mov eax, ecx ; ret  ;  (1 found)
