Trying to open 'A:/re/exploit/minishare/minishare_unpacked.exe'..
FileFormat: raw, Arch: Ia32
Using the Nasm syntax..

Wait a few seconds, rp++ is looking for gadgets..
in .raw
4577 found.

A total of 4577 gadgets found.
0x00014ac5: aaa  ; mov ecx, ebx ; rol edx, 1  ; retn 0x4757 ;  (1 found)
0x00013549: aaa  ; xchg byte [esi-0x25737479], al ; retn 0x3873 ;  (1 found)
0x00005596: aaa  ; xchg eax, esp ; add byte [ecx], ch ; ret  ;  (1 found)
0x00014aad: aad 0x00 ; adc ah, dl ; out 0xDA, al ; fcmovb st0, st2 ; retn 0xA6AA ;  (1 found)
0x0000a7a7: aad 0x81 ; sti  ; das  ; and eax, dword [eax] ; add byte [edi], cl ; test dword [edi+edi*8-0x01], ebx ; jmp dword [ecx+0x0040D6A0] ;  (1 found)
0x000004a7: aad 0xAA ; add byte [eax], al ; mov edx, dword [0x0040D6D0] ; mov dword [eax], edx ; mov esp, ebp ; pop ebp ; ret  ;  (1 found)
0x0000053a: aad 0xC7 ; add al, 0x24 ; or eax, dword [eax] ; add byte [eax], al ; lea esi, dword [esi+0x00000000] ; lea edi, dword [edi+0x00000000] ; call eax ;  (1 found)
0x00014ab0: aam 0xE6 ; fcmovu st0, st2 ; retn 0xAAC2 ;  (1 found)
0x00014aaf: adc ah, dl ; out 0xDA, al ; fcmovb st0, st2 ; retn 0xA6AA ;  (1 found)
0x00001aa3: adc al, 0x00 ; add byte [eax+0x00940338], bh ; pop ebx ; pop esi ; pop edi ; pop ebp ; ret  ;  (1 found)
0x000156a3: adc al, 0x27 ; sub ch, byte [ebx] ; cmp ch, byte [edi-0x58] ; test al, 0xB2 ; retn 0xD2D1 ;  (1 found)
0x000149a8: adc al, 0x45 ; mov bh, 0xD6 ; ret  ;  (1 found)
0x00001480: adc al, 0x5B ; pop esi ; ret  ;  (1 found)
0x00001515: adc al, 0x5B ; pop esi ; ret  ;  (1 found)
0x0000988f: adc al, 0x5B ; pop esi ; ret  ;  (1 found)
0x00007fc5: adc al, 0x81 ; ret  ;  (1 found)
0x000029b2: adc al, 0x8B ; and dword [edx+eax-0x74B9FFB8], 0xFFFFFF93 ; mov al, byte [0x81004802] ; ret  ;  (1 found)
0x00002533: adc al, 0x8B ; mov esp, dword [edx+eax-0x74B9FFB8] ; xchg eax, ebx ; mov al, byte [0x81004802] ; ret  ;  (1 found)
0x00002ef0: adc al, 0x8B ; mov esp, dword [edx+eax-0x74B9FFB8] ; xchg eax, ebx ; mov al, byte [0x81004802] ; ret  ;  (1 found)
0x00002682: adc al, 0x8B ; mov esp, dword [edx+eax-0x74B9FFB8] ; xchg eax, ebx ; mov al, byte [0x81004802] ; ret  ;  (1 found)
0x00009ff5: adc al, 0xB8 ; add dword [eax], eax ; add byte [eax], al ; pop ebx ; pop esi ; ret  ;  (1 found)
0x0001375f: adc al, 0xD6 ; retn 0x0F38 ;  (1 found)
0x00018367: adc al, 0xF7 ; cmc  ; hlt  ; div edx ; in al, dx ; ret  ;  (1 found)
0x000149a3: adc al, byte [0x45140D07+eax] ; mov bh, 0xD6 ; ret  ;  (1 found)
0x00015461: adc al, byte [eax] ; adc edx, dword [esi] ; sbb al, byte [ebp+ecx*2+0x49] ; sahf  ; mov cl, 0xC0 ; ret  ;  (1 found)
0x0001b732: adc al, byte [eax] ; sbb bh, 0x00000012 ; add ch, bh ; ret  ;  (1 found)
0x0001c05a: adc al, byte [eax] ; sbb bh, 0x00000012 ; add ch, bh ; ret  ;  (1 found)
0x0001c982: adc al, byte [eax] ; sbb bh, 0x00000012 ; add ch, bh ; ret  ;  (1 found)
0x0001b736: adc al, byte [eax] ; std  ; ret  ;  (1 found)
0x0001c05e: adc al, byte [eax] ; std  ; ret  ;  (1 found)
0x0001c986: adc al, byte [eax] ; std  ; ret  ;  (1 found)
0x00001508: adc al, dl ; inc eax ; add byte [ebx+0x4020B504], cl ; inc edi ; add byte [ebx+0x5E5B14C4], al ; ret  ;  (1 found)
0x00001502: adc al, dl ; inc eax ; add byte [ebx+0x40D01035], cl ; add byte [ebx+0x4020B504], cl ; inc edi ; add byte [ebx+0x5E5B14C4], al ; ret  ;  (1 found)
0x00014f0a: adc bl, byte [edx] ; sahf  ; retn 0xC3C5 ;  (1 found)
0x0000830c: adc byte [0x01B80000], ch ; add byte [eax], al ; add byte [ebx+0x5E5B7CC4], al ; pop edi ; pop ebp ; ret  ;  (1 found)
0x00015027: adc byte [0xDAD6B266], ch ; ret  ;  (1 found)
0x000075de: adc byte [eax+0x00000001], bh ; add esp, 0x0000008C ; pop ebx ; pop esi ; pop edi ; pop ebp ; ret  ;  (1 found)
0x00013b90: adc byte [eax+edi], ch ; cmp eax, dword [edx+0x74] ; test al, 0x29 ; add ebp, dword [eax-0x4A4CF700] ; mov edx, 0xE8E8E7D8 ; out 0xE8, eax ; ret  ;  (1 found)
0x000158b1: adc byte [eax-0x665F6767], bl ; scasb  ; rol ch, 0xFFFFFFD6 ; ret  ;  (1 found)
0x00004f4a: adc byte [eax], al ; add al, byte [eax] ; pop ebx ; pop esi ; pop edi ; ret  ;  (1 found)
0x000162f6: adc byte [eax], bh ; push esp ; retn 0xD2D1 ;  (1 found)
0x00013d6a: adc byte [eax], dl ; cmp dword [edx-0x57], ebx ; stosb  ; scasd  ; mov bl, 0xB5 ; ret  ;  (1 found)
0x00005076: adc byte [ebp+0x316B7EC0], al ; fstp tword [ecx] ; ret  ;  (1 found)
0x00004528: adc byte [ebx+0x008C249C], cl ; add byte [eax], al ; mov esi, dword [esp+0x00000090] ; mov edi, dword [esp+0x00000094] ; mov ebp, dword [esp+0x00000098] ; add esp, 0x0000009C ; retn 0x0010 ;  (1 found)
0x00001476: adc byte [ebx+0x4020B504], cl ; inc edi ; add byte [ebx+0x5E5B14C4], al ; ret  ;  (1 found)
0x0000510f: adc byte [ebx+0x5E5B1CC4], al ; pop edi ; pop ebp ; ret  ;  (1 found)
0x000083b3: adc byte [ebx+0x5E], bl ; pop edi ; ret  ;  (1 found)
0x000010e6: adc byte [ebx+0x5F5B24C4], al ; ret  ;  (1 found)
0x00005307: adc byte [ebx+0x70DC249C], cl ; add al, 0x00 ; mov esi, dword [esp+0x000470E0] ; mov edi, dword [esp+0x000470E4] ; mov ebp, dword [esp+0x000470E8] ; add esp, 0x000470EC ; retn 0x0010 ;  (1 found)
0x000141ef: adc byte [ebx+ecx], cl ; sub byte [eax], ch ; das  ; das  ; xor dword [ecx], esi ; xor al, byte [edi-0x73357575] ; retn 0x9FC0 ;  (1 found)
0x0000447e: adc byte [ebx-0x7181F002], al ; add esp, 0x7C ; pop ebx ; pop esi ; pop edi ; pop ebp ; ret  ;  (1 found)
0x0001734f: adc byte [ebx], al ; lodsd  ; add dword [esi-0x43FE41FB], ebp ; add ch, byte [esi-0x46FD43FA] ; add edi, dword [eax+eax-0x434F4EF2] ; mov esi, 0xC2C3C1C1 ; ret  ;  (1 found)
0x0001753b: adc byte [ebx], al ; rol dword [eax], 0x08 ; ret  ;  (1 found)
0x00014ac3: adc byte [ebx], dh ; aaa  ; mov ecx, ebx ; rol edx, 1  ; retn 0x4757 ;  (1 found)
0x00004c7a: adc byte [ecx+0x00085CC4], al ; add byte [ebx+0x5E], bl ; pop edi ; pop ebp ; ret  ;  (1 found)
0x0000426f: adc byte [ecx+0x000AACC4], al ; add byte [ebx+0x5E], bl ; pop edi ; pop ebp ; ret  ;  (1 found)
0x00009d31: adc byte [ecx+0x0043DCC4], al ; add byte [ebx+0x5E], bl ; pop edi ; pop ebp ; ret  ;  (1 found)
0x000088ca: adc byte [ecx+0x007EECC4], al ; add byte [ebx+0x5E], bl ; pop edi ; pop ebp ; ret  ;  (1 found)
0x0000078e: adc byte [ecx+0x06308601], bl ; add byte [eax], al ; adc dword [esi+0x00000634], edx ; add esp, 0x00000404 ; pop ebx ; pop esi ; ret  ;  (1 found)
0x00008107: adc byte [ecx+0x5F5E5BD8], cl ; ret  ;  (1 found)
0x00006bcb: adc byte [ecx+edi-0x7D], dh ; les ebx,  [eax] ; xor eax, eax ; pop ebx ; retn 0x0010 ;  (1 found)
0x0000a107: adc byte [ecx], al ; add byte [eax], al ; pop ebx ; pop esi ; pop edi ; ret  ;  (1 found)
0x00013d6b: adc byte [ecx], bh ; pop edx ; test eax, 0xB5B3AFAA ; ret  ;  (1 found)
0x0000543d: adc byte [ecx], bh ; ret  ;  (1 found)
0x000046f5: adc byte [ecx], ch ; ret  ;  (1 found)
0x00006edc: adc byte [ecx], dh ; imul byte [ecx] ; ret  ;  (1 found)
0x000061cb: adc byte [ecx], dh ; test byte [ecx+0x5C89240C], 0x00000024 ; or byte [ecx-0x17F3DBBC], cl ; retn 0x0051 ;  (1 found)
0x000167f2: adc byte [edi+ebp*4-0x2E], dl ; add dl, dl ; add byte [esi], al ; retn 0xA8B7 ;  (1 found)
0x00009fef: adc byte [edi-0x6C], bl ; add byte [ebx+0x01B814C4], al ; add byte [eax], al ; add byte [ebx+0x5E], bl ; ret  ;  (1 found)
0x00014d2d: adc byte [edi], al ; add al, byte [ecx] ; add al, 0x02 ; add eax, 0x0E000702 ; inc ecx ; pop esp ; ret  ;  (1 found)
0x000162f4: adc byte [edi], cl ; adc byte [eax], bh ; push esp ; retn 0xD2D1 ;  (1 found)
0x0001499b: adc byte [edi], cl ; add eax, 0x02060204 ; add byte [edx], dl ; add al, 0x05 ; pop es ; or eax, 0xD6B74514 ; ret  ;  (1 found)
0x0000a112: adc byte [esi-0x6C], bl ; add byte [edi+0x31], dl ; call dword [esi+0x31] ;  (1 found)
0x0000aa80: adc cl, cl ; ret  ;  (1 found)
0x00001dee: adc dh, 0x00000040 ; add byte [ecx], bh ; ret  ;  (1 found)
0x00001e5f: adc dh, 0x00000040 ; add byte [ecx], bh ; ret  ;  (1 found)
0x00001dc6: adc dh, 0x00000040 ; add byte [ecx], dh ; fstp tword [ecx] ; ret  ;  (1 found)
0x00009fee: adc dword [eax], 0x5F ; xchg eax, esp ; add byte [ebx+0x01B814C4], al ; add byte [eax], al ; add byte [ebx+0x5E], bl ; ret  ;  (1 found)
0x00016915: adc dword [ecx], ebx ; push edi ; stosd  ; ret  ;  (1 found)
0x000008be: adc dword [edi+0x00000634], edx ; add esp, 0x0000208C ; pop ebx ; pop esi ; pop edi ; pop ebp ; ret  ;  (1 found)
0x0001597d: adc dword [edi], esp ; cmp ch, byte [ebp-0x58] ; mov bl, 0xD2 ; retn 0xD8DA ;  (1 found)
0x00000713: adc dword [esi+0x00000634], ecx ; mov ebx, dword [esp+0x14] ; mov esi, dword [esp+0x18] ; add esp, 0x1C ; ret  ;  (1 found)
0x00000796: adc dword [esi+0x00000634], edx ; add esp, 0x00000404 ; pop ebx ; pop esi ; ret  ;  (1 found)
0x000004ac: adc eax, 0x0040D6D0 ; mov dword [eax], edx ; mov esp, ebp ; pop ebp ; ret  ;  (1 found)
0x000006ad: adc eax, 0x0094D3F0 ; mov esp, ebp ; pop ebp ; ret  ;  (1 found)
0x0000068d: adc eax, 0x0094D400 ; mov esp, ebp ; pop ebp ; ret  ;  (1 found)
0x0001545d: adc eax, 0x120C0F12 ; add byte [ebx], dl ; push ss ; sbb al, byte [ebp+ecx*2+0x49] ; sahf  ; mov cl, 0xC0 ; ret  ;  (1 found)
0x00004eb7: adc eax, 0x5E5B0000 ; pop edi ; pop ebp ; ret  ;  (1 found)
0x00004e95: adc eax, 0x5E5B0000 ; pop edi ; pop ebp ; ret  ;  (1 found)
0x00017384: adc eax, 0xB1B0A746 ; ret  ;  (1 found)
0x00009d2c: adc eax, 0xEC830000 ; adc byte [ecx+0x0043DCC4], al ; add byte [ebx+0x5E], bl ; pop edi ; pop ebp ; ret  ;  (1 found)
0x00014ea1: adc ebp, dword [edi] ; xor al, 0x7B ; mov dh, 0xB7 ; retn 0xBAD1 ;  (1 found)
0x00015463: adc edx, dword [esi] ; sbb al, byte [ebp+ecx*2+0x49] ; sahf  ; mov cl, 0xC0 ; ret  ;  (1 found)
0x00013961: adc edx, ecx ; retn 0xAAB5 ;  (1 found)
0x00015107: adc esp, dword [esi] ; sub eax, 0xD1B26E70 ; retn 0xD2B7 ;  (1 found)
0x00014160: add ah, al ; add byte [0xDAEAEEF0], cl ; retn 0xB5B5 ;  (1 found)
0x00013f88: add ah, al ; add byte [edi], dl ; int1  ; out dx, eax ; in eax, dx ; out 0xD2, al ; ret  ;  (1 found)
0x0000ae83: add ah, al ; xchg eax, esp ; add byte [ebp+0x5E5BF465], cl ; pop edi ; pop ebp ; ret  ;  (1 found)
0x00017290: add ah, bl ; add byte [edx+ebx*8], cl ; salc  ; ret  ;  (1 found)
0x0001597a: add ah, byte [esi] ; add byte [ecx], dl ; daa  ; cmp ch, byte [ebp-0x58] ; mov bl, 0xD2 ; retn 0xD8DA ;  (1 found)
0x0001b5fb: add ah, cl ; inc dword [eax] ; add ah, cl ; push dword [ebx] ; add ah, cl ; jmp dword [esi+0x00] ;  (1 found)
0x0001b3b8: add ah, cl ; inc dword [eax] ; add bh, bh ; add byte [eax], al ; add bh, bh ; xor esi, dword [edi+0x00] ; jmp dword [esi+0x00] ;  (1 found)
0x0001bce0: add ah, cl ; inc dword [eax] ; add bh, bh ; add byte [eax], al ; add bh, bh ; xor esi, dword [edi+0x00] ; jmp dword [esi+0x00] ;  (1 found)
0x0001c608: add ah, cl ; inc dword [eax] ; add bh, bh ; add byte [eax], al ; add bh, bh ; xor esi, dword [edi+0x00] ; jmp dword [esi+0x00] ;  (1 found)
0x00010cdb: add ah, cl ; int3  ; rol byte [eax], cl ; ret  ;  (1 found)
0x0001b603: add ah, cl ; jmp dword [esi+0x00] ;  (1 found)
0x0001b5ff: add ah, cl ; push dword [ebx] ; add ah, cl ; jmp dword [esi+0x00] ;  (1 found)
0x000024ad: add al, 0x00 ; add byte [ebx+0x047424B4], cl ; add byte [eax], al ; mov edi, dword [esp+0x00000478] ; add esp, 0x0000047C ; ret  ;  (1 found)
0x00002446: add al, 0x00 ; add byte [ebx+0x047424B4], cl ; add byte [eax], al ; mov edi, dword [esp+0x00000478] ; add esp, 0x0000047C ; ret  ;  (1 found)
0x000024b4: add al, 0x00 ; add byte [ebx+0x047824BC], cl ; add byte [eax], al ; add esp, 0x0000047C ; ret  ;  (1 found)
0x0000244d: add al, 0x00 ; add byte [ebx+0x047824BC], cl ; add byte [eax], al ; add esp, 0x0000047C ; ret  ;  (1 found)
0x00007ab7: add al, 0x00 ; add byte [ebx+0x5E], bl ; pop edi ; pop ebp ; ret  ;  (1 found)
0x000078ce: add al, 0x00 ; add byte [ebx+0x5E], bl ; pop edi ; pop ebp ; ret  ;  (1 found)
0x0000079f: add al, 0x00 ; add byte [ebx+0x5E], bl ; ret  ;  (1 found)
0x00005322: add al, 0x00 ; add esp, 0x000470EC ; retn 0x0010 ;  (1 found)
0x0000531b: add al, 0x00 ; mov ebp, dword [esp+0x000470E8] ; add esp, 0x000470EC ; retn 0x0010 ;  (1 found)
0x00005314: add al, 0x00 ; mov edi, dword [esp+0x000470E4] ; mov ebp, dword [esp+0x000470E8] ; add esp, 0x000470EC ; retn 0x0010 ;  (1 found)
0x0000530d: add al, 0x00 ; mov esi, dword [esp+0x000470E0] ; mov edi, dword [esp+0x000470E4] ; mov ebp, dword [esp+0x000470E8] ; add esp, 0x000470EC ; retn 0x0010 ;  (1 found)
0x00014b6f: add al, 0x00 ; or al, 0x05 ; pop es ; push cs ; inc ecx ; push ecx ; ret  ;  (1 found)
0x00005328: add al, 0x00 ; retn 0x0010 ;  (1 found)
0x0000551c: add al, 0x01 ; ret  ;  (1 found)
0x0000556a: add al, 0x01 ; ret  ;  (1 found)
0x0000557d: add al, 0x01 ; ret  ;  (1 found)
0x000152f3: add al, 0x02 ; add al, 0x02 ; or dword [ebx+ecx], eax ; add byte [edx], cl ; sub dword [0xA8B27763], ebp ; mov bl, 0xB7 ; retn 0xC202 ;  (1 found)
0x00016a65: add al, 0x02 ; add eax, 0x05041200 ; or eax, 0x15160E0E ; dec eax ; lodsb  ; ret  ;  (1 found)
0x00014d31: add al, 0x02 ; add eax, 0x0E000702 ; inc ecx ; pop esp ; ret  ;  (1 found)
0x000152f5: add al, 0x02 ; or dword [ebx+ecx], eax ; add byte [edx], cl ; sub dword [0xA8B27763], ebp ; mov bl, 0xB7 ; retn 0xC202 ;  (1 found)
0x0001499e: add al, 0x02 ; push es ; add al, byte [eax] ; adc al, byte [0x45140D07+eax] ; mov bh, 0xD6 ; ret  ;  (1 found)
0x00019c18: add al, 0x04 ; add al, 0x04 ; add al, 0x04 ; add al, 0x04 ; add al, 0x04 ; add al, 0x04 ; ret  ;  (1 found)
0x00019c1a: add al, 0x04 ; add al, 0x04 ; add al, 0x04 ; add al, 0x04 ; add al, 0x04 ; ret  ;  (1 found)
0x00019c1c: add al, 0x04 ; add al, 0x04 ; add al, 0x04 ; add al, 0x04 ; ret  ;  (1 found)
0x00019c1e: add al, 0x04 ; add al, 0x04 ; add al, 0x04 ; ret  ;  (1 found)
0x00019c20: add al, 0x04 ; add al, 0x04 ; ret  ;  (1 found)
0x0000079e: add al, 0x04 ; add byte [eax], al ; pop ebx ; pop esi ; ret  ;  (1 found)
0x00019c22: add al, 0x04 ; ret  ;  (1 found)
0x0001690c: add al, 0x05 ; add dword [eax+ecx], eax ; add eax, 0x11000704 ; sbb dword [edi-0x55], edx ; ret  ;  (1 found)
0x00016a6a: add al, 0x05 ; or eax, 0x15160E0E ; dec eax ; lodsb  ; ret  ;  (1 found)
0x000149a4: add al, 0x05 ; pop es ; or eax, 0xD6B74514 ; ret  ;  (1 found)
0x00016912: add al, 0x07 ; add byte [ecx], dl ; sbb dword [edi-0x55], edx ; ret  ;  (1 found)
0x0001690f: add al, 0x08 ; add eax, 0x11000704 ; sbb dword [edi-0x55], edx ; ret  ;  (1 found)
0x00008323: add al, 0x08 ; retn 0x99EB ;  (1 found)
0x00007f95: add al, 0x08 ; retn 0xAEEB ;  (1 found)
0x00007ddd: add al, 0x08 ; retn 0xB60F ;  (1 found)
0x00016908: add al, 0x09 ; or cl, byte [edx] ; add al, 0x05 ; add dword [eax+ecx], eax ; add eax, 0x11000704 ; sbb dword [edi-0x55], edx ; ret  ;  (1 found)
0x000167ad: add al, 0x0A ; retn 0x0A02 ;  (1 found)
0x000152f8: add al, 0x0B ; add byte [edx], cl ; sub dword [0xA8B27763], ebp ; mov bl, 0xB7 ; retn 0xC202 ;  (1 found)
0x00016a12: add al, 0x10 ; add byte [0xEAE6E8D6+esi*2], cl ; out 0xDA, al ; retn 0x3DA8 ;  (1 found)
0x000167f1: add al, 0x10 ; push esp ; scasd  ; rol byte [edx], cl ; rol byte [eax], cl ; push es ; retn 0xA8B7 ;  (1 found)
0x00000667: add al, 0x24 ; add al, byte [eax] ; add byte [eax], al ; call dword [0x0094D3DC] ;  (1 found)
0x00000647: add al, 0x24 ; add dword [eax], eax ; add byte [eax], al ; call dword [0x0094D3DC] ;  (1 found)
0x000006aa: add al, 0x24 ; call dword [0x0094D3F0] ;  (1 found)
0x0000068a: add al, 0x24 ; call dword [0x0094D400] ;  (1 found)
0x0000484a: add al, 0x24 ; call dword [ebx+0x14] ;  (1 found)
0x0000af27: add al, 0x24 ; fldcw word [esp] ; frndint  ; fldcw word [esp+0x02] ; pop eax ; ret  ;  (1 found)
0x0000053c: add al, 0x24 ; or eax, dword [eax] ; add byte [eax], al ; lea esi, dword [esi+0x00000000] ; lea edi, dword [edi+0x00000000] ; call eax ;  (1 found)
0x00014948: add al, 0x2F ; add byte [esi], cl ; xor eax, 0xD2D1CB7B ; int3  ; ret  ;  (1 found)
0x00006d7f: add al, 0x31 ; shl byte [esi-0x7B], cl ; ror byte [edi], 0xFFFFFF95 ; retn 0xC483 ;  (1 found)
0x0000abeb: add al, 0x5D ; ret  ;  (1 found)
0x00013544: add al, 0x7F ; add byte [eax], dl ; xor dword [edi], 0x8B878686 ; mov dx, ds ; retn 0x3873 ;  (1 found)
0x00009971: add al, 0x81 ; retn 0x0406 ;  (1 found)
0x0000a872: add al, 0x81 ; retn 0x3840 ;  (1 found)
0x00007dcc: add al, 0x88 ; retn 0xE280 ;  (1 found)
0x00007f3d: add al, 0x88 ; retn 0xE280 ;  (1 found)
0x00004848: add al, 0x89 ; add al, 0x24 ; call dword [ebx+0x14] ;  (1 found)
0x00006df5: add al, 0x89 ; fadd dword [ebx+0x5E5B24C4] ; ret  ;  (1 found)
0x0000ab60: add al, 0x89 ; in al, dx ; pop ebp ; ret  ;  (1 found)
0x0000728b: add al, 0x89 ; ret  ;  (1 found)
0x0000723d: add al, 0x89 ; ret  ;  (1 found)
0x0000643f: add al, 0x89 ; ret  ;  (1 found)
0x00001478: add al, 0xB5 ; and byte [eax+0x47], al ; add byte [ebx+0x5E5B14C4], al ; ret  ;  (1 found)
0x0000150d: add al, 0xB5 ; and byte [eax+0x47], al ; add byte [ebx+0x5E5B14C4], al ; ret  ;  (1 found)
0x00013282: add al, 0xB7 ; add dh, byte [ebp+0x0E00C202] ; ret  ;  (1 found)
0x00001198: add al, 0xB8 ; add dword [eax], eax ; add byte [eax], al ; add esp, 0x08 ; pop ebx ; ret  ;  (1 found)
0x00016a62: add al, 0xD3 ; add eax, dword [edx+eax] ; add eax, 0x05041200 ; or eax, 0x15160E0E ; dec eax ; lodsb  ; ret  ;  (1 found)
0x0000ad8e: add al, 0xD7 ; inc eax ; add byte [ecx-0x2F5EE3BD], cl ; ret  ;  (1 found)
0x00018c02: add al, 0xE4 ; sub edx, esp ; add ebp, edi ; add dword [esi-0x02FF0000], edx ; call dword [esi-0x02FE694A] ;  (1 found)
0x00007385: add al, 0xE8 ; and eax, 0x83000036 ; in al, dx ; or al, 0x89 ; ret  ;  (1 found)
0x00000c06: add al, 0xE8 ; in al, 0xA3 ; add byte [eax], al ; add esp, 0x00000134 ; pop ebx ; pop esi ; ret  ;  (1 found)
0x000170b4: add al, 0xEC ; add byte [0xD6E3E8EC+ebp*8], cl ; ret  ;  (1 found)
0x0001819c: add al, 0xEF ; add byte [edi], al ; in al, dx ; ret  ;  (1 found)
0x0001819b: add al, 0xEF ; add byte [edi], al ; in al, dx ; ret  ;  (1 found)
0x000185c2: add al, 0xFA ; add byte [ebx], cl ; div esp ; out dx, eax ; out dx, al ; retn 0xA7EB ;  (1 found)
0x00016a66: add al, byte [0x05041200] ; or eax, 0x15160E0E ; dec eax ; lodsb  ; ret  ;  (1 found)
0x00014d32: add al, byte [0x0E000702] ; inc ecx ; pop esp ; ret  ;  (1 found)
0x00014b6e: add al, byte [eax+eax] ; or al, 0x05 ; pop es ; push cs ; inc ecx ; push ecx ; ret  ;  (1 found)
0x000149a1: add al, byte [eax] ; adc al, byte [0x45140D07+eax] ; mov bh, 0xD6 ; ret  ;  (1 found)
0x00000669: add al, byte [eax] ; add byte [eax], al ; call dword [0x0094D3DC] ;  (1 found)
0x00002e85: add al, byte [eax] ; add byte [ebp-0x7EF48A13], al ; les ebx,  [edx+eax+0x00] ; add byte [ebx+0x5E], bl ; pop edi ; pop ebp ; ret  ;  (1 found)
0x0000a2e4: add al, byte [eax] ; add byte [ebx+0x023024B4], cl ; add byte [eax], al ; mov edi, dword [esp+0x00000234] ; mov ebp, dword [esp+0x00000238] ; add esp, 0x0000023C ; retn 0x0010 ;  (1 found)
0x0000a29a: add al, byte [eax] ; add byte [ebx+0x023424BC], cl ; add byte [eax], al ; mov ebp, dword [esp+0x00000238] ; add esp, 0x0000023C ; retn 0x0010 ;  (1 found)
0x0000a2eb: add al, byte [eax] ; add byte [ebx+0x023424BC], cl ; add byte [eax], al ; mov ebp, dword [esp+0x00000238] ; add esp, 0x0000023C ; retn 0x0010 ;  (1 found)
0x0000a2a1: add al, byte [eax] ; add byte [ebx+0x023824AC], cl ; add byte [eax], al ; add esp, 0x0000023C ; retn 0x0010 ;  (1 found)
0x0000a2f2: add al, byte [eax] ; add byte [ebx+0x023824AC], cl ; add byte [eax], al ; add esp, 0x0000023C ; retn 0x0010 ;  (1 found)
0x00000f7f: add al, byte [eax] ; add byte [ebx+0x5E], bl ; pop edi ; pop ebp ; ret  ;  (1 found)
0x00001eec: add al, byte [eax] ; add byte [ebx+0x5E], bl ; pop edi ; pop ebp ; ret  ;  (1 found)
0x00002592: add al, byte [eax] ; add byte [ebx+0x5E], bl ; pop edi ; pop ebp ; ret  ;  (1 found)
0x00002e8f: add al, byte [eax] ; add byte [ebx+0x5E], bl ; pop edi ; pop ebp ; ret  ;  (1 found)
0x00003104: add al, byte [eax] ; add byte [ebx+0x5E], bl ; pop edi ; pop ebp ; ret  ;  (1 found)
0x00002f4f: add al, byte [eax] ; add byte [ebx+0x5E], bl ; pop edi ; pop ebp ; ret  ;  (1 found)
0x000032b4: add al, byte [eax] ; add byte [ebx+0x5E], bl ; pop edi ; pop ebp ; ret  ;  (1 found)
0x000029ac: add al, byte [eax] ; add byte [ecx-0x74EBDBAC], cl ; and dword [edx+eax-0x74B9FFB8], 0xFFFFFF93 ; mov al, byte [0x81004802] ; ret  ;  (1 found)
0x0000267c: add al, byte [eax] ; add byte [ecx-0x74EBDBAC], cl ; mov esp, dword [edx+eax-0x74B9FFB8] ; xchg eax, ebx ; mov al, byte [0x81004802] ; ret  ;  (1 found)
0x00004f4c: add al, byte [eax] ; pop ebx ; pop esi ; pop edi ; ret  ;  (1 found)
0x00014d2f: add al, byte [ecx] ; add al, 0x02 ; add eax, 0x0E000702 ; inc ecx ; pop esp ; ret  ;  (1 found)
0x00014f06: add al, byte [edi] ; add byte [esi], cl ; adc bl, byte [edx] ; sahf  ; retn 0xC3C5 ;  (1 found)
0x00014d34: add al, byte [edi] ; add byte [esi], cl ; inc ecx ; pop esp ; ret  ;  (1 found)
0x00014f02: add al, byte [edi] ; add eax, dword [0x0E000702] ; adc bl, byte [edx] ; sahf  ; retn 0xC3C5 ;  (1 found)
0x000152f4: add al, byte [edx+eax] ; or dword [ebx+ecx], eax ; add byte [edx], cl ; sub dword [0xA8B27763], ebp ; mov bl, 0xB7 ; retn 0xC202 ;  (1 found)
0x0001499f: add al, byte [esi] ; add al, byte [eax] ; adc al, byte [0x45140D07+eax] ; mov bh, 0xD6 ; ret  ;  (1 found)
0x00007235: add al, ch ; and eax, 0x83000040 ; in al, dx ; add al, 0x89 ; ret  ;  (1 found)
0x000010de: add al, ch ; cld  ; mov al, byte [0xEC830000] ; adc byte [ebx+0x5F5B24C4], al ; ret  ;  (1 found)
0x0000ab9f: add al, ch ; fistp dword [edx-0x01] ; dec dword [ebx-0x137603A3] ; pop ebp ; ret  ;  (1 found)
0x0000172e: add al, ch ; int3  ; cwde  ; add byte [eax], al ; mov eax, 0x00474040 ; add esp, 0x1C ; ret  ;  (1 found)
0x00000672: add al, ch ; push 0x89FFFFFF ; in al, dx ; xor eax, eax ; pop ebp ; ret  ;  (1 found)
0x000050ec: add al, ch ; push ds ; ret  ;  (1 found)
0x000010a1: add al, ch ; sbb dword [edi-0x3B7D0000], ebx ; and al, 0x5B ; pop edi ; ret  ;  (1 found)
0x00013286: add al, dl ; add byte [esi], cl ; ret  ;  (1 found)
0x00018364: add bh, ah ; add byte [edi+esi*8], dl ; cmc  ; hlt  ; div edx ; in al, dx ; ret  ;  (1 found)
0x00010cd7: add bh, al ; enter 0x00D0, 0xCC ; int3  ; rol byte [eax], cl ; ret  ;  (1 found)
0x0000ad61: add bh, al ; inc ebx ; or byte [eax], al ; mov eax, 0xC0A10040 ; ret  ;  (1 found)
0x0001b3bc: add bh, bh ; add byte [eax], al ; add bh, bh ; xor esi, dword [edi+0x00] ; jmp dword [esi+0x00] ;  (1 found)
0x0001bce4: add bh, bh ; add byte [eax], al ; add bh, bh ; xor esi, dword [edi+0x00] ; jmp dword [esi+0x00] ;  (1 found)
0x0001c60c: add bh, bh ; add byte [eax], al ; add bh, bh ; xor esi, dword [edi+0x00] ; jmp dword [esi+0x00] ;  (1 found)
0x0001b643: add bh, bh ; add byte [eax], al ; jmp dword [esi+0x33] ;  (1 found)
0x0001bf6b: add bh, bh ; add byte [eax], al ; jmp dword [esi+0x33] ;  (1 found)
0x0001c893: add bh, bh ; add byte [eax], al ; jmp dword [esi+0x33] ;  (1 found)
0x0001b68b: add bh, bh ; inc dword [eax] ; add bh, bh ; push dword [ebx] ; add bh, bh ; jmp dword [esi+0x00] ;  (1 found)
0x0001bfb3: add bh, bh ; inc dword [eax] ; add bh, bh ; push dword [ebx] ; add bh, bh ; jmp dword [esi+0x00] ;  (1 found)
0x0001c8db: add bh, bh ; inc dword [eax] ; add bh, bh ; push dword [ebx] ; add bh, bh ; jmp dword [esi+0x00] ;  (1 found)
0x0001b693: add bh, bh ; jmp dword [esi+0x00] ;  (1 found)
0x0001bfbb: add bh, bh ; jmp dword [esi+0x00] ;  (1 found)
0x0001c8e3: add bh, bh ; jmp dword [esi+0x00] ;  (1 found)
0x0001b68f: add bh, bh ; push dword [ebx] ; add bh, bh ; jmp dword [esi+0x00] ;  (1 found)
0x0001bfb7: add bh, bh ; push dword [ebx] ; add bh, bh ; jmp dword [esi+0x00] ;  (1 found)
0x0001c8df: add bh, bh ; push dword [ebx] ; add bh, bh ; jmp dword [esi+0x00] ;  (1 found)
0x0001b647: add bh, bh ; xor ax, word [eax] ; jmp dword [esi+0x66] ;  (1 found)
0x0001bf6f: add bh, bh ; xor ax, word [eax] ; jmp dword [esi+0x66] ;  (1 found)
0x0001c897: add bh, bh ; xor ax, word [eax] ; jmp dword [esi+0x66] ;  (1 found)
0x0001b636: add bh, bh ; xor ebx, dword [ecx-0x33CC0100] ; add bh, bh ; xor edi, edi ; add bh, bh ; add byte [eax], al ; jmp dword [esi+0x33] ;  (1 found)
0x0001b637: add bh, bh ; xor ebx, dword [ecx-0x33CC0100] ; add bh, bh ; xor edi, edi ; add bh, bh ; add byte [eax], al ; jmp dword [esi+0x33] ;  (1 found)
0x0001bf5f: add bh, bh ; xor ebx, dword [ecx-0x33CC0100] ; add bh, bh ; xor edi, edi ; add bh, bh ; add byte [eax], al ; jmp dword [esi+0x33] ;  (1 found)
0x0001bf5e: add bh, bh ; xor ebx, dword [ecx-0x33CC0100] ; add bh, bh ; xor edi, edi ; add bh, bh ; add byte [eax], al ; jmp dword [esi+0x33] ;  (1 found)
0x0001c886: add bh, bh ; xor ebx, dword [ecx-0x33CC0100] ; add bh, bh ; xor edi, edi ; add bh, bh ; add byte [eax], al ; jmp dword [esi+0x33] ;  (1 found)
0x0001c887: add bh, bh ; xor ebx, dword [ecx-0x33CC0100] ; add bh, bh ; xor edi, edi ; add bh, bh ; add byte [eax], al ; jmp dword [esi+0x33] ;  (1 found)
0x0001b63b: add bh, bh ; xor ecx, esp ; add bh, bh ; xor edi, edi ; add bh, bh ; add byte [eax], al ; jmp dword [esi+0x33] ;  (1 found)
0x0001bf63: add bh, bh ; xor ecx, esp ; add bh, bh ; xor edi, edi ; add bh, bh ; add byte [eax], al ; jmp dword [esi+0x33] ;  (1 found)
0x0001c88b: add bh, bh ; xor ecx, esp ; add bh, bh ; xor edi, edi ; add bh, bh ; add byte [eax], al ; jmp dword [esi+0x33] ;  (1 found)
0x0001b63f: add bh, bh ; xor edi, edi ; add bh, bh ; add byte [eax], al ; jmp dword [esi+0x33] ;  (1 found)
0x0001bf67: add bh, bh ; xor edi, edi ; add bh, bh ; add byte [eax], al ; jmp dword [esi+0x33] ;  (1 found)
0x0001c88f: add bh, bh ; xor edi, edi ; add bh, bh ; add byte [eax], al ; jmp dword [esi+0x33] ;  (1 found)
0x0001b3c0: add bh, bh ; xor esi, dword [edi+0x00] ; jmp dword [esi+0x00] ;  (1 found)
0x0001bce8: add bh, bh ; xor esi, dword [edi+0x00] ; jmp dword [esi+0x00] ;  (1 found)
0x0001c610: add bh, bh ; xor esi, dword [edi+0x00] ; jmp dword [esi+0x00] ;  (1 found)
0x00007e0f: add bh, byte [0x5B0003C6] ; pop esi ; pop edi ; ret  ;  (1 found)
0x000152ae: add bh, byte [ebp+0x01] ; push 0x00000006 ; xchg eax, edi ; add byte [esi], cl ; movsb  ; mov ebp, 0xC9C9C8C6 ; ret  ;  (1 found)
0x0001448a: add bh, byte [ebx+0x00] ; sbb bl, cl ; rol ebp, cl ; retn 0x5CC2 ;  (1 found)
0x0001735c: add bh, byte [ecx+0x0E00BC03] ; mov cl, 0xB0 ; mov esp, 0xC3C1C1BE ; retn 0xD1C3 ;  (1 found)
0x0000aafd: add bh, byte [ecx] ; fstenv  [edx-0x12] ; pop ebx ; pop esi ; pop ebp ; ret  ;  (1 found)
0x0000ad85: add bh, dl ; inc eax ; add byte [ecx+0x158B1853], cl ; add al, 0xD7 ; inc eax ; add byte [ecx-0x2F5EE3BD], cl ; ret  ;  (1 found)
0x00010cdf: add bl, al ; ret  ;  (1 found)
0x00010cd3: add bl, al ; ret  ;  (1 found)
0x00014aaa: add bl, bl ; add dl, ch ; add byte [eax], dl ; aam 0xE6 ; fcmovu st0, st2 ; retn 0xAAC2 ;  (1 found)
0x0001a62f: add byte [0x1B0000FF], ah ; retn 0x0000 ;  (1 found)
0x0001331a: add byte [0x2F28272A], bl ; xor al, byte [eax+0x6A818280] ; mov edi, dword [ebx-0x4A] ; retn 0xC3C2 ;  (1 found)
0x00014b70: add byte [0x51410E07+eax], cl ; ret  ;  (1 found)
0x0001730c: add byte [0xC0BF9EAB], ah ; mov cl, 0xB0 ; ret  ;  (1 found)
0x00016afc: add byte [0xC3A6510F], cl ; salc  ; salc  ; retn 0xA8A6 ;  (1 found)
0x000170b6: add byte [0xD6E3E8EC+ebp*8], cl ; ret  ;  (1 found)
0x00014162: add byte [0xDAEAEEF0], cl ; retn 0xB5B5 ;  (1 found)
0x00016a14: add byte [0xEAE6E8D6+esi*2], cl ; out 0xDA, al ; retn 0x3DA8 ;  (1 found)
0x0000a0ff: add byte [eax+0x00000001], bh ; add esp, 0x00000110 ; pop ebx ; pop esi ; pop edi ; ret  ;  (1 found)
0x000083ab: add byte [eax+0x00000001], bh ; add esp, 0x10 ; pop ebx ; pop esi ; pop edi ; ret  ;  (1 found)
0x0000830f: add byte [eax+0x00000001], bh ; add esp, 0x7C ; pop ebx ; pop esi ; pop edi ; pop ebp ; ret  ;  (1 found)
0x0000a55f: add byte [eax+0x00000001], bh ; mov ebx, dword [esp+0x000000C0] ; mov esi, dword [esp+0x000000C4] ; mov edi, dword [esp+0x000000C8] ; add esp, 0x000000CC ; retn 0x0010 ;  (1 found)
0x0000a70f: add byte [eax+0x00000001], bh ; mov ebx, dword [esp+0x20] ; mov esi, dword [esp+0x24] ; mov edi, dword [esp+0x28] ; add esp, 0x2C ; retn 0x0010 ;  (1 found)
0x0000906f: add byte [eax+0x00000001], bh ; mov esi, dword [esp+0x00002430] ; mov edi, dword [esp+0x00002434] ; mov ebp, dword [esp+0x00002438] ; add esp, 0x0000243C ; ret  ;  (1 found)
0x00002a1d: add byte [eax+0x00000001], bh ; pop ebx ; pop esi ; pop edi ; pop ebp ; ret  ;  (1 found)
0x000092cd: add byte [eax+0x00000001], bh ; pop ebx ; pop esi ; pop edi ; pop ebp ; ret  ;  (1 found)
0x00001733: add byte [eax+0x00474040], bh ; add esp, 0x1C ; ret  ;  (1 found)
0x00001aa5: add byte [eax+0x00940338], bh ; pop ebx ; pop esi ; pop edi ; pop ebp ; ret  ;  (1 found)
0x00007e08: add byte [eax+0x015A8D07], cl ; mov byte [edx], 0x0000003D ; mov byte [ebx], 0x00000000 ; pop ebx ; pop esi ; pop edi ; ret  ;  (1 found)
0x000167f0: add byte [eax+edx], al ; push esp ; scasd  ; rol byte [edx], cl ; rol byte [eax], cl ; push es ; retn 0xA8B7 ;  (1 found)
0x0001b733: add byte [eax-0x02FFED21], al ; ret  ;  (1 found)
0x0001c05b: add byte [eax-0x02FFED21], al ; ret  ;  (1 found)
0x0001c983: add byte [eax-0x02FFED21], al ; ret  ;  (1 found)
0x0000ad65: add byte [eax-0x3F5EFFC0], bh ; ret  ;  (1 found)
0x000136e4: add byte [eax-0x73737479], 0xFFFFFFCA ; mov sp, cs ; ret  ;  (1 found)
0x00013321: add byte [eax-0x74957E7E], 0x0000007B ; mov dh, 0xC2 ; retn 0xB5C3 ;  (1 found)
0x00002f49: add byte [eax], 0x00000000 ; add esp, 0x0000025C ; pop ebx ; pop esi ; pop edi ; pop ebp ; ret  ;  (1 found)
0x00000711: add byte [eax], al ; adc dword [esi+0x00000634], ecx ; mov ebx, dword [esp+0x14] ; mov esi, dword [esp+0x18] ; add esp, 0x1C ; ret  ;  (1 found)
0x00000794: add byte [eax], al ; adc dword [esi+0x00000634], edx ; add esp, 0x00000404 ; pop ebx ; pop esi ; ret  ;  (1 found)
0x00007233: add byte [eax], al ; add al, ch ; and eax, 0x83000040 ; in al, dx ; add al, 0x89 ; ret  ;  (1 found)
0x000010dc: add byte [eax], al ; add al, ch ; cld  ; mov al, byte [0xEC830000] ; adc byte [ebx+0x5F5B24C4], al ; ret  ;  (1 found)
0x0000ad5f: add byte [eax], al ; add bh, al ; inc ebx ; or byte [eax], al ; mov eax, 0xC0A10040 ; ret  ;  (1 found)
0x0001b3be: add byte [eax], al ; add bh, bh ; xor esi, dword [edi+0x00] ; jmp dword [esi+0x00] ;  (1 found)
0x0001bce6: add byte [eax], al ; add bh, bh ; xor esi, dword [edi+0x00] ; jmp dword [esi+0x00] ;  (1 found)
0x0001c60e: add byte [eax], al ; add bh, bh ; xor esi, dword [edi+0x00] ; jmp dword [esi+0x00] ;  (1 found)
0x0000a55d: add byte [eax], al ; add byte [eax+0x00000001], bh ; mov ebx, dword [esp+0x000000C0] ; mov esi, dword [esp+0x000000C4] ; mov edi, dword [esp+0x000000C8] ; add esp, 0x000000CC ; retn 0x0010 ;  (1 found)
0x0000a70d: add byte [eax], al ; add byte [eax+0x00000001], bh ; mov ebx, dword [esp+0x20] ; mov esi, dword [esp+0x24] ; mov edi, dword [esp+0x28] ; add esp, 0x2C ; retn 0x0010 ;  (1 found)
0x0000bed5: add byte [eax], al ; add byte [eax], al ; add byte [eax], al ; add byte [eax], al ; add byte [eax], al ; add byte [eax], dh ; retn 0x0040 ;  (1 found)
0x0000bed7: add byte [eax], al ; add byte [eax], al ; add byte [eax], al ; add byte [eax], al ; add byte [eax], dh ; retn 0x0040 ;  (1 found)
0x00010d34: add byte [eax], al ; add byte [eax], al ; add byte [eax], al ; add byte [eax], al ; call dword [esi+0x000096B9] ;  (1 found)
0x0000a9b8: add byte [eax], al ; add byte [eax], al ; add byte [eax], al ; add byte [eax], al ; jmp dword [0x0094D334] ;  (1 found)
0x0000a9a8: add byte [eax], al ; add byte [eax], al ; add byte [eax], al ; add byte [eax], al ; jmp dword [0x0094D338] ;  (1 found)
0x0000a998: add byte [eax], al ; add byte [eax], al ; add byte [eax], al ; add byte [eax], al ; jmp dword [0x0094D33C] ;  (1 found)
0x0000a9c8: add byte [eax], al ; add byte [eax], al ; add byte [eax], al ; add byte [eax], al ; jmp dword [0x0094D348] ;  (1 found)
0x0000a978: add byte [eax], al ; add byte [eax], al ; add byte [eax], al ; add byte [eax], al ; jmp dword [0x0094D354] ;  (1 found)
0x0000a988: add byte [eax], al ; add byte [eax], al ; add byte [eax], al ; add byte [eax], al ; jmp dword [0x0094D358] ;  (1 found)
0x0000b598: add byte [eax], al ; add byte [eax], al ; add byte [eax], al ; add byte [eax], al ; jmp dword [0x0094D364] ;  (1 found)
0x0000b528: add byte [eax], al ; add byte [eax], al ; add byte [eax], al ; add byte [eax], al ; jmp dword [0x0094D368] ;  (1 found)
0x0000b478: add byte [eax], al ; add byte [eax], al ; add byte [eax], al ; add byte [eax], al ; jmp dword [0x0094D36C] ;  (1 found)
0x0000b4a8: add byte [eax], al ; add byte [eax], al ; add byte [eax], al ; add byte [eax], al ; jmp dword [0x0094D370] ;  (1 found)
0x0000b4b8: add byte [eax], al ; add byte [eax], al ; add byte [eax], al ; add byte [eax], al ; jmp dword [0x0094D374] ;  (1 found)
0x0000b588: add byte [eax], al ; add byte [eax], al ; add byte [eax], al ; add byte [eax], al ; jmp dword [0x0094D378] ;  (1 found)
0x0000b498: add byte [eax], al ; add byte [eax], al ; add byte [eax], al ; add byte [eax], al ; jmp dword [0x0094D37C] ;  (1 found)
0x0000b4c8: add byte [eax], al ; add byte [eax], al ; add byte [eax], al ; add byte [eax], al ; jmp dword [0x0094D380] ;  (1 found)
0x0000b578: add byte [eax], al ; add byte [eax], al ; add byte [eax], al ; add byte [eax], al ; jmp dword [0x0094D384] ;  (1 found)
0x0000b548: add byte [eax], al ; add byte [eax], al ; add byte [eax], al ; add byte [eax], al ; jmp dword [0x0094D388] ;  (1 found)
0x0000b4d8: add byte [eax], al ; add byte [eax], al ; add byte [eax], al ; add byte [eax], al ; jmp dword [0x0094D38C] ;  (1 found)
0x0000b538: add byte [eax], al ; add byte [eax], al ; add byte [eax], al ; add byte [eax], al ; jmp dword [0x0094D390] ;  (1 found)
0x0000b488: add byte [eax], al ; add byte [eax], al ; add byte [eax], al ; add byte [eax], al ; jmp dword [0x0094D394] ;  (1 found)
0x0000b568: add byte [eax], al ; add byte [eax], al ; add byte [eax], al ; add byte [eax], al ; jmp dword [0x0094D398] ;  (1 found)
0x0000b558: add byte [eax], al ; add byte [eax], al ; add byte [eax], al ; add byte [eax], al ; jmp dword [0x0094D39C] ;  (1 found)
0x0000b4e8: add byte [eax], al ; add byte [eax], al ; add byte [eax], al ; add byte [eax], al ; jmp dword [0x0094D3A0] ;  (1 found)
0x0000b4f8: add byte [eax], al ; add byte [eax], al ; add byte [eax], al ; add byte [eax], al ; jmp dword [0x0094D3A4] ;  (1 found)
0x0000b508: add byte [eax], al ; add byte [eax], al ; add byte [eax], al ; add byte [eax], al ; jmp dword [0x0094D3A8] ;  (1 found)
0x0000b468: add byte [eax], al ; add byte [eax], al ; add byte [eax], al ; add byte [eax], al ; jmp dword [0x0094D3AC] ;  (1 found)
0x0000b518: add byte [eax], al ; add byte [eax], al ; add byte [eax], al ; add byte [eax], al ; jmp dword [0x0094D3B0] ;  (1 found)
0x0000aee8: add byte [eax], al ; add byte [eax], al ; add byte [eax], al ; add byte [eax], al ; jmp dword [0x0094D3BC] ;  (1 found)
0x0000aef8: add byte [eax], al ; add byte [eax], al ; add byte [eax], al ; add byte [eax], al ; jmp dword [0x0094D3C4] ;  (1 found)
0x0000afa8: add byte [eax], al ; add byte [eax], al ; add byte [eax], al ; add byte [eax], al ; jmp dword [0x0094D3D0] ;  (1 found)
0x0000af58: add byte [eax], al ; add byte [eax], al ; add byte [eax], al ; add byte [eax], al ; jmp dword [0x0094D3D4] ;  (1 found)
0x0000af78: add byte [eax], al ; add byte [eax], al ; add byte [eax], al ; add byte [eax], al ; jmp dword [0x0094D3D8] ;  (1 found)
0x0000afb8: add byte [eax], al ; add byte [eax], al ; add byte [eax], al ; add byte [eax], al ; jmp dword [0x0094D3E0] ;  (1 found)
0x0000af48: add byte [eax], al ; add byte [eax], al ; add byte [eax], al ; add byte [eax], al ; jmp dword [0x0094D3E4] ;  (1 found)
0x0000af88: add byte [eax], al ; add byte [eax], al ; add byte [eax], al ; add byte [eax], al ; jmp dword [0x0094D3E8] ;  (1 found)
0x0000af98: add byte [eax], al ; add byte [eax], al ; add byte [eax], al ; add byte [eax], al ; jmp dword [0x0094D3F4] ;  (1 found)
0x0000b1b8: add byte [eax], al ; add byte [eax], al ; add byte [eax], al ; add byte [eax], al ; jmp dword [0x0094D3F8] ;  (1 found)
0x0000b198: add byte [eax], al ; add byte [eax], al ; add byte [eax], al ; add byte [eax], al ; jmp dword [0x0094D3FC] ;  (1 found)
0x0000b128: add byte [eax], al ; add byte [eax], al ; add byte [eax], al ; add byte [eax], al ; jmp dword [0x0094D404] ;  (1 found)
0x0000b018: add byte [eax], al ; add byte [eax], al ; add byte [eax], al ; add byte [eax], al ; jmp dword [0x0094D408] ;  (1 found)
0x0000b088: add byte [eax], al ; add byte [eax], al ; add byte [eax], al ; add byte [eax], al ; jmp dword [0x0094D40C] ;  (1 found)
0x0000b178: add byte [eax], al ; add byte [eax], al ; add byte [eax], al ; add byte [eax], al ; jmp dword [0x0094D410] ;  (1 found)
0x0000b078: add byte [eax], al ; add byte [eax], al ; add byte [eax], al ; add byte [eax], al ; jmp dword [0x0094D414] ;  (1 found)
0x0000b108: add byte [eax], al ; add byte [eax], al ; add byte [eax], al ; add byte [eax], al ; jmp dword [0x0094D418] ;  (1 found)
0x0000b118: add byte [eax], al ; add byte [eax], al ; add byte [eax], al ; add byte [eax], al ; jmp dword [0x0094D41C] ;  (1 found)
0x0000b098: add byte [eax], al ; add byte [eax], al ; add byte [eax], al ; add byte [eax], al ; jmp dword [0x0094D420] ;  (1 found)
0x0000b168: add byte [eax], al ; add byte [eax], al ; add byte [eax], al ; add byte [eax], al ; jmp dword [0x0094D424] ;  (1 found)
0x0000b058: add byte [eax], al ; add byte [eax], al ; add byte [eax], al ; add byte [eax], al ; jmp dword [0x0094D428] ;  (1 found)
0x0000b158: add byte [eax], al ; add byte [eax], al ; add byte [eax], al ; add byte [eax], al ; jmp dword [0x0094D42C] ;  (1 found)
0x0000b0f8: add byte [eax], al ; add byte [eax], al ; add byte [eax], al ; add byte [eax], al ; jmp dword [0x0094D430] ;  (1 found)
0x0000b0e8: add byte [eax], al ; add byte [eax], al ; add byte [eax], al ; add byte [eax], al ; jmp dword [0x0094D434] ;  (1 found)
0x0000b188: add byte [eax], al ; add byte [eax], al ; add byte [eax], al ; add byte [eax], al ; jmp dword [0x0094D438] ;  (1 found)
0x0000b048: add byte [eax], al ; add byte [eax], al ; add byte [eax], al ; add byte [eax], al ; jmp dword [0x0094D43C] ;  (1 found)
0x0000b138: add byte [eax], al ; add byte [eax], al ; add byte [eax], al ; add byte [eax], al ; jmp dword [0x0094D440] ;  (1 found)
0x0000b148: add byte [eax], al ; add byte [eax], al ; add byte [eax], al ; add byte [eax], al ; jmp dword [0x0094D444] ;  (1 found)
0x0000b0b8: add byte [eax], al ; add byte [eax], al ; add byte [eax], al ; add byte [eax], al ; jmp dword [0x0094D448] ;  (1 found)
0x0000b1a8: add byte [eax], al ; add byte [eax], al ; add byte [eax], al ; add byte [eax], al ; jmp dword [0x0094D44C] ;  (1 found)
0x0000af68: add byte [eax], al ; add byte [eax], al ; add byte [eax], al ; add byte [eax], al ; jmp dword [0x0094D450] ;  (1 found)
0x0000aff8: add byte [eax], al ; add byte [eax], al ; add byte [eax], al ; add byte [eax], al ; jmp dword [0x0094D454] ;  (1 found)
0x0000b028: add byte [eax], al ; add byte [eax], al ; add byte [eax], al ; add byte [eax], al ; jmp dword [0x0094D458] ;  (1 found)
0x0000b068: add byte [eax], al ; add byte [eax], al ; add byte [eax], al ; add byte [eax], al ; jmp dword [0x0094D45C] ;  (1 found)
0x0000b0c8: add byte [eax], al ; add byte [eax], al ; add byte [eax], al ; add byte [eax], al ; jmp dword [0x0094D460] ;  (1 found)
0x0000b0d8: add byte [eax], al ; add byte [eax], al ; add byte [eax], al ; add byte [eax], al ; jmp dword [0x0094D464] ;  (1 found)
0x0000afe8: add byte [eax], al ; add byte [eax], al ; add byte [eax], al ; add byte [eax], al ; jmp dword [0x0094D468] ;  (1 found)
0x0000b008: add byte [eax], al ; add byte [eax], al ; add byte [eax], al ; add byte [eax], al ; jmp dword [0x0094D46C] ;  (1 found)
0x0000afd8: add byte [eax], al ; add byte [eax], al ; add byte [eax], al ; add byte [eax], al ; jmp dword [0x0094D470] ;  (1 found)
0x0000afc8: add byte [eax], al ; add byte [eax], al ; add byte [eax], al ; add byte [eax], al ; jmp dword [0x0094D474] ;  (1 found)
0x0000b038: add byte [eax], al ; add byte [eax], al ; add byte [eax], al ; add byte [eax], al ; jmp dword [0x0094D478] ;  (1 found)
0x0000b0a8: add byte [eax], al ; add byte [eax], al ; add byte [eax], al ; add byte [eax], al ; jmp dword [0x0094D47C] ;  (1 found)
0x0000b5e8: add byte [eax], al ; add byte [eax], al ; add byte [eax], al ; add byte [eax], al ; jmp dword [0x0094D488] ;  (1 found)
0x0000b5a8: add byte [eax], al ; add byte [eax], al ; add byte [eax], al ; add byte [eax], al ; jmp dword [0x0094D48C] ;  (1 found)
0x0000b5c8: add byte [eax], al ; add byte [eax], al ; add byte [eax], al ; add byte [eax], al ; jmp dword [0x0094D490] ;  (1 found)
0x0000b5b8: add byte [eax], al ; add byte [eax], al ; add byte [eax], al ; add byte [eax], al ; jmp dword [0x0094D494] ;  (1 found)
0x0000b5f8: add byte [eax], al ; add byte [eax], al ; add byte [eax], al ; add byte [eax], al ; jmp dword [0x0094D498] ;  (1 found)
0x0000b5d8: add byte [eax], al ; add byte [eax], al ; add byte [eax], al ; add byte [eax], al ; jmp dword [0x0094D49C] ;  (1 found)
0x0000b338: add byte [eax], al ; add byte [eax], al ; add byte [eax], al ; add byte [eax], al ; jmp dword [0x0094D4A8] ;  (1 found)
0x0000b328: add byte [eax], al ; add byte [eax], al ; add byte [eax], al ; add byte [eax], al ; jmp dword [0x0094D4AC] ;  (1 found)
0x0000b378: add byte [eax], al ; add byte [eax], al ; add byte [eax], al ; add byte [eax], al ; jmp dword [0x0094D4B0] ;  (1 found)
0x0000b268: add byte [eax], al ; add byte [eax], al ; add byte [eax], al ; add byte [eax], al ; jmp dword [0x0094D4B4] ;  (1 found)
0x0000b2a8: add byte [eax], al ; add byte [eax], al ; add byte [eax], al ; add byte [eax], al ; jmp dword [0x0094D4B8] ;  (1 found)
0x0000b428: add byte [eax], al ; add byte [eax], al ; add byte [eax], al ; add byte [eax], al ; jmp dword [0x0094D4BC] ;  (1 found)
0x0000b3d8: add byte [eax], al ; add byte [eax], al ; add byte [eax], al ; add byte [eax], al ; jmp dword [0x0094D4C0] ;  (1 found)
0x0000b1c8: add byte [eax], al ; add byte [eax], al ; add byte [eax], al ; add byte [eax], al ; jmp dword [0x0094D4C4] ;  (1 found)
0x0000b208: add byte [eax], al ; add byte [eax], al ; add byte [eax], al ; add byte [eax], al ; jmp dword [0x0094D4C8] ;  (1 found)
0x0000b308: add byte [eax], al ; add byte [eax], al ; add byte [eax], al ; add byte [eax], al ; jmp dword [0x0094D4CC] ;  (1 found)
0x0000b238: add byte [eax], al ; add byte [eax], al ; add byte [eax], al ; add byte [eax], al ; jmp dword [0x0094D4D0] ;  (1 found)
0x0000b448: add byte [eax], al ; add byte [eax], al ; add byte [eax], al ; add byte [eax], al ; jmp dword [0x0094D4D4] ;  (1 found)
0x0000b438: add byte [eax], al ; add byte [eax], al ; add byte [eax], al ; add byte [eax], al ; jmp dword [0x0094D4D8] ;  (1 found)
0x0000b3a8: add byte [eax], al ; add byte [eax], al ; add byte [eax], al ; add byte [eax], al ; jmp dword [0x0094D4DC] ;  (1 found)
0x0000b2c8: add byte [eax], al ; add byte [eax], al ; add byte [eax], al ; add byte [eax], al ; jmp dword [0x0094D4E0] ;  (1 found)
0x0000b298: add byte [eax], al ; add byte [eax], al ; add byte [eax], al ; add byte [eax], al ; jmp dword [0x0094D4E4] ;  (1 found)
0x0000b1e8: add byte [eax], al ; add byte [eax], al ; add byte [eax], al ; add byte [eax], al ; jmp dword [0x0094D4E8] ;  (1 found)
0x0000b2d8: add byte [eax], al ; add byte [eax], al ; add byte [eax], al ; add byte [eax], al ; jmp dword [0x0094D4EC] ;  (1 found)
0x0000b408: add byte [eax], al ; add byte [eax], al ; add byte [eax], al ; add byte [eax], al ; jmp dword [0x0094D4F0] ;  (1 found)
0x0000b258: add byte [eax], al ; add byte [eax], al ; add byte [eax], al ; add byte [eax], al ; jmp dword [0x0094D4F4] ;  (1 found)
0x0000b2b8: add byte [eax], al ; add byte [eax], al ; add byte [eax], al ; add byte [eax], al ; jmp dword [0x0094D4F8] ;  (1 found)
0x0000b388: add byte [eax], al ; add byte [eax], al ; add byte [eax], al ; add byte [eax], al ; jmp dword [0x0094D4FC] ;  (1 found)
0x0000b3e8: add byte [eax], al ; add byte [eax], al ; add byte [eax], al ; add byte [eax], al ; jmp dword [0x0094D500] ;  (1 found)
0x0000b348: add byte [eax], al ; add byte [eax], al ; add byte [eax], al ; add byte [eax], al ; jmp dword [0x0094D504] ;  (1 found)
0x0000b418: add byte [eax], al ; add byte [eax], al ; add byte [eax], al ; add byte [eax], al ; jmp dword [0x0094D508] ;  (1 found)
0x0000b218: add byte [eax], al ; add byte [eax], al ; add byte [eax], al ; add byte [eax], al ; jmp dword [0x0094D50C] ;  (1 found)
0x0000b1d8: add byte [eax], al ; add byte [eax], al ; add byte [eax], al ; add byte [eax], al ; jmp dword [0x0094D510] ;  (1 found)
0x0000b288: add byte [eax], al ; add byte [eax], al ; add byte [eax], al ; add byte [eax], al ; jmp dword [0x0094D514] ;  (1 found)
0x0000b2f8: add byte [eax], al ; add byte [eax], al ; add byte [eax], al ; add byte [eax], al ; jmp dword [0x0094D518] ;  (1 found)
0x0000b3c8: add byte [eax], al ; add byte [eax], al ; add byte [eax], al ; add byte [eax], al ; jmp dword [0x0094D51C] ;  (1 found)
0x0000b3f8: add byte [eax], al ; add byte [eax], al ; add byte [eax], al ; add byte [eax], al ; jmp dword [0x0094D520] ;  (1 found)
0x0000b228: add byte [eax], al ; add byte [eax], al ; add byte [eax], al ; add byte [eax], al ; jmp dword [0x0094D524] ;  (1 found)
0x0000b248: add byte [eax], al ; add byte [eax], al ; add byte [eax], al ; add byte [eax], al ; jmp dword [0x0094D528] ;  (1 found)
0x0000b318: add byte [eax], al ; add byte [eax], al ; add byte [eax], al ; add byte [eax], al ; jmp dword [0x0094D52C] ;  (1 found)
0x0000b458: add byte [eax], al ; add byte [eax], al ; add byte [eax], al ; add byte [eax], al ; jmp dword [0x0094D530] ;  (1 found)
0x0000b368: add byte [eax], al ; add byte [eax], al ; add byte [eax], al ; add byte [eax], al ; jmp dword [0x0094D534] ;  (1 found)
0x0000b398: add byte [eax], al ; add byte [eax], al ; add byte [eax], al ; add byte [eax], al ; jmp dword [0x0094D538] ;  (1 found)
0x0000b2e8: add byte [eax], al ; add byte [eax], al ; add byte [eax], al ; add byte [eax], al ; jmp dword [0x0094D53C] ;  (1 found)
0x0000b358: add byte [eax], al ; add byte [eax], al ; add byte [eax], al ; add byte [eax], al ; jmp dword [0x0094D540] ;  (1 found)
0x0000b278: add byte [eax], al ; add byte [eax], al ; add byte [eax], al ; add byte [eax], al ; jmp dword [0x0094D544] ;  (1 found)
0x0000b3b8: add byte [eax], al ; add byte [eax], al ; add byte [eax], al ; add byte [eax], al ; jmp dword [0x0094D548] ;  (1 found)
0x0000b1f8: add byte [eax], al ; add byte [eax], al ; add byte [eax], al ; add byte [eax], al ; jmp dword [0x0094D54C] ;  (1 found)
0x0000a958: add byte [eax], al ; add byte [eax], al ; add byte [eax], al ; add byte [eax], al ; jmp dword [0x0094D558] ;  (1 found)
0x0000a908: add byte [eax], al ; add byte [eax], al ; add byte [eax], al ; add byte [eax], al ; jmp dword [0x0094D55C] ;  (1 found)
0x0000a8c8: add byte [eax], al ; add byte [eax], al ; add byte [eax], al ; add byte [eax], al ; jmp dword [0x0094D560] ;  (1 found)
0x0000a938: add byte [eax], al ; add byte [eax], al ; add byte [eax], al ; add byte [eax], al ; jmp dword [0x0094D564] ;  (1 found)
0x0000a8f8: add byte [eax], al ; add byte [eax], al ; add byte [eax], al ; add byte [eax], al ; jmp dword [0x0094D568] ;  (1 found)
0x0000a8d8: add byte [eax], al ; add byte [eax], al ; add byte [eax], al ; add byte [eax], al ; jmp dword [0x0094D56C] ;  (1 found)
0x0000a8a8: add byte [eax], al ; add byte [eax], al ; add byte [eax], al ; add byte [eax], al ; jmp dword [0x0094D570] ;  (1 found)
0x0000a898: add byte [eax], al ; add byte [eax], al ; add byte [eax], al ; add byte [eax], al ; jmp dword [0x0094D574] ;  (1 found)
0x0000a928: add byte [eax], al ; add byte [eax], al ; add byte [eax], al ; add byte [eax], al ; jmp dword [0x0094D578] ;  (1 found)
0x0000a8b8: add byte [eax], al ; add byte [eax], al ; add byte [eax], al ; add byte [eax], al ; jmp dword [0x0094D57C] ;  (1 found)
0x0000a948: add byte [eax], al ; add byte [eax], al ; add byte [eax], al ; add byte [eax], al ; jmp dword [0x0094D580] ;  (1 found)
0x0000a968: add byte [eax], al ; add byte [eax], al ; add byte [eax], al ; add byte [eax], al ; jmp dword [0x0094D584] ;  (1 found)
0x0000a8e8: add byte [eax], al ; add byte [eax], al ; add byte [eax], al ; add byte [eax], al ; jmp dword [0x0094D58C] ;  (1 found)
0x0000a918: add byte [eax], al ; add byte [eax], al ; add byte [eax], al ; add byte [eax], al ; jmp dword [0x0094D590] ;  (1 found)
0x0000bed9: add byte [eax], al ; add byte [eax], al ; add byte [eax], al ; add byte [eax], dh ; retn 0x0040 ;  (1 found)
0x00010d36: add byte [eax], al ; add byte [eax], al ; add byte [eax], al ; call dword [esi+0x000096B9] ;  (1 found)
0x0000a9ba: add byte [eax], al ; add byte [eax], al ; add byte [eax], al ; jmp dword [0x0094D334] ;  (1 found)
0x0000a9aa: add byte [eax], al ; add byte [eax], al ; add byte [eax], al ; jmp dword [0x0094D338] ;  (1 found)
0x0000a99a: add byte [eax], al ; add byte [eax], al ; add byte [eax], al ; jmp dword [0x0094D33C] ;  (1 found)
0x0000a9ca: add byte [eax], al ; add byte [eax], al ; add byte [eax], al ; jmp dword [0x0094D348] ;  (1 found)
0x0000a97a: add byte [eax], al ; add byte [eax], al ; add byte [eax], al ; jmp dword [0x0094D354] ;  (1 found)
0x0000a98a: add byte [eax], al ; add byte [eax], al ; add byte [eax], al ; jmp dword [0x0094D358] ;  (1 found)
0x0000b59a: add byte [eax], al ; add byte [eax], al ; add byte [eax], al ; jmp dword [0x0094D364] ;  (1 found)
0x0000b52a: add byte [eax], al ; add byte [eax], al ; add byte [eax], al ; jmp dword [0x0094D368] ;  (1 found)
0x0000b47a: add byte [eax], al ; add byte [eax], al ; add byte [eax], al ; jmp dword [0x0094D36C] ;  (1 found)
0x0000b4aa: add byte [eax], al ; add byte [eax], al ; add byte [eax], al ; jmp dword [0x0094D370] ;  (1 found)
0x0000b4ba: add byte [eax], al ; add byte [eax], al ; add byte [eax], al ; jmp dword [0x0094D374] ;  (1 found)
0x0000b58a: add byte [eax], al ; add byte [eax], al ; add byte [eax], al ; jmp dword [0x0094D378] ;  (1 found)
0x0000b49a: add byte [eax], al ; add byte [eax], al ; add byte [eax], al ; jmp dword [0x0094D37C] ;  (1 found)
0x0000b4ca: add byte [eax], al ; add byte [eax], al ; add byte [eax], al ; jmp dword [0x0094D380] ;  (1 found)
0x0000b57a: add byte [eax], al ; add byte [eax], al ; add byte [eax], al ; jmp dword [0x0094D384] ;  (1 found)
0x0000b54a: add byte [eax], al ; add byte [eax], al ; add byte [eax], al ; jmp dword [0x0094D388] ;  (1 found)
0x0000b4da: add byte [eax], al ; add byte [eax], al ; add byte [eax], al ; jmp dword [0x0094D38C] ;  (1 found)
0x0000b53a: add byte [eax], al ; add byte [eax], al ; add byte [eax], al ; jmp dword [0x0094D390] ;  (1 found)
0x0000b48a: add byte [eax], al ; add byte [eax], al ; add byte [eax], al ; jmp dword [0x0094D394] ;  (1 found)
0x0000b56a: add byte [eax], al ; add byte [eax], al ; add byte [eax], al ; jmp dword [0x0094D398] ;  (1 found)
0x0000b55a: add byte [eax], al ; add byte [eax], al ; add byte [eax], al ; jmp dword [0x0094D39C] ;  (1 found)
0x0000b4ea: add byte [eax], al ; add byte [eax], al ; add byte [eax], al ; jmp dword [0x0094D3A0] ;  (1 found)
0x0000b4fa: add byte [eax], al ; add byte [eax], al ; add byte [eax], al ; jmp dword [0x0094D3A4] ;  (1 found)
0x0000b50a: add byte [eax], al ; add byte [eax], al ; add byte [eax], al ; jmp dword [0x0094D3A8] ;  (1 found)
0x0000b46a: add byte [eax], al ; add byte [eax], al ; add byte [eax], al ; jmp dword [0x0094D3AC] ;  (1 found)
0x0000b51a: add byte [eax], al ; add byte [eax], al ; add byte [eax], al ; jmp dword [0x0094D3B0] ;  (1 found)
0x0000aeea: add byte [eax], al ; add byte [eax], al ; add byte [eax], al ; jmp dword [0x0094D3BC] ;  (1 found)
0x0000aefa: add byte [eax], al ; add byte [eax], al ; add byte [eax], al ; jmp dword [0x0094D3C4] ;  (1 found)
0x0000afaa: add byte [eax], al ; add byte [eax], al ; add byte [eax], al ; jmp dword [0x0094D3D0] ;  (1 found)
0x0000af5a: add byte [eax], al ; add byte [eax], al ; add byte [eax], al ; jmp dword [0x0094D3D4] ;  (1 found)
0x0000af7a: add byte [eax], al ; add byte [eax], al ; add byte [eax], al ; jmp dword [0x0094D3D8] ;  (1 found)
0x0000afba: add byte [eax], al ; add byte [eax], al ; add byte [eax], al ; jmp dword [0x0094D3E0] ;  (1 found)
0x0000af4a: add byte [eax], al ; add byte [eax], al ; add byte [eax], al ; jmp dword [0x0094D3E4] ;  (1 found)
0x0000af8a: add byte [eax], al ; add byte [eax], al ; add byte [eax], al ; jmp dword [0x0094D3E8] ;  (1 found)
0x0000af9a: add byte [eax], al ; add byte [eax], al ; add byte [eax], al ; jmp dword [0x0094D3F4] ;  (1 found)
0x0000b1ba: add byte [eax], al ; add byte [eax], al ; add byte [eax], al ; jmp dword [0x0094D3F8] ;  (1 found)
0x0000b19a: add byte [eax], al ; add byte [eax], al ; add byte [eax], al ; jmp dword [0x0094D3FC] ;  (1 found)
0x0000b12a: add byte [eax], al ; add byte [eax], al ; add byte [eax], al ; jmp dword [0x0094D404] ;  (1 found)
0x0000b01a: add byte [eax], al ; add byte [eax], al ; add byte [eax], al ; jmp dword [0x0094D408] ;  (1 found)
0x0000b08a: add byte [eax], al ; add byte [eax], al ; add byte [eax], al ; jmp dword [0x0094D40C] ;  (1 found)
0x0000b17a: add byte [eax], al ; add byte [eax], al ; add byte [eax], al ; jmp dword [0x0094D410] ;  (1 found)
0x0000b07a: add byte [eax], al ; add byte [eax], al ; add byte [eax], al ; jmp dword [0x0094D414] ;  (1 found)
0x0000b10a: add byte [eax], al ; add byte [eax], al ; add byte [eax], al ; jmp dword [0x0094D418] ;  (1 found)
0x0000b11a: add byte [eax], al ; add byte [eax], al ; add byte [eax], al ; jmp dword [0x0094D41C] ;  (1 found)
0x0000b09a: add byte [eax], al ; add byte [eax], al ; add byte [eax], al ; jmp dword [0x0094D420] ;  (1 found)
0x0000b16a: add byte [eax], al ; add byte [eax], al ; add byte [eax], al ; jmp dword [0x0094D424] ;  (1 found)
0x0000b05a: add byte [eax], al ; add byte [eax], al ; add byte [eax], al ; jmp dword [0x0094D428] ;  (1 found)
0x0000b15a: add byte [eax], al ; add byte [eax], al ; add byte [eax], al ; jmp dword [0x0094D42C] ;  (1 found)
0x0000b0fa: add byte [eax], al ; add byte [eax], al ; add byte [eax], al ; jmp dword [0x0094D430] ;  (1 found)
0x0000b0ea: add byte [eax], al ; add byte [eax], al ; add byte [eax], al ; jmp dword [0x0094D434] ;  (1 found)
0x0000b18a: add byte [eax], al ; add byte [eax], al ; add byte [eax], al ; jmp dword [0x0094D438] ;  (1 found)
0x0000b04a: add byte [eax], al ; add byte [eax], al ; add byte [eax], al ; jmp dword [0x0094D43C] ;  (1 found)
0x0000b13a: add byte [eax], al ; add byte [eax], al ; add byte [eax], al ; jmp dword [0x0094D440] ;  (1 found)
0x0000b14a: add byte [eax], al ; add byte [eax], al ; add byte [eax], al ; jmp dword [0x0094D444] ;  (1 found)
0x0000b0ba: add byte [eax], al ; add byte [eax], al ; add byte [eax], al ; jmp dword [0x0094D448] ;  (1 found)
0x0000b1aa: add byte [eax], al ; add byte [eax], al ; add byte [eax], al ; jmp dword [0x0094D44C] ;  (1 found)
0x0000af6a: add byte [eax], al ; add byte [eax], al ; add byte [eax], al ; jmp dword [0x0094D450] ;  (1 found)
0x0000affa: add byte [eax], al ; add byte [eax], al ; add byte [eax], al ; jmp dword [0x0094D454] ;  (1 found)
0x0000b02a: add byte [eax], al ; add byte [eax], al ; add byte [eax], al ; jmp dword [0x0094D458] ;  (1 found)
0x0000b06a: add byte [eax], al ; add byte [eax], al ; add byte [eax], al ; jmp dword [0x0094D45C] ;  (1 found)
0x0000b0ca: add byte [eax], al ; add byte [eax], al ; add byte [eax], al ; jmp dword [0x0094D460] ;  (1 found)
0x0000b0da: add byte [eax], al ; add byte [eax], al ; add byte [eax], al ; jmp dword [0x0094D464] ;  (1 found)
0x0000afea: add byte [eax], al ; add byte [eax], al ; add byte [eax], al ; jmp dword [0x0094D468] ;  (1 found)
0x0000b00a: add byte [eax], al ; add byte [eax], al ; add byte [eax], al ; jmp dword [0x0094D46C] ;  (1 found)
0x0000afda: add byte [eax], al ; add byte [eax], al ; add byte [eax], al ; jmp dword [0x0094D470] ;  (1 found)
0x0000afca: add byte [eax], al ; add byte [eax], al ; add byte [eax], al ; jmp dword [0x0094D474] ;  (1 found)
0x0000b03a: add byte [eax], al ; add byte [eax], al ; add byte [eax], al ; jmp dword [0x0094D478] ;  (1 found)
0x0000b0aa: add byte [eax], al ; add byte [eax], al ; add byte [eax], al ; jmp dword [0x0094D47C] ;  (1 found)
0x0000b5ea: add byte [eax], al ; add byte [eax], al ; add byte [eax], al ; jmp dword [0x0094D488] ;  (1 found)
0x0000b5aa: add byte [eax], al ; add byte [eax], al ; add byte [eax], al ; jmp dword [0x0094D48C] ;  (1 found)
0x0000b5ca: add byte [eax], al ; add byte [eax], al ; add byte [eax], al ; jmp dword [0x0094D490] ;  (1 found)
0x0000b5ba: add byte [eax], al ; add byte [eax], al ; add byte [eax], al ; jmp dword [0x0094D494] ;  (1 found)
0x0000b5fa: add byte [eax], al ; add byte [eax], al ; add byte [eax], al ; jmp dword [0x0094D498] ;  (1 found)
0x0000b5da: add byte [eax], al ; add byte [eax], al ; add byte [eax], al ; jmp dword [0x0094D49C] ;  (1 found)
0x0000b33a: add byte [eax], al ; add byte [eax], al ; add byte [eax], al ; jmp dword [0x0094D4A8] ;  (1 found)
0x0000b32a: add byte [eax], al ; add byte [eax], al ; add byte [eax], al ; jmp dword [0x0094D4AC] ;  (1 found)
0x0000b37a: add byte [eax], al ; add byte [eax], al ; add byte [eax], al ; jmp dword [0x0094D4B0] ;  (1 found)
0x0000b26a: add byte [eax], al ; add byte [eax], al ; add byte [eax], al ; jmp dword [0x0094D4B4] ;  (1 found)
0x0000b2aa: add byte [eax], al ; add byte [eax], al ; add byte [eax], al ; jmp dword [0x0094D4B8] ;  (1 found)
0x0000b42a: add byte [eax], al ; add byte [eax], al ; add byte [eax], al ; jmp dword [0x0094D4BC] ;  (1 found)
0x0000b3da: add byte [eax], al ; add byte [eax], al ; add byte [eax], al ; jmp dword [0x0094D4C0] ;  (1 found)
0x0000b1ca: add byte [eax], al ; add byte [eax], al ; add byte [eax], al ; jmp dword [0x0094D4C4] ;  (1 found)
0x0000b20a: add byte [eax], al ; add byte [eax], al ; add byte [eax], al ; jmp dword [0x0094D4C8] ;  (1 found)
0x0000b30a: add byte [eax], al ; add byte [eax], al ; add byte [eax], al ; jmp dword [0x0094D4CC] ;  (1 found)
0x0000b23a: add byte [eax], al ; add byte [eax], al ; add byte [eax], al ; jmp dword [0x0094D4D0] ;  (1 found)
0x0000b44a: add byte [eax], al ; add byte [eax], al ; add byte [eax], al ; jmp dword [0x0094D4D4] ;  (1 found)
0x0000b43a: add byte [eax], al ; add byte [eax], al ; add byte [eax], al ; jmp dword [0x0094D4D8] ;  (1 found)
0x0000b3aa: add byte [eax], al ; add byte [eax], al ; add byte [eax], al ; jmp dword [0x0094D4DC] ;  (1 found)
0x0000b2ca: add byte [eax], al ; add byte [eax], al ; add byte [eax], al ; jmp dword [0x0094D4E0] ;  (1 found)
0x0000b29a: add byte [eax], al ; add byte [eax], al ; add byte [eax], al ; jmp dword [0x0094D4E4] ;  (1 found)
0x0000b1ea: add byte [eax], al ; add byte [eax], al ; add byte [eax], al ; jmp dword [0x0094D4E8] ;  (1 found)
0x0000b2da: add byte [eax], al ; add byte [eax], al ; add byte [eax], al ; jmp dword [0x0094D4EC] ;  (1 found)
0x0000b40a: add byte [eax], al ; add byte [eax], al ; add byte [eax], al ; jmp dword [0x0094D4F0] ;  (1 found)
0x0000b25a: add byte [eax], al ; add byte [eax], al ; add byte [eax], al ; jmp dword [0x0094D4F4] ;  (1 found)
0x0000b2ba: add byte [eax], al ; add byte [eax], al ; add byte [eax], al ; jmp dword [0x0094D4F8] ;  (1 found)
0x0000b38a: add byte [eax], al ; add byte [eax], al ; add byte [eax], al ; jmp dword [0x0094D4FC] ;  (1 found)
0x0000b3ea: add byte [eax], al ; add byte [eax], al ; add byte [eax], al ; jmp dword [0x0094D500] ;  (1 found)
0x0000b34a: add byte [eax], al ; add byte [eax], al ; add byte [eax], al ; jmp dword [0x0094D504] ;  (1 found)
0x0000b41a: add byte [eax], al ; add byte [eax], al ; add byte [eax], al ; jmp dword [0x0094D508] ;  (1 found)
0x0000b21a: add byte [eax], al ; add byte [eax], al ; add byte [eax], al ; jmp dword [0x0094D50C] ;  (1 found)
0x0000b1da: add byte [eax], al ; add byte [eax], al ; add byte [eax], al ; jmp dword [0x0094D510] ;  (1 found)
0x0000b28a: add byte [eax], al ; add byte [eax], al ; add byte [eax], al ; jmp dword [0x0094D514] ;  (1 found)
0x0000b2fa: add byte [eax], al ; add byte [eax], al ; add byte [eax], al ; jmp dword [0x0094D518] ;  (1 found)
0x0000b3ca: add byte [eax], al ; add byte [eax], al ; add byte [eax], al ; jmp dword [0x0094D51C] ;  (1 found)
0x0000b3fa: add byte [eax], al ; add byte [eax], al ; add byte [eax], al ; jmp dword [0x0094D520] ;  (1 found)
0x0000b22a: add byte [eax], al ; add byte [eax], al ; add byte [eax], al ; jmp dword [0x0094D524] ;  (1 found)
0x0000b24a: add byte [eax], al ; add byte [eax], al ; add byte [eax], al ; jmp dword [0x0094D528] ;  (1 found)
0x0000b31a: add byte [eax], al ; add byte [eax], al ; add byte [eax], al ; jmp dword [0x0094D52C] ;  (1 found)
0x0000b45a: add byte [eax], al ; add byte [eax], al ; add byte [eax], al ; jmp dword [0x0094D530] ;  (1 found)
0x0000b36a: add byte [eax], al ; add byte [eax], al ; add byte [eax], al ; jmp dword [0x0094D534] ;  (1 found)
0x0000b39a: add byte [eax], al ; add byte [eax], al ; add byte [eax], al ; jmp dword [0x0094D538] ;  (1 found)
0x0000b2ea: add byte [eax], al ; add byte [eax], al ; add byte [eax], al ; jmp dword [0x0094D53C] ;  (1 found)
0x0000b35a: add byte [eax], al ; add byte [eax], al ; add byte [eax], al ; jmp dword [0x0094D540] ;  (1 found)
0x0000b27a: add byte [eax], al ; add byte [eax], al ; add byte [eax], al ; jmp dword [0x0094D544] ;  (1 found)
0x0000b3ba: add byte [eax], al ; add byte [eax], al ; add byte [eax], al ; jmp dword [0x0094D548] ;  (1 found)
0x0000b1fa: add byte [eax], al ; add byte [eax], al ; add byte [eax], al ; jmp dword [0x0094D54C] ;  (1 found)
0x0000a95a: add byte [eax], al ; add byte [eax], al ; add byte [eax], al ; jmp dword [0x0094D558] ;  (1 found)
0x0000a90a: add byte [eax], al ; add byte [eax], al ; add byte [eax], al ; jmp dword [0x0094D55C] ;  (1 found)
0x0000a8ca: add byte [eax], al ; add byte [eax], al ; add byte [eax], al ; jmp dword [0x0094D560] ;  (1 found)
0x0000a93a: add byte [eax], al ; add byte [eax], al ; add byte [eax], al ; jmp dword [0x0094D564] ;  (1 found)
0x0000a8fa: add byte [eax], al ; add byte [eax], al ; add byte [eax], al ; jmp dword [0x0094D568] ;  (1 found)
0x0000a8da: add byte [eax], al ; add byte [eax], al ; add byte [eax], al ; jmp dword [0x0094D56C] ;  (1 found)
0x0000a8aa: add byte [eax], al ; add byte [eax], al ; add byte [eax], al ; jmp dword [0x0094D570] ;  (1 found)
0x0000a89a: add byte [eax], al ; add byte [eax], al ; add byte [eax], al ; jmp dword [0x0094D574] ;  (1 found)
0x0000a92a: add byte [eax], al ; add byte [eax], al ; add byte [eax], al ; jmp dword [0x0094D578] ;  (1 found)
0x0000a8ba: add byte [eax], al ; add byte [eax], al ; add byte [eax], al ; jmp dword [0x0094D57C] ;  (1 found)
0x0000a94a: add byte [eax], al ; add byte [eax], al ; add byte [eax], al ; jmp dword [0x0094D580] ;  (1 found)
0x0000a96a: add byte [eax], al ; add byte [eax], al ; add byte [eax], al ; jmp dword [0x0094D584] ;  (1 found)
0x0000a8ea: add byte [eax], al ; add byte [eax], al ; add byte [eax], al ; jmp dword [0x0094D58C] ;  (1 found)
0x0000a91a: add byte [eax], al ; add byte [eax], al ; add byte [eax], al ; jmp dword [0x0094D590] ;  (1 found)
0x0000bedb: add byte [eax], al ; add byte [eax], al ; add byte [eax], dh ; retn 0x0040 ;  (1 found)
0x00006bfc: add byte [eax], al ; add byte [eax], al ; add esp, 0x18 ; pop ebx ; retn 0x0010 ;  (1 found)
0x0001b72c: add byte [eax], al ; add byte [eax], al ; and al, 0xF9 ; adc al, byte [eax] ; sbb bh, 0x00000012 ; add ch, bh ; ret  ;  (1 found)
0x0001c054: add byte [eax], al ; add byte [eax], al ; and al, 0xF9 ; adc al, byte [eax] ; sbb bh, 0x00000012 ; add ch, bh ; ret  ;  (1 found)
0x0001c97c: add byte [eax], al ; add byte [eax], al ; and al, 0xF9 ; adc al, byte [eax] ; sbb bh, 0x00000012 ; add ch, bh ; ret  ;  (1 found)
0x00010d38: add byte [eax], al ; add byte [eax], al ; call dword [esi+0x000096B9] ;  (1 found)
0x0000054c: add byte [eax], al ; add byte [eax], al ; call eax ;  (1 found)
0x0000a9bc: add byte [eax], al ; add byte [eax], al ; jmp dword [0x0094D334] ;  (1 found)
0x0000a9ac: add byte [eax], al ; add byte [eax], al ; jmp dword [0x0094D338] ;  (1 found)
0x0000a99c: add byte [eax], al ; add byte [eax], al ; jmp dword [0x0094D33C] ;  (1 found)
0x0000a9cc: add byte [eax], al ; add byte [eax], al ; jmp dword [0x0094D348] ;  (1 found)
0x0000a97c: add byte [eax], al ; add byte [eax], al ; jmp dword [0x0094D354] ;  (1 found)
0x0000a98c: add byte [eax], al ; add byte [eax], al ; jmp dword [0x0094D358] ;  (1 found)
0x0000b59c: add byte [eax], al ; add byte [eax], al ; jmp dword [0x0094D364] ;  (1 found)
0x0000b52c: add byte [eax], al ; add byte [eax], al ; jmp dword [0x0094D368] ;  (1 found)
0x0000b47c: add byte [eax], al ; add byte [eax], al ; jmp dword [0x0094D36C] ;  (1 found)
0x0000b4ac: add byte [eax], al ; add byte [eax], al ; jmp dword [0x0094D370] ;  (1 found)
0x0000b4bc: add byte [eax], al ; add byte [eax], al ; jmp dword [0x0094D374] ;  (1 found)
0x0000b58c: add byte [eax], al ; add byte [eax], al ; jmp dword [0x0094D378] ;  (1 found)
0x0000b49c: add byte [eax], al ; add byte [eax], al ; jmp dword [0x0094D37C] ;  (1 found)
0x0000b4cc: add byte [eax], al ; add byte [eax], al ; jmp dword [0x0094D380] ;  (1 found)
0x0000b57c: add byte [eax], al ; add byte [eax], al ; jmp dword [0x0094D384] ;  (1 found)
0x0000b54c: add byte [eax], al ; add byte [eax], al ; jmp dword [0x0094D388] ;  (1 found)
0x0000b4dc: add byte [eax], al ; add byte [eax], al ; jmp dword [0x0094D38C] ;  (1 found)
0x0000b53c: add byte [eax], al ; add byte [eax], al ; jmp dword [0x0094D390] ;  (1 found)
0x0000b48c: add byte [eax], al ; add byte [eax], al ; jmp dword [0x0094D394] ;  (1 found)
0x0000b56c: add byte [eax], al ; add byte [eax], al ; jmp dword [0x0094D398] ;  (1 found)
0x0000b55c: add byte [eax], al ; add byte [eax], al ; jmp dword [0x0094D39C] ;  (1 found)
0x0000b4ec: add byte [eax], al ; add byte [eax], al ; jmp dword [0x0094D3A0] ;  (1 found)
0x0000b4fc: add byte [eax], al ; add byte [eax], al ; jmp dword [0x0094D3A4] ;  (1 found)
0x0000b50c: add byte [eax], al ; add byte [eax], al ; jmp dword [0x0094D3A8] ;  (1 found)
0x0000b46c: add byte [eax], al ; add byte [eax], al ; jmp dword [0x0094D3AC] ;  (1 found)
0x0000b51c: add byte [eax], al ; add byte [eax], al ; jmp dword [0x0094D3B0] ;  (1 found)
0x0000aeec: add byte [eax], al ; add byte [eax], al ; jmp dword [0x0094D3BC] ;  (1 found)
0x0000aefc: add byte [eax], al ; add byte [eax], al ; jmp dword [0x0094D3C4] ;  (1 found)
0x0000afac: add byte [eax], al ; add byte [eax], al ; jmp dword [0x0094D3D0] ;  (1 found)
0x0000af5c: add byte [eax], al ; add byte [eax], al ; jmp dword [0x0094D3D4] ;  (1 found)
0x0000af7c: add byte [eax], al ; add byte [eax], al ; jmp dword [0x0094D3D8] ;  (1 found)
0x0000afbc: add byte [eax], al ; add byte [eax], al ; jmp dword [0x0094D3E0] ;  (1 found)
0x0000af4c: add byte [eax], al ; add byte [eax], al ; jmp dword [0x0094D3E4] ;  (1 found)
0x0000af8c: add byte [eax], al ; add byte [eax], al ; jmp dword [0x0094D3E8] ;  (1 found)
0x0000af9c: add byte [eax], al ; add byte [eax], al ; jmp dword [0x0094D3F4] ;  (1 found)
0x0000b1bc: add byte [eax], al ; add byte [eax], al ; jmp dword [0x0094D3F8] ;  (1 found)
0x0000b19c: add byte [eax], al ; add byte [eax], al ; jmp dword [0x0094D3FC] ;  (1 found)
0x0000b12c: add byte [eax], al ; add byte [eax], al ; jmp dword [0x0094D404] ;  (1 found)
0x0000b01c: add byte [eax], al ; add byte [eax], al ; jmp dword [0x0094D408] ;  (1 found)
0x0000b08c: add byte [eax], al ; add byte [eax], al ; jmp dword [0x0094D40C] ;  (1 found)
0x0000b17c: add byte [eax], al ; add byte [eax], al ; jmp dword [0x0094D410] ;  (1 found)
0x0000b07c: add byte [eax], al ; add byte [eax], al ; jmp dword [0x0094D414] ;  (1 found)
0x0000b10c: add byte [eax], al ; add byte [eax], al ; jmp dword [0x0094D418] ;  (1 found)
0x0000b11c: add byte [eax], al ; add byte [eax], al ; jmp dword [0x0094D41C] ;  (1 found)
0x0000b09c: add byte [eax], al ; add byte [eax], al ; jmp dword [0x0094D420] ;  (1 found)
0x0000b16c: add byte [eax], al ; add byte [eax], al ; jmp dword [0x0094D424] ;  (1 found)
0x0000b05c: add byte [eax], al ; add byte [eax], al ; jmp dword [0x0094D428] ;  (1 found)
0x0000b15c: add byte [eax], al ; add byte [eax], al ; jmp dword [0x0094D42C] ;  (1 found)
0x0000b0fc: add byte [eax], al ; add byte [eax], al ; jmp dword [0x0094D430] ;  (1 found)
0x0000b0ec: add byte [eax], al ; add byte [eax], al ; jmp dword [0x0094D434] ;  (1 found)
0x0000b18c: add byte [eax], al ; add byte [eax], al ; jmp dword [0x0094D438] ;  (1 found)
0x0000b04c: add byte [eax], al ; add byte [eax], al ; jmp dword [0x0094D43C] ;  (1 found)
0x0000b13c: add byte [eax], al ; add byte [eax], al ; jmp dword [0x0094D440] ;  (1 found)
0x0000b14c: add byte [eax], al ; add byte [eax], al ; jmp dword [0x0094D444] ;  (1 found)
0x0000b0bc: add byte [eax], al ; add byte [eax], al ; jmp dword [0x0094D448] ;  (1 found)
0x0000b1ac: add byte [eax], al ; add byte [eax], al ; jmp dword [0x0094D44C] ;  (1 found)
0x0000af6c: add byte [eax], al ; add byte [eax], al ; jmp dword [0x0094D450] ;  (1 found)
0x0000affc: add byte [eax], al ; add byte [eax], al ; jmp dword [0x0094D454] ;  (1 found)
0x0000b02c: add byte [eax], al ; add byte [eax], al ; jmp dword [0x0094D458] ;  (1 found)
0x0000b06c: add byte [eax], al ; add byte [eax], al ; jmp dword [0x0094D45C] ;  (1 found)
0x0000b0cc: add byte [eax], al ; add byte [eax], al ; jmp dword [0x0094D460] ;  (1 found)
0x0000b0dc: add byte [eax], al ; add byte [eax], al ; jmp dword [0x0094D464] ;  (1 found)
0x0000afec: add byte [eax], al ; add byte [eax], al ; jmp dword [0x0094D468] ;  (1 found)
0x0000b00c: add byte [eax], al ; add byte [eax], al ; jmp dword [0x0094D46C] ;  (1 found)
0x0000afdc: add byte [eax], al ; add byte [eax], al ; jmp dword [0x0094D470] ;  (1 found)
0x0000afcc: add byte [eax], al ; add byte [eax], al ; jmp dword [0x0094D474] ;  (1 found)
0x0000b03c: add byte [eax], al ; add byte [eax], al ; jmp dword [0x0094D478] ;  (1 found)
0x0000b0ac: add byte [eax], al ; add byte [eax], al ; jmp dword [0x0094D47C] ;  (1 found)
0x0000b5ec: add byte [eax], al ; add byte [eax], al ; jmp dword [0x0094D488] ;  (1 found)
0x0000b5ac: add byte [eax], al ; add byte [eax], al ; jmp dword [0x0094D48C] ;  (1 found)
0x0000b5cc: add byte [eax], al ; add byte [eax], al ; jmp dword [0x0094D490] ;  (1 found)
0x0000b5bc: add byte [eax], al ; add byte [eax], al ; jmp dword [0x0094D494] ;  (1 found)
0x0000b5fc: add byte [eax], al ; add byte [eax], al ; jmp dword [0x0094D498] ;  (1 found)
0x0000b5dc: add byte [eax], al ; add byte [eax], al ; jmp dword [0x0094D49C] ;  (1 found)
0x0000b33c: add byte [eax], al ; add byte [eax], al ; jmp dword [0x0094D4A8] ;  (1 found)
0x0000b32c: add byte [eax], al ; add byte [eax], al ; jmp dword [0x0094D4AC] ;  (1 found)
0x0000b37c: add byte [eax], al ; add byte [eax], al ; jmp dword [0x0094D4B0] ;  (1 found)
0x0000b26c: add byte [eax], al ; add byte [eax], al ; jmp dword [0x0094D4B4] ;  (1 found)
0x0000b2ac: add byte [eax], al ; add byte [eax], al ; jmp dword [0x0094D4B8] ;  (1 found)
0x0000b42c: add byte [eax], al ; add byte [eax], al ; jmp dword [0x0094D4BC] ;  (1 found)
0x0000b3dc: add byte [eax], al ; add byte [eax], al ; jmp dword [0x0094D4C0] ;  (1 found)
0x0000b1cc: add byte [eax], al ; add byte [eax], al ; jmp dword [0x0094D4C4] ;  (1 found)
0x0000b20c: add byte [eax], al ; add byte [eax], al ; jmp dword [0x0094D4C8] ;  (1 found)
0x0000b30c: add byte [eax], al ; add byte [eax], al ; jmp dword [0x0094D4CC] ;  (1 found)
0x0000b23c: add byte [eax], al ; add byte [eax], al ; jmp dword [0x0094D4D0] ;  (1 found)
0x0000b44c: add byte [eax], al ; add byte [eax], al ; jmp dword [0x0094D4D4] ;  (1 found)
0x0000b43c: add byte [eax], al ; add byte [eax], al ; jmp dword [0x0094D4D8] ;  (1 found)
0x0000b3ac: add byte [eax], al ; add byte [eax], al ; jmp dword [0x0094D4DC] ;  (1 found)
0x0000b2cc: add byte [eax], al ; add byte [eax], al ; jmp dword [0x0094D4E0] ;  (1 found)
0x0000b29c: add byte [eax], al ; add byte [eax], al ; jmp dword [0x0094D4E4] ;  (1 found)
0x0000b1ec: add byte [eax], al ; add byte [eax], al ; jmp dword [0x0094D4E8] ;  (1 found)
0x0000b2dc: add byte [eax], al ; add byte [eax], al ; jmp dword [0x0094D4EC] ;  (1 found)
0x0000b40c: add byte [eax], al ; add byte [eax], al ; jmp dword [0x0094D4F0] ;  (1 found)
0x0000b25c: add byte [eax], al ; add byte [eax], al ; jmp dword [0x0094D4F4] ;  (1 found)
0x0000b2bc: add byte [eax], al ; add byte [eax], al ; jmp dword [0x0094D4F8] ;  (1 found)
0x0000b38c: add byte [eax], al ; add byte [eax], al ; jmp dword [0x0094D4FC] ;  (1 found)
0x0000b3ec: add byte [eax], al ; add byte [eax], al ; jmp dword [0x0094D500] ;  (1 found)
0x0000b34c: add byte [eax], al ; add byte [eax], al ; jmp dword [0x0094D504] ;  (1 found)
0x0000b41c: add byte [eax], al ; add byte [eax], al ; jmp dword [0x0094D508] ;  (1 found)
0x0000b21c: add byte [eax], al ; add byte [eax], al ; jmp dword [0x0094D50C] ;  (1 found)
0x0000b1dc: add byte [eax], al ; add byte [eax], al ; jmp dword [0x0094D510] ;  (1 found)
0x0000b28c: add byte [eax], al ; add byte [eax], al ; jmp dword [0x0094D514] ;  (1 found)
0x0000b2fc: add byte [eax], al ; add byte [eax], al ; jmp dword [0x0094D518] ;  (1 found)
0x0000b3cc: add byte [eax], al ; add byte [eax], al ; jmp dword [0x0094D51C] ;  (1 found)
0x0000b3fc: add byte [eax], al ; add byte [eax], al ; jmp dword [0x0094D520] ;  (1 found)
0x0000b22c: add byte [eax], al ; add byte [eax], al ; jmp dword [0x0094D524] ;  (1 found)
0x0000b24c: add byte [eax], al ; add byte [eax], al ; jmp dword [0x0094D528] ;  (1 found)
0x0000b31c: add byte [eax], al ; add byte [eax], al ; jmp dword [0x0094D52C] ;  (1 found)
0x0000b45c: add byte [eax], al ; add byte [eax], al ; jmp dword [0x0094D530] ;  (1 found)
0x0000b36c: add byte [eax], al ; add byte [eax], al ; jmp dword [0x0094D534] ;  (1 found)
0x0000b39c: add byte [eax], al ; add byte [eax], al ; jmp dword [0x0094D538] ;  (1 found)
0x0000b2ec: add byte [eax], al ; add byte [eax], al ; jmp dword [0x0094D53C] ;  (1 found)
0x0000b35c: add byte [eax], al ; add byte [eax], al ; jmp dword [0x0094D540] ;  (1 found)
0x0000b27c: add byte [eax], al ; add byte [eax], al ; jmp dword [0x0094D544] ;  (1 found)
0x0000b3bc: add byte [eax], al ; add byte [eax], al ; jmp dword [0x0094D548] ;  (1 found)
0x0000b1fc: add byte [eax], al ; add byte [eax], al ; jmp dword [0x0094D54C] ;  (1 found)
0x0000a95c: add byte [eax], al ; add byte [eax], al ; jmp dword [0x0094D558] ;  (1 found)
0x0000a90c: add byte [eax], al ; add byte [eax], al ; jmp dword [0x0094D55C] ;  (1 found)
0x0000a8cc: add byte [eax], al ; add byte [eax], al ; jmp dword [0x0094D560] ;  (1 found)
0x0000a93c: add byte [eax], al ; add byte [eax], al ; jmp dword [0x0094D564] ;  (1 found)
0x0000a8fc: add byte [eax], al ; add byte [eax], al ; jmp dword [0x0094D568] ;  (1 found)
0x0000a8dc: add byte [eax], al ; add byte [eax], al ; jmp dword [0x0094D56C] ;  (1 found)
0x0000a8ac: add byte [eax], al ; add byte [eax], al ; jmp dword [0x0094D570] ;  (1 found)
0x0000a89c: add byte [eax], al ; add byte [eax], al ; jmp dword [0x0094D574] ;  (1 found)
0x0000a92c: add byte [eax], al ; add byte [eax], al ; jmp dword [0x0094D578] ;  (1 found)
0x0000a8bc: add byte [eax], al ; add byte [eax], al ; jmp dword [0x0094D57C] ;  (1 found)
0x0000a94c: add byte [eax], al ; add byte [eax], al ; jmp dword [0x0094D580] ;  (1 found)
0x0000a96c: add byte [eax], al ; add byte [eax], al ; jmp dword [0x0094D584] ;  (1 found)
0x0000a8ec: add byte [eax], al ; add byte [eax], al ; jmp dword [0x0094D58C] ;  (1 found)
0x0000a91c: add byte [eax], al ; add byte [eax], al ; jmp dword [0x0094D590] ;  (1 found)
0x00006bf5: add byte [eax], al ; add byte [eax], al ; lea edi, dword [edi+0x00000000] ; add esp, 0x18 ; pop ebx ; retn 0x0010 ;  (1 found)
0x00000544: add byte [eax], al ; add byte [eax], al ; lea edi, dword [edi+0x00000000] ; call eax ;  (1 found)
0x00000545: add byte [eax], al ; add byte [eax], al ; lea edi, dword [edi+0x00000000] ; call eax ;  (1 found)
0x0000162c: add byte [eax], al ; add byte [eax], al ; mov ebx, dword [esp+0x20] ; mov esi, dword [esp+0x24] ; mov edi, dword [esp+0x28] ; add esp, 0x2C ; ret  ;  (1 found)
0x0000bedd: add byte [eax], al ; add byte [eax], dh ; retn 0x0040 ;  (1 found)
0x00006bf0: add byte [eax], al ; add byte [ebp+0x000000B6], cl ; add byte [ebp+0x000027BC], cl ; add byte [eax], al ; add esp, 0x18 ; pop ebx ; retn 0x0010 ;  (1 found)
0x00007897: add byte [eax], al ; add byte [ebp+0x000000BF], cl ; add byte [esi+0x0F], cl ; xchg eax, esp ; retn 0x7C81 ;  (1 found)
0x0000053f: add byte [eax], al ; add byte [ebp+0x000026B4], cl ; add byte [eax], al ; lea edi, dword [edi+0x00000000] ; call eax ;  (1 found)
0x00006bf6: add byte [eax], al ; add byte [ebp+0x000027BC], cl ; add byte [eax], al ; add esp, 0x18 ; pop ebx ; retn 0x0010 ;  (1 found)
0x00000546: add byte [eax], al ; add byte [ebp+0x000027BC], cl ; add byte [eax], al ; call eax ;  (1 found)
0x0000452d: add byte [eax], al ; add byte [ebx+0x009024B4], cl ; add byte [eax], al ; mov edi, dword [esp+0x00000094] ; mov ebp, dword [esp+0x00000098] ; add esp, 0x0000009C ; retn 0x0010 ;  (1 found)
0x00004534: add byte [eax], al ; add byte [ebx+0x009424BC], cl ; add byte [eax], al ; mov ebp, dword [esp+0x00000098] ; add esp, 0x0000009C ; retn 0x0010 ;  (1 found)
0x0000453b: add byte [eax], al ; add byte [ebx+0x009824AC], cl ; add byte [eax], al ; add esp, 0x0000009C ; retn 0x0010 ;  (1 found)
0x0000a562: add byte [eax], al ; add byte [ebx+0x00C0249C], cl ; add byte [eax], al ; mov esi, dword [esp+0x000000C4] ; mov edi, dword [esp+0x000000C8] ; add esp, 0x000000CC ; retn 0x0010 ;  (1 found)
0x0000a569: add byte [eax], al ; add byte [ebx+0x00C424B4], cl ; add byte [eax], al ; mov edi, dword [esp+0x000000C8] ; add esp, 0x000000CC ; retn 0x0010 ;  (1 found)
0x0000a570: add byte [eax], al ; add byte [ebx+0x00C824BC], cl ; add byte [eax], al ; add esp, 0x000000CC ; retn 0x0010 ;  (1 found)
0x0000a52b: add byte [eax], al ; add byte [ebx+0x00C824BC], cl ; add byte [eax], al ; add esp, 0x000000CC ; retn 0x0010 ;  (1 found)
0x00009072: add byte [eax], al ; add byte [ebx+0x243024B4], cl ; add byte [eax], al ; mov edi, dword [esp+0x00002434] ; mov ebp, dword [esp+0x00002438] ; add esp, 0x0000243C ; ret  ;  (1 found)
0x00001766: add byte [eax], al ; add byte [ebx+0x3120245C], cl ; ror byte [ebx-0x74DBDB8C], 0x0000007C ; and al, 0x28 ; add esp, 0x2C ; retn 0x0010 ;  (1 found)
0x000083ae: add byte [eax], al ; add byte [ebx+0x5E5B10C4], al ; pop edi ; ret  ;  (1 found)
0x00008312: add byte [eax], al ; add byte [ebx+0x5E5B7CC4], al ; pop edi ; pop ebp ; ret  ;  (1 found)
0x00002a20: add byte [eax], al ; add byte [ebx+0x5E], bl ; pop edi ; pop ebp ; ret  ;  (1 found)
0x00006e85: add byte [eax], al ; add byte [ebx+0x5E], bl ; pop edi ; pop ebp ; ret  ;  (1 found)
0x000075e7: add byte [eax], al ; add byte [ebx+0x5E], bl ; pop edi ; pop ebp ; ret  ;  (1 found)
0x000092d0: add byte [eax], al ; add byte [ebx+0x5E], bl ; pop edi ; pop ebp ; ret  ;  (1 found)
0x0000a1dd: add byte [eax], al ; add byte [ebx+0x5E], bl ; pop edi ; pop ebp ; ret  ;  (1 found)
0x00009ff8: add byte [eax], al ; add byte [ebx+0x5E], bl ; ret  ;  (1 found)
0x00008102: add byte [eax], al ; add byte [ebx-0x2776EF3C], al ; pop ebx ; pop esi ; pop edi ; ret  ;  (1 found)
0x00007fbf: add byte [eax], al ; add byte [ebx-0x7EEBDBB4], cl ; ret  ;  (1 found)
0x000075e1: add byte [eax], al ; add byte [ecx+0x00008CC4], al ; add byte [ebx+0x5E], bl ; pop edi ; pop ebp ; ret  ;  (1 found)
0x0000a102: add byte [eax], al ; add byte [ecx+0x000110C4], al ; add byte [ebx+0x5E], bl ; pop edi ; ret  ;  (1 found)
0x000022a9: add byte [eax], al ; add byte [ecx+0x000CACC4], al ; add byte [ebx+0x5E], bl ; pop edi ; pop ebp ; ret  ;  (1 found)
0x0001b72d: add byte [eax], al ; add byte [ecx+edi*8], ah ; adc al, byte [eax] ; sbb bh, 0x00000012 ; add ch, bh ; ret  ;  (1 found)
0x0001c055: add byte [eax], al ; add byte [ecx+edi*8], ah ; adc al, byte [eax] ; sbb bh, 0x00000012 ; add ch, bh ; ret  ;  (1 found)
0x0001c97d: add byte [eax], al ; add byte [ecx+edi*8], ah ; adc al, byte [eax] ; sbb bh, 0x00000012 ; add ch, bh ; ret  ;  (1 found)
0x0000093c: add byte [eax], al ; add byte [ecx], bh ; int 0x0F ; pushfd  ; retn 0xFB83 ;  (1 found)
0x00000a92: add byte [eax], al ; add byte [ecx], bh ; int 0x0F ; pushfd  ; retn 0xFB83 ;  (1 found)
0x00003c87: add byte [eax], al ; add byte [ecx], dh ; jmp dword [ebx+0x00943338] ;  (1 found)
0x0000a522: add byte [eax], al ; add byte [ecx], dh ; ror byte [ebx+0x00C424B4], 0x00000000 ; add byte [ebx+0x00C824BC], cl ; add byte [eax], al ; add esp, 0x000000CC ; retn 0x0010 ;  (1 found)
0x00007735: add byte [eax], al ; add byte [edi+0x31], dl ; call dword [esi+0x53] ;  (1 found)
0x0000789d: add byte [eax], al ; add byte [esi+0x0F], cl ; xchg eax, esp ; retn 0x7C81 ;  (1 found)
0x00018c0a: add byte [eax], al ; add ebp, edi ; call dword [esi-0x02FE694A] ;  (1 found)
0x000075e2: add byte [eax], al ; add esp, 0x0000008C ; pop ebx ; pop esi ; pop edi ; pop ebp ; ret  ;  (1 found)
0x00004543: add byte [eax], al ; add esp, 0x0000009C ; retn 0x0010 ;  (1 found)
0x0000a578: add byte [eax], al ; add esp, 0x000000CC ; retn 0x0010 ;  (1 found)
0x0000a533: add byte [eax], al ; add esp, 0x000000CC ; retn 0x0010 ;  (1 found)
0x0000a103: add byte [eax], al ; add esp, 0x00000110 ; pop ebx ; pop esi ; pop edi ; ret  ;  (1 found)
0x00000c0a: add byte [eax], al ; add esp, 0x00000134 ; pop ebx ; pop esi ; ret  ;  (1 found)
0x0000481d: add byte [eax], al ; add esp, 0x0000015C ; ret  ;  (1 found)
0x00004874: add byte [eax], al ; add esp, 0x0000015C ; ret  ;  (1 found)
0x0000194f: add byte [eax], al ; add esp, 0x0000016C ; ret  ;  (1 found)
0x00001975: add byte [eax], al ; add esp, 0x0000016C ; ret  ;  (1 found)
0x00003c53: add byte [eax], al ; add esp, 0x0000018C ; pop ebx ; pop esi ; pop edi ; pop ebp ; ret  ;  (1 found)
0x00001ba6: add byte [eax], al ; add esp, 0x0000019C ; ret  ;  (1 found)
0x0000a2a9: add byte [eax], al ; add esp, 0x0000023C ; retn 0x0010 ;  (1 found)
0x0000a2fa: add byte [eax], al ; add esp, 0x0000023C ; retn 0x0010 ;  (1 found)
0x00001ee7: add byte [eax], al ; add esp, 0x0000025C ; pop ebx ; pop esi ; pop edi ; pop ebp ; ret  ;  (1 found)
0x0000258d: add byte [eax], al ; add esp, 0x0000025C ; pop ebx ; pop esi ; pop edi ; pop ebp ; ret  ;  (1 found)
0x00002f4a: add byte [eax], al ; add esp, 0x0000025C ; pop ebx ; pop esi ; pop edi ; pop ebp ; ret  ;  (1 found)
0x000034e9: add byte [eax], al ; add esp, 0x0000032C ; pop ebx ; pop esi ; pop edi ; pop ebp ; ret  ;  (1 found)
0x0000079a: add byte [eax], al ; add esp, 0x00000404 ; pop ebx ; pop esi ; ret  ;  (1 found)
0x00002455: add byte [eax], al ; add esp, 0x0000047C ; ret  ;  (1 found)
0x000024bc: add byte [eax], al ; add esp, 0x0000047C ; ret  ;  (1 found)
0x000025d0: add byte [eax], al ; add esp, 0x000006DC ; pop ebx ; pop esi ; pop edi ; pop ebp ; ret  ;  (1 found)
0x00009f72: add byte [eax], al ; add esp, 0x00000C68 ; pop ebx ; ret  ;  (1 found)
0x000022aa: add byte [eax], al ; add esp, 0x00000CAC ; pop ebx ; pop esi ; pop edi ; pop ebp ; ret  ;  (1 found)
0x000008c2: add byte [eax], al ; add esp, 0x0000208C ; pop ebx ; pop esi ; pop edi ; pop ebp ; ret  ;  (1 found)
0x00007cc9: add byte [eax], al ; add esp, 0x000022DC ; pop ebx ; pop esi ; pop edi ; pop ebp ; ret  ;  (1 found)
0x00009088: add byte [eax], al ; add esp, 0x0000243C ; ret  ;  (1 found)
0x0000119c: add byte [eax], al ; add esp, 0x08 ; pop ebx ; ret  ;  (1 found)
0x00008103: add byte [eax], al ; add esp, 0x10 ; mov eax, ebx ; pop ebx ; pop esi ; pop edi ; ret  ;  (1 found)
0x000083af: add byte [eax], al ; add esp, 0x10 ; pop ebx ; pop esi ; pop edi ; ret  ;  (1 found)
0x00006bfe: add byte [eax], al ; add esp, 0x18 ; pop ebx ; retn 0x0010 ;  (1 found)
0x000010a5: add byte [eax], al ; add esp, 0x24 ; pop ebx ; pop edi ; ret  ;  (1 found)
0x00008313: add byte [eax], al ; add esp, 0x7C ; pop ebx ; pop esi ; pop edi ; pop ebp ; ret  ;  (1 found)
0x0001b72e: add byte [eax], al ; and al, 0xF9 ; adc al, byte [eax] ; sbb bh, 0x00000012 ; add ch, bh ; ret  ;  (1 found)
0x0001c056: add byte [eax], al ; and al, 0xF9 ; adc al, byte [eax] ; sbb bh, 0x00000012 ; add ch, bh ; ret  ;  (1 found)
0x0001c97e: add byte [eax], al ; and al, 0xF9 ; adc al, byte [eax] ; sbb bh, 0x00000012 ; add ch, bh ; ret  ;  (1 found)
0x0001a62e: add byte [eax], al ; and eax, 0x1B0000FF ; retn 0x0000 ;  (1 found)
0x0000066b: add byte [eax], al ; call dword [0x0094D3DC] ;  (1 found)
0x0000064b: add byte [eax], al ; call dword [0x0094D3DC] ;  (1 found)
0x00010d3a: add byte [eax], al ; call dword [esi+0x000096B9] ;  (1 found)
0x0000054e: add byte [eax], al ; call eax ;  (1 found)
0x0001b5fe: add byte [eax], al ; int3  ; push dword [ebx] ; add ah, cl ; jmp dword [esi+0x00] ;  (1 found)
0x0000a9be: add byte [eax], al ; jmp dword [0x0094D334] ;  (1 found)
0x0000a9ae: add byte [eax], al ; jmp dword [0x0094D338] ;  (1 found)
0x0000a99e: add byte [eax], al ; jmp dword [0x0094D33C] ;  (1 found)
0x0000a9ce: add byte [eax], al ; jmp dword [0x0094D348] ;  (1 found)
0x0000a97e: add byte [eax], al ; jmp dword [0x0094D354] ;  (1 found)
0x0000a98e: add byte [eax], al ; jmp dword [0x0094D358] ;  (1 found)
0x0000b59e: add byte [eax], al ; jmp dword [0x0094D364] ;  (1 found)
0x0000b52e: add byte [eax], al ; jmp dword [0x0094D368] ;  (1 found)
0x0000b47e: add byte [eax], al ; jmp dword [0x0094D36C] ;  (1 found)
0x0000b4ae: add byte [eax], al ; jmp dword [0x0094D370] ;  (1 found)
0x0000b4be: add byte [eax], al ; jmp dword [0x0094D374] ;  (1 found)
0x0000b58e: add byte [eax], al ; jmp dword [0x0094D378] ;  (1 found)
0x0000b49e: add byte [eax], al ; jmp dword [0x0094D37C] ;  (1 found)
0x0000b4ce: add byte [eax], al ; jmp dword [0x0094D380] ;  (1 found)
0x0000b57e: add byte [eax], al ; jmp dword [0x0094D384] ;  (1 found)
0x0000b54e: add byte [eax], al ; jmp dword [0x0094D388] ;  (1 found)
0x0000b4de: add byte [eax], al ; jmp dword [0x0094D38C] ;  (1 found)
0x0000b53e: add byte [eax], al ; jmp dword [0x0094D390] ;  (1 found)
0x0000b48e: add byte [eax], al ; jmp dword [0x0094D394] ;  (1 found)
0x0000b56e: add byte [eax], al ; jmp dword [0x0094D398] ;  (1 found)
0x0000b55e: add byte [eax], al ; jmp dword [0x0094D39C] ;  (1 found)
0x0000b4ee: add byte [eax], al ; jmp dword [0x0094D3A0] ;  (1 found)
0x0000b4fe: add byte [eax], al ; jmp dword [0x0094D3A4] ;  (1 found)
0x0000b50e: add byte [eax], al ; jmp dword [0x0094D3A8] ;  (1 found)
0x0000b46e: add byte [eax], al ; jmp dword [0x0094D3AC] ;  (1 found)
0x0000b51e: add byte [eax], al ; jmp dword [0x0094D3B0] ;  (1 found)
0x0000aeee: add byte [eax], al ; jmp dword [0x0094D3BC] ;  (1 found)
0x0000aefe: add byte [eax], al ; jmp dword [0x0094D3C4] ;  (1 found)
0x0000afae: add byte [eax], al ; jmp dword [0x0094D3D0] ;  (1 found)
0x0000af5e: add byte [eax], al ; jmp dword [0x0094D3D4] ;  (1 found)
0x0000af7e: add byte [eax], al ; jmp dword [0x0094D3D8] ;  (1 found)
0x0000afbe: add byte [eax], al ; jmp dword [0x0094D3E0] ;  (1 found)
0x0000af4e: add byte [eax], al ; jmp dword [0x0094D3E4] ;  (1 found)
0x0000af8e: add byte [eax], al ; jmp dword [0x0094D3E8] ;  (1 found)
0x0000af9e: add byte [eax], al ; jmp dword [0x0094D3F4] ;  (1 found)
0x0000b1be: add byte [eax], al ; jmp dword [0x0094D3F8] ;  (1 found)
0x0000b19e: add byte [eax], al ; jmp dword [0x0094D3FC] ;  (1 found)
0x0000b12e: add byte [eax], al ; jmp dword [0x0094D404] ;  (1 found)
0x0000b01e: add byte [eax], al ; jmp dword [0x0094D408] ;  (1 found)
0x0000b08e: add byte [eax], al ; jmp dword [0x0094D40C] ;  (1 found)
0x0000b17e: add byte [eax], al ; jmp dword [0x0094D410] ;  (1 found)
0x0000b07e: add byte [eax], al ; jmp dword [0x0094D414] ;  (1 found)
0x0000b10e: add byte [eax], al ; jmp dword [0x0094D418] ;  (1 found)
0x0000b11e: add byte [eax], al ; jmp dword [0x0094D41C] ;  (1 found)
0x0000b09e: add byte [eax], al ; jmp dword [0x0094D420] ;  (1 found)
0x0000b16e: add byte [eax], al ; jmp dword [0x0094D424] ;  (1 found)
0x0000b05e: add byte [eax], al ; jmp dword [0x0094D428] ;  (1 found)
0x0000b15e: add byte [eax], al ; jmp dword [0x0094D42C] ;  (1 found)
0x0000b0fe: add byte [eax], al ; jmp dword [0x0094D430] ;  (1 found)
0x0000b0ee: add byte [eax], al ; jmp dword [0x0094D434] ;  (1 found)
0x0000b18e: add byte [eax], al ; jmp dword [0x0094D438] ;  (1 found)
0x0000b04e: add byte [eax], al ; jmp dword [0x0094D43C] ;  (1 found)
0x0000b13e: add byte [eax], al ; jmp dword [0x0094D440] ;  (1 found)
0x0000b14e: add byte [eax], al ; jmp dword [0x0094D444] ;  (1 found)
0x0000b0be: add byte [eax], al ; jmp dword [0x0094D448] ;  (1 found)
0x0000b1ae: add byte [eax], al ; jmp dword [0x0094D44C] ;  (1 found)
0x0000af6e: add byte [eax], al ; jmp dword [0x0094D450] ;  (1 found)
0x0000affe: add byte [eax], al ; jmp dword [0x0094D454] ;  (1 found)
0x0000b02e: add byte [eax], al ; jmp dword [0x0094D458] ;  (1 found)
0x0000b06e: add byte [eax], al ; jmp dword [0x0094D45C] ;  (1 found)
0x0000b0ce: add byte [eax], al ; jmp dword [0x0094D460] ;  (1 found)
0x0000b0de: add byte [eax], al ; jmp dword [0x0094D464] ;  (1 found)
0x0000afee: add byte [eax], al ; jmp dword [0x0094D468] ;  (1 found)
0x0000b00e: add byte [eax], al ; jmp dword [0x0094D46C] ;  (1 found)
0x0000afde: add byte [eax], al ; jmp dword [0x0094D470] ;  (1 found)
0x0000afce: add byte [eax], al ; jmp dword [0x0094D474] ;  (1 found)
0x0000b03e: add byte [eax], al ; jmp dword [0x0094D478] ;  (1 found)
0x0000b0ae: add byte [eax], al ; jmp dword [0x0094D47C] ;  (1 found)
0x0000b5ee: add byte [eax], al ; jmp dword [0x0094D488] ;  (1 found)
0x0000b5ae: add byte [eax], al ; jmp dword [0x0094D48C] ;  (1 found)
0x0000b5ce: add byte [eax], al ; jmp dword [0x0094D490] ;  (1 found)
0x0000b5be: add byte [eax], al ; jmp dword [0x0094D494] ;  (1 found)
0x0000b5fe: add byte [eax], al ; jmp dword [0x0094D498] ;  (1 found)
0x0000b5de: add byte [eax], al ; jmp dword [0x0094D49C] ;  (1 found)
0x0000b33e: add byte [eax], al ; jmp dword [0x0094D4A8] ;  (1 found)
0x0000b32e: add byte [eax], al ; jmp dword [0x0094D4AC] ;  (1 found)
0x0000b37e: add byte [eax], al ; jmp dword [0x0094D4B0] ;  (1 found)
0x0000b26e: add byte [eax], al ; jmp dword [0x0094D4B4] ;  (1 found)
0x0000b2ae: add byte [eax], al ; jmp dword [0x0094D4B8] ;  (1 found)
0x0000b42e: add byte [eax], al ; jmp dword [0x0094D4BC] ;  (1 found)
0x0000b3de: add byte [eax], al ; jmp dword [0x0094D4C0] ;  (1 found)
0x0000b1ce: add byte [eax], al ; jmp dword [0x0094D4C4] ;  (1 found)
0x0000b20e: add byte [eax], al ; jmp dword [0x0094D4C8] ;  (1 found)
0x0000b30e: add byte [eax], al ; jmp dword [0x0094D4CC] ;  (1 found)
0x0000b23e: add byte [eax], al ; jmp dword [0x0094D4D0] ;  (1 found)
0x0000b44e: add byte [eax], al ; jmp dword [0x0094D4D4] ;  (1 found)
0x0000b43e: add byte [eax], al ; jmp dword [0x0094D4D8] ;  (1 found)
0x0000b3ae: add byte [eax], al ; jmp dword [0x0094D4DC] ;  (1 found)
0x0000b2ce: add byte [eax], al ; jmp dword [0x0094D4E0] ;  (1 found)
0x0000b29e: add byte [eax], al ; jmp dword [0x0094D4E4] ;  (1 found)
0x0000b1ee: add byte [eax], al ; jmp dword [0x0094D4E8] ;  (1 found)
0x0000b2de: add byte [eax], al ; jmp dword [0x0094D4EC] ;  (1 found)
0x0000b40e: add byte [eax], al ; jmp dword [0x0094D4F0] ;  (1 found)
0x0000b25e: add byte [eax], al ; jmp dword [0x0094D4F4] ;  (1 found)
0x0000b2be: add byte [eax], al ; jmp dword [0x0094D4F8] ;  (1 found)
0x0000b38e: add byte [eax], al ; jmp dword [0x0094D4FC] ;  (1 found)
0x0000b3ee: add byte [eax], al ; jmp dword [0x0094D500] ;  (1 found)
0x0000b34e: add byte [eax], al ; jmp dword [0x0094D504] ;  (1 found)
0x0000b41e: add byte [eax], al ; jmp dword [0x0094D508] ;  (1 found)
0x0000b21e: add byte [eax], al ; jmp dword [0x0094D50C] ;  (1 found)
0x0000b1de: add byte [eax], al ; jmp dword [0x0094D510] ;  (1 found)
0x0000b28e: add byte [eax], al ; jmp dword [0x0094D514] ;  (1 found)
0x0000b2fe: add byte [eax], al ; jmp dword [0x0094D518] ;  (1 found)
0x0000b3ce: add byte [eax], al ; jmp dword [0x0094D51C] ;  (1 found)
0x0000b3fe: add byte [eax], al ; jmp dword [0x0094D520] ;  (1 found)
0x0000b22e: add byte [eax], al ; jmp dword [0x0094D524] ;  (1 found)
0x0000b24e: add byte [eax], al ; jmp dword [0x0094D528] ;  (1 found)
0x0000b31e: add byte [eax], al ; jmp dword [0x0094D52C] ;  (1 found)
0x0000b45e: add byte [eax], al ; jmp dword [0x0094D530] ;  (1 found)
0x0000b36e: add byte [eax], al ; jmp dword [0x0094D534] ;  (1 found)
0x0000b39e: add byte [eax], al ; jmp dword [0x0094D538] ;  (1 found)
0x0000b2ee: add byte [eax], al ; jmp dword [0x0094D53C] ;  (1 found)
0x0000b35e: add byte [eax], al ; jmp dword [0x0094D540] ;  (1 found)
0x0000b27e: add byte [eax], al ; jmp dword [0x0094D544] ;  (1 found)
0x0000b3be: add byte [eax], al ; jmp dword [0x0094D548] ;  (1 found)
0x0000b1fe: add byte [eax], al ; jmp dword [0x0094D54C] ;  (1 found)
0x0000a95e: add byte [eax], al ; jmp dword [0x0094D558] ;  (1 found)
0x0000a90e: add byte [eax], al ; jmp dword [0x0094D55C] ;  (1 found)
0x0000a8ce: add byte [eax], al ; jmp dword [0x0094D560] ;  (1 found)
0x0000a93e: add byte [eax], al ; jmp dword [0x0094D564] ;  (1 found)
0x0000a8fe: add byte [eax], al ; jmp dword [0x0094D568] ;  (1 found)
0x0000a8de: add byte [eax], al ; jmp dword [0x0094D56C] ;  (1 found)
0x0000a8ae: add byte [eax], al ; jmp dword [0x0094D570] ;  (1 found)
0x0000a89e: add byte [eax], al ; jmp dword [0x0094D574] ;  (1 found)
0x0000a92e: add byte [eax], al ; jmp dword [0x0094D578] ;  (1 found)
0x0000a8be: add byte [eax], al ; jmp dword [0x0094D57C] ;  (1 found)
0x0000a94e: add byte [eax], al ; jmp dword [0x0094D580] ;  (1 found)
0x0000a96e: add byte [eax], al ; jmp dword [0x0094D584] ;  (1 found)
0x0000a8ee: add byte [eax], al ; jmp dword [0x0094D58C] ;  (1 found)
0x0000a91e: add byte [eax], al ; jmp dword [0x0094D590] ;  (1 found)
0x0001b645: add byte [eax], al ; jmp dword [esi+0x33] ;  (1 found)
0x0001b646: add byte [eax], al ; jmp dword [esi+0x33] ;  (1 found)
0x0001bf6d: add byte [eax], al ; jmp dword [esi+0x33] ;  (1 found)
0x0001bf6e: add byte [eax], al ; jmp dword [esi+0x33] ;  (1 found)
0x0001c895: add byte [eax], al ; jmp dword [esi+0x33] ;  (1 found)
0x0001c896: add byte [eax], al ; jmp dword [esi+0x33] ;  (1 found)
0x00006bf7: add byte [eax], al ; lea edi, dword [edi+0x00000000] ; add esp, 0x18 ; pop ebx ; retn 0x0010 ;  (1 found)
0x00000547: add byte [eax], al ; lea edi, dword [edi+0x00000000] ; call eax ;  (1 found)
0x00006bf1: add byte [eax], al ; lea esi, dword [esi+0x00000000] ; lea edi, dword [edi+0x00000000] ; add esp, 0x18 ; pop ebx ; retn 0x0010 ;  (1 found)
0x00000540: add byte [eax], al ; lea esi, dword [esi+0x00000000] ; lea edi, dword [edi+0x00000000] ; call eax ;  (1 found)
0x0000063a: add byte [eax], al ; lea esi, dword [esi+0x00] ; push ebp ; mov ebp, esp ; sub esp, 0x08 ; mov dword [esp], 0x00000001 ; call dword [0x0094D3DC] ;  (1 found)
0x00001d8d: add byte [eax], al ; lea esp, dword [ebp-0x0C] ; pop ebx ; pop esi ; pop edi ; pop ebp ; ret  ;  (1 found)
0x0000a0fe: add byte [eax], al ; mov eax, 0x00000001 ; add esp, 0x00000110 ; pop ebx ; pop esi ; pop edi ; ret  ;  (1 found)
0x000083aa: add byte [eax], al ; mov eax, 0x00000001 ; add esp, 0x10 ; pop ebx ; pop esi ; pop edi ; ret  ;  (1 found)
0x0000a55e: add byte [eax], al ; mov eax, 0x00000001 ; mov ebx, dword [esp+0x000000C0] ; mov esi, dword [esp+0x000000C4] ; mov edi, dword [esp+0x000000C8] ; add esp, 0x000000CC ; retn 0x0010 ;  (1 found)
0x0000a70e: add byte [eax], al ; mov eax, 0x00000001 ; mov ebx, dword [esp+0x20] ; mov esi, dword [esp+0x24] ; mov edi, dword [esp+0x28] ; add esp, 0x2C ; retn 0x0010 ;  (1 found)
0x0000906e: add byte [eax], al ; mov eax, 0x00000001 ; mov esi, dword [esp+0x00002430] ; mov edi, dword [esp+0x00002434] ; mov ebp, dword [esp+0x00002438] ; add esp, 0x0000243C ; ret  ;  (1 found)
0x00002a1c: add byte [eax], al ; mov eax, 0x00000001 ; pop ebx ; pop esi ; pop edi ; pop ebp ; ret  ;  (1 found)
0x000092cc: add byte [eax], al ; mov eax, 0x00000001 ; pop ebx ; pop esi ; pop edi ; pop ebp ; ret  ;  (1 found)
0x00001732: add byte [eax], al ; mov eax, 0x00474040 ; add esp, 0x1C ; ret  ;  (1 found)
0x00001aa4: add byte [eax], al ; mov eax, 0x00940338 ; pop ebx ; pop esi ; pop edi ; pop ebp ; ret  ;  (1 found)
0x0000968c: add byte [eax], al ; mov eax, ecx ; pop ebx ; pop esi ; pop edi ; pop ebp ; ret  ;  (1 found)
0x0000453c: add byte [eax], al ; mov ebp, dword [esp+0x00000098] ; add esp, 0x0000009C ; retn 0x0010 ;  (1 found)
0x0000a2a2: add byte [eax], al ; mov ebp, dword [esp+0x00000238] ; add esp, 0x0000023C ; retn 0x0010 ;  (1 found)
0x0000a2f3: add byte [eax], al ; mov ebp, dword [esp+0x00000238] ; add esp, 0x0000023C ; retn 0x0010 ;  (1 found)
0x00009081: add byte [eax], al ; mov ebp, dword [esp+0x00002438] ; add esp, 0x0000243C ; ret  ;  (1 found)
0x0000a563: add byte [eax], al ; mov ebx, dword [esp+0x000000C0] ; mov esi, dword [esp+0x000000C4] ; mov edi, dword [esp+0x000000C8] ; add esp, 0x000000CC ; retn 0x0010 ;  (1 found)
0x00001b91: add byte [eax], al ; mov ebx, dword [esp+0x00000190] ; mov esi, dword [esp+0x00000194] ; mov edi, dword [esp+0x00000198] ; add esp, 0x0000019C ; ret  ;  (1 found)
0x0000a2de: add byte [eax], al ; mov ebx, dword [esp+0x0000022C] ; mov esi, dword [esp+0x00000230] ; mov edi, dword [esp+0x00000234] ; mov ebp, dword [esp+0x00000238] ; add esp, 0x0000023C ; retn 0x0010 ;  (1 found)
0x00002440: add byte [eax], al ; mov ebx, dword [esp+0x00000470] ; mov esi, dword [esp+0x00000474] ; mov edi, dword [esp+0x00000478] ; add esp, 0x0000047C ; ret  ;  (1 found)
0x000024a7: add byte [eax], al ; mov ebx, dword [esp+0x00000470] ; mov esi, dword [esp+0x00000474] ; mov edi, dword [esp+0x00000478] ; add esp, 0x0000047C ; ret  ;  (1 found)
0x00000717: add byte [eax], al ; mov ebx, dword [esp+0x14] ; mov esi, dword [esp+0x18] ; add esp, 0x1C ; ret  ;  (1 found)
0x0000162e: add byte [eax], al ; mov ebx, dword [esp+0x20] ; mov esi, dword [esp+0x24] ; mov edi, dword [esp+0x28] ; add esp, 0x2C ; ret  ;  (1 found)
0x00001794: add byte [eax], al ; mov ebx, dword [esp+0x20] ; mov esi, dword [esp+0x24] ; mov edi, dword [esp+0x28] ; add esp, 0x2C ; retn 0x0010 ;  (1 found)
0x0000a713: add byte [eax], al ; mov ebx, dword [esp+0x20] ; mov esi, dword [esp+0x24] ; mov edi, dword [esp+0x28] ; add esp, 0x2C ; retn 0x0010 ;  (1 found)
0x00001767: add byte [eax], al ; mov ebx, dword [esp+0x20] ; xor eax, eax ; mov esi, dword [esp+0x24] ; mov edi, dword [esp+0x28] ; add esp, 0x2C ; retn 0x0010 ;  (1 found)
0x0000a65f: add byte [eax], al ; mov ebx, dword [esp+0x20] ; xor eax, eax ; mov esi, dword [esp+0x24] ; mov edi, dword [esp+0x28] ; add esp, 0x2C ; retn 0x0010 ;  (1 found)
0x00004535: add byte [eax], al ; mov edi, dword [esp+0x00000094] ; mov ebp, dword [esp+0x00000098] ; add esp, 0x0000009C ; retn 0x0010 ;  (1 found)
0x0000a571: add byte [eax], al ; mov edi, dword [esp+0x000000C8] ; add esp, 0x000000CC ; retn 0x0010 ;  (1 found)
0x0000a52c: add byte [eax], al ; mov edi, dword [esp+0x000000C8] ; add esp, 0x000000CC ; retn 0x0010 ;  (1 found)
0x00004816: add byte [eax], al ; mov edi, dword [esp+0x00000158] ; add esp, 0x0000015C ; ret  ;  (1 found)
0x0000486d: add byte [eax], al ; mov edi, dword [esp+0x00000158] ; add esp, 0x0000015C ; ret  ;  (1 found)
0x00001948: add byte [eax], al ; mov edi, dword [esp+0x00000168] ; add esp, 0x0000016C ; ret  ;  (1 found)
0x0000196e: add byte [eax], al ; mov edi, dword [esp+0x00000168] ; add esp, 0x0000016C ; ret  ;  (1 found)
0x00001b9f: add byte [eax], al ; mov edi, dword [esp+0x00000198] ; add esp, 0x0000019C ; ret  ;  (1 found)
0x0000a29b: add byte [eax], al ; mov edi, dword [esp+0x00000234] ; mov ebp, dword [esp+0x00000238] ; add esp, 0x0000023C ; retn 0x0010 ;  (1 found)
0x0000a2ec: add byte [eax], al ; mov edi, dword [esp+0x00000234] ; mov ebp, dword [esp+0x00000238] ; add esp, 0x0000023C ; retn 0x0010 ;  (1 found)
0x000024b5: add byte [eax], al ; mov edi, dword [esp+0x00000478] ; add esp, 0x0000047C ; ret  ;  (1 found)
0x0000244e: add byte [eax], al ; mov edi, dword [esp+0x00000478] ; add esp, 0x0000047C ; ret  ;  (1 found)
0x0000907a: add byte [eax], al ; mov edi, dword [esp+0x00002434] ; mov ebp, dword [esp+0x00002438] ; add esp, 0x0000243C ; ret  ;  (1 found)
0x000004a9: add byte [eax], al ; mov edx, dword [0x0040D6D0] ; mov dword [eax], edx ; mov esp, ebp ; pop ebp ; ret  ;  (1 found)
0x0000452e: add byte [eax], al ; mov esi, dword [esp+0x00000090] ; mov edi, dword [esp+0x00000094] ; mov ebp, dword [esp+0x00000098] ; add esp, 0x0000009C ; retn 0x0010 ;  (1 found)
0x0000a56a: add byte [eax], al ; mov esi, dword [esp+0x000000C4] ; mov edi, dword [esp+0x000000C8] ; add esp, 0x000000CC ; retn 0x0010 ;  (1 found)
0x0000480f: add byte [eax], al ; mov esi, dword [esp+0x00000154] ; mov edi, dword [esp+0x00000158] ; add esp, 0x0000015C ; ret  ;  (1 found)
0x00004866: add byte [eax], al ; mov esi, dword [esp+0x00000154] ; mov edi, dword [esp+0x00000158] ; add esp, 0x0000015C ; ret  ;  (1 found)
0x00001941: add byte [eax], al ; mov esi, dword [esp+0x00000164] ; mov edi, dword [esp+0x00000168] ; add esp, 0x0000016C ; ret  ;  (1 found)
0x00001967: add byte [eax], al ; mov esi, dword [esp+0x00000164] ; mov edi, dword [esp+0x00000168] ; add esp, 0x0000016C ; ret  ;  (1 found)
0x00001b98: add byte [eax], al ; mov esi, dword [esp+0x00000194] ; mov edi, dword [esp+0x00000198] ; add esp, 0x0000019C ; ret  ;  (1 found)
0x0000a2e5: add byte [eax], al ; mov esi, dword [esp+0x00000230] ; mov edi, dword [esp+0x00000234] ; mov ebp, dword [esp+0x00000238] ; add esp, 0x0000023C ; retn 0x0010 ;  (1 found)
0x000024ae: add byte [eax], al ; mov esi, dword [esp+0x00000474] ; mov edi, dword [esp+0x00000478] ; add esp, 0x0000047C ; ret  ;  (1 found)
0x00002447: add byte [eax], al ; mov esi, dword [esp+0x00000474] ; mov edi, dword [esp+0x00000478] ; add esp, 0x0000047C ; ret  ;  (1 found)
0x00009073: add byte [eax], al ; mov esi, dword [esp+0x00002430] ; mov edi, dword [esp+0x00002434] ; mov ebp, dword [esp+0x00002438] ; add esp, 0x0000243C ; ret  ;  (1 found)
0x00000436: add byte [eax], al ; mov esp, ebp ; pop ebp ; ret  ;  (1 found)
0x0000af23: add byte [eax], al ; mov word [esp], ax ; fldcw word [esp] ; frndint  ; fldcw word [esp+0x02] ; pop eax ; ret  ;  (1 found)
0x0001a62a: add byte [eax], al ; pop ds ; cmp al, byte [eax] ; add byte [0x1B0000FF], ah ; retn 0x0000 ;  (1 found)
0x00000f80: add byte [eax], al ; pop ebx ; pop esi ; pop edi ; pop ebp ; ret  ;  (1 found)
0x000008c8: add byte [eax], al ; pop ebx ; pop esi ; pop edi ; pop ebp ; ret  ;  (1 found)
0x00001eed: add byte [eax], al ; pop ebx ; pop esi ; pop edi ; pop ebp ; ret  ;  (1 found)
0x000025d6: add byte [eax], al ; pop ebx ; pop esi ; pop edi ; pop ebp ; ret  ;  (1 found)
0x00002593: add byte [eax], al ; pop ebx ; pop esi ; pop edi ; pop ebp ; ret  ;  (1 found)
0x000022b0: add byte [eax], al ; pop ebx ; pop esi ; pop edi ; pop ebp ; ret  ;  (1 found)
0x00002e90: add byte [eax], al ; pop ebx ; pop esi ; pop edi ; pop ebp ; ret  ;  (1 found)
0x00002dbf: add byte [eax], al ; pop ebx ; pop esi ; pop edi ; pop ebp ; ret  ;  (1 found)
0x00002a21: add byte [eax], al ; pop ebx ; pop esi ; pop edi ; pop ebp ; ret  ;  (1 found)
0x00004274: add byte [eax], al ; pop ebx ; pop esi ; pop edi ; pop ebp ; ret  ;  (1 found)
0x00002f50: add byte [eax], al ; pop ebx ; pop esi ; pop edi ; pop ebp ; ret  ;  (1 found)
0x00003105: add byte [eax], al ; pop ebx ; pop esi ; pop edi ; pop ebp ; ret  ;  (1 found)
0x000032b5: add byte [eax], al ; pop ebx ; pop esi ; pop edi ; pop ebp ; ret  ;  (1 found)
0x000034ef: add byte [eax], al ; pop ebx ; pop esi ; pop edi ; pop ebp ; ret  ;  (1 found)
0x00003c77: add byte [eax], al ; pop ebx ; pop esi ; pop edi ; pop ebp ; ret  ;  (1 found)
0x00003c59: add byte [eax], al ; pop ebx ; pop esi ; pop edi ; pop ebp ; ret  ;  (1 found)
0x00004eb8: add byte [eax], al ; pop ebx ; pop esi ; pop edi ; pop ebp ; ret  ;  (1 found)
0x00004e96: add byte [eax], al ; pop ebx ; pop esi ; pop edi ; pop ebp ; ret  ;  (1 found)
0x00004c7f: add byte [eax], al ; pop ebx ; pop esi ; pop edi ; pop ebp ; ret  ;  (1 found)
0x00006e86: add byte [eax], al ; pop ebx ; pop esi ; pop edi ; pop ebp ; ret  ;  (1 found)
0x000075e8: add byte [eax], al ; pop ebx ; pop esi ; pop edi ; pop ebp ; ret  ;  (1 found)
0x00007ccf: add byte [eax], al ; pop ebx ; pop esi ; pop edi ; pop ebp ; ret  ;  (1 found)
0x00007ab8: add byte [eax], al ; pop ebx ; pop esi ; pop edi ; pop ebp ; ret  ;  (1 found)
0x000078cf: add byte [eax], al ; pop ebx ; pop esi ; pop edi ; pop ebp ; ret  ;  (1 found)
0x000088cf: add byte [eax], al ; pop ebx ; pop esi ; pop edi ; pop ebp ; ret  ;  (1 found)
0x000092d1: add byte [eax], al ; pop ebx ; pop esi ; pop edi ; pop ebp ; ret  ;  (1 found)
0x00009d36: add byte [eax], al ; pop ebx ; pop esi ; pop edi ; pop ebp ; ret  ;  (1 found)
0x0000a1de: add byte [eax], al ; pop ebx ; pop esi ; pop edi ; pop ebp ; ret  ;  (1 found)
0x0000a109: add byte [eax], al ; pop ebx ; pop esi ; pop edi ; ret  ;  (1 found)
0x000007a0: add byte [eax], al ; pop ebx ; pop esi ; ret  ;  (1 found)
0x00000c10: add byte [eax], al ; pop ebx ; pop esi ; ret  ;  (1 found)
0x00009ff9: add byte [eax], al ; pop ebx ; pop esi ; ret  ;  (1 found)
0x00009ea5: add byte [eax], al ; pop ebx ; ret  ;  (1 found)
0x00009f78: add byte [eax], al ; pop ebx ; ret  ;  (1 found)
0x0001a626: add byte [eax], al ; push ds ; xor eax, dword [eax] ; add byte [edi], bl ; cmp al, byte [eax] ; add byte [0x1B0000FF], ah ; retn 0x0000 ;  (1 found)
0x0000069e: add byte [eax], al ; push ebp ; mov ebp, esp ; sub esp, 0x08 ; mov eax, dword [ebp+0x08] ; mov dword [esp], eax ; call dword [0x0094D3F0] ;  (1 found)
0x00000fdd: add byte [eax], al ; ret  ;  (1 found)
0x00001955: add byte [eax], al ; ret  ;  (1 found)
0x0000197b: add byte [eax], al ; ret  ;  (1 found)
0x00001bac: add byte [eax], al ; ret  ;  (1 found)
0x000024c2: add byte [eax], al ; ret  ;  (1 found)
0x0000245b: add byte [eax], al ; ret  ;  (1 found)
0x00004823: add byte [eax], al ; ret  ;  (1 found)
0x0000487a: add byte [eax], al ; ret  ;  (1 found)
0x0000908e: add byte [eax], al ; ret  ;  (1 found)
0x00004549: add byte [eax], al ; retn 0x0010 ;  (1 found)
0x0000a2af: add byte [eax], al ; retn 0x0010 ;  (1 found)
0x0000a57e: add byte [eax], al ; retn 0x0010 ;  (1 found)
0x0000a300: add byte [eax], al ; retn 0x0010 ;  (1 found)
0x0000a539: add byte [eax], al ; retn 0x0010 ;  (1 found)
0x0000050b: add byte [eax], al ; sal byte [esi+ecx-0x77], 0xFFFFFFD8 ; mov esi, dword [ebp-0x04] ; mov ebx, dword [ebp-0x08] ; mov esp, ebp ; pop ebp ; retn 0x0004 ;  (1 found)
0x00001194: add byte [eax], al ; sub esp, 0x04 ; mov eax, 0x00000001 ; add esp, 0x08 ; pop ebx ; ret  ;  (1 found)
0x00006df1: add byte [eax], al ; sub esp, 0x04 ; mov eax, ebx ; add esp, 0x24 ; pop ebx ; pop esi ; ret  ;  (1 found)
0x000010e2: add byte [eax], al ; sub esp, 0x10 ; add esp, 0x24 ; pop ebx ; pop edi ; ret  ;  (1 found)
0x00004737: add byte [eax], al ; sub esp, 0x18 ; add esp, 0x44 ; pop ebx ; pop esi ; ret  ;  (1 found)
0x00007fd8: add byte [eax], al ; test eax, eax ; sete bl ; add esp, 0x08 ; mov eax, ebx ; pop ebx ; ret  ;  (1 found)
0x0000a523: add byte [eax], al ; xor eax, eax ; mov esi, dword [esp+0x000000C4] ; mov edi, dword [esp+0x000000C8] ; add esp, 0x000000CC ; retn 0x0010 ;  (1 found)
0x0000a292: add byte [eax], al ; xor eax, eax ; mov esi, dword [esp+0x00000230] ; mov edi, dword [esp+0x00000234] ; mov ebp, dword [esp+0x00000238] ; add esp, 0x0000023C ; retn 0x0010 ;  (1 found)
0x00009311: add byte [eax], al ; xor eax, eax ; pop ebx ; pop esi ; pop edi ; pop ebp ; ret  ;  (1 found)
0x0001753e: add byte [eax], cl ; ret  ;  (1 found)
0x0000bedf: add byte [eax], dh ; retn 0x0040 ;  (1 found)
0x00014aae: add byte [eax], dl ; aam 0xE6 ; fcmovu st0, st2 ; retn 0xAAC2 ;  (1 found)
0x000158b0: add byte [eax], dl ; cwde  ; cdq  ; cwde  ; mov al, byte [0xC5C0AE99] ; salc  ; ret  ;  (1 found)
0x00015026: add byte [eax], dl ; sub eax, 0xDAD6B266 ; ret  ;  (1 found)
0x00013546: add byte [eax], dl ; xor dword [edi], 0x8B878686 ; mov dx, ds ; retn 0x3873 ;  (1 found)
0x00014ac2: add byte [eax], dl ; xor esi, dword [edi] ; mov ecx, ebx ; rol edx, 1  ; retn 0x4757 ;  (1 found)
0x00006bf2: add byte [ebp+0x000000B6], cl ; add byte [ebp+0x000027BC], cl ; add byte [eax], al ; add esp, 0x18 ; pop ebx ; retn 0x0010 ;  (1 found)
0x00007899: add byte [ebp+0x000000BF], cl ; add byte [esi+0x0F], cl ; xchg eax, esp ; retn 0x7C81 ;  (1 found)
0x00000541: add byte [ebp+0x000026B4], cl ; add byte [eax], al ; lea edi, dword [edi+0x00000000] ; call eax ;  (1 found)
0x00006bf8: add byte [ebp+0x000027BC], cl ; add byte [eax], al ; add esp, 0x18 ; pop ebx ; retn 0x0010 ;  (1 found)
0x00000548: add byte [ebp+0x000027BC], cl ; add byte [eax], al ; call eax ;  (1 found)
0x0000ae7e: add byte [ebp+0x00A30843], cl ; les edx,  [eax+eax+0x5BF4658D] ; pop esi ; pop edi ; pop ebp ; ret  ;  (1 found)
0x0000063b: add byte [ebp+0x55002674], cl ; mov ebp, esp ; sub esp, 0x08 ; mov dword [esp], 0x00000001 ; call dword [0x0094D3DC] ;  (1 found)
0x00001d8e: add byte [ebp+0x5E5BF465], cl ; pop edi ; pop ebp ; ret  ;  (1 found)
0x0000ae86: add byte [ebp+0x5E5BF465], cl ; pop edi ; pop ebp ; ret  ;  (1 found)
0x00009564: add byte [ebp+0x74C289C0], al ; or ecx, dword [ebp-0x4376FE88] ; popfd  ; fcomp dword [ebp-0x7ABC0001] ; ror byte [edi], cl ; xchg eax, ebp ; retn 0xFB83 ;  (1 found)
0x0000a7a5: add byte [ebp+edx*8-0x7F], dh ; sti  ; das  ; and eax, dword [eax] ; add byte [edi], cl ; test dword [edi+edi*8-0x01], ebx ; jmp dword [ecx+0x0040D6A0] ;  (1 found)
0x0000ae76: add byte [ebp-0x1F5CFBBD], cl ; ret  ;  (1 found)
0x0000967b: add byte [ebp-0x37760B9B], cl ; pop ebx ; pop esi ; pop edi ; pop ebp ; ret  ;  (1 found)
0x00007fd9: add byte [ebp-0x3C6BF040], al ; add esp, 0x08 ; mov eax, ebx ; pop ebx ; ret  ;  (1 found)
0x0000abdf: add byte [ebp-0x5F], dl ; in al, 0xD6 ; inc eax ; add byte [ecx+0x74C085E5], cl ; add al, 0x5D ; ret  ;  (1 found)
0x0000abde: add byte [ebp-0x5F], dl ; in al, 0xD6 ; inc eax ; add byte [ecx+0x74C085E5], cl ; add al, 0x5D ; ret  ;  (1 found)
0x0000ac81: add byte [ebp-0x72F78B37], al ; hlt  ; pop ebx ; pop esi ; pop edi ; pop ebp ; ret  ;  (1 found)
0x00000a8b: add byte [ebp-0x77], al ; ret  ;  (1 found)
0x00009e9c: add byte [ebp-0x7EF08A2E], al ; les ebp,  [eax+0x0C] ; add byte [eax], al ; pop ebx ; ret  ;  (1 found)
0x00002e87: add byte [ebp-0x7EF48A13], al ; les ebx,  [edx+eax+0x00] ; add byte [ebx+0x5E], bl ; pop edi ; pop ebp ; ret  ;  (1 found)
0x00003c6e: add byte [ebp-0x7EF48B40], al ; les ebp,  [edx+ecx+0x5E5B0000] ; pop edi ; pop ebp ; ret  ;  (1 found)
0x0000452f: add byte [ebx+0x009024B4], cl ; add byte [eax], al ; mov edi, dword [esp+0x00000094] ; mov ebp, dword [esp+0x00000098] ; add esp, 0x0000009C ; retn 0x0010 ;  (1 found)
0x00004536: add byte [ebx+0x009424BC], cl ; add byte [eax], al ; mov ebp, dword [esp+0x00000098] ; add esp, 0x0000009C ; retn 0x0010 ;  (1 found)
0x0000453d: add byte [ebx+0x009824AC], cl ; add byte [eax], al ; add esp, 0x0000009C ; retn 0x0010 ;  (1 found)
0x0000a564: add byte [ebx+0x00C0249C], cl ; add byte [eax], al ; mov esi, dword [esp+0x000000C4] ; mov edi, dword [esp+0x000000C8] ; add esp, 0x000000CC ; retn 0x0010 ;  (1 found)
0x0000a56b: add byte [ebx+0x00C424B4], cl ; add byte [eax], al ; mov edi, dword [esp+0x000000C8] ; add esp, 0x000000CC ; retn 0x0010 ;  (1 found)
0x0000a572: add byte [ebx+0x00C824BC], cl ; add byte [eax], al ; add esp, 0x000000CC ; retn 0x0010 ;  (1 found)
0x0000a52d: add byte [ebx+0x00C824BC], cl ; add byte [eax], al ; add esp, 0x000000CC ; retn 0x0010 ;  (1 found)
0x00004809: add byte [ebx+0x0150249C], cl ; add byte [eax], al ; mov esi, dword [esp+0x00000154] ; mov edi, dword [esp+0x00000158] ; add esp, 0x0000015C ; ret  ;  (1 found)
0x00004810: add byte [ebx+0x015424B4], cl ; add byte [eax], al ; mov edi, dword [esp+0x00000158] ; add esp, 0x0000015C ; ret  ;  (1 found)
0x00004867: add byte [ebx+0x015424B4], cl ; add byte [eax], al ; mov edi, dword [esp+0x00000158] ; add esp, 0x0000015C ; ret  ;  (1 found)
0x00004817: add byte [ebx+0x015824BC], cl ; add byte [eax], al ; add esp, 0x0000015C ; ret  ;  (1 found)
0x0000486e: add byte [ebx+0x015824BC], cl ; add byte [eax], al ; add esp, 0x0000015C ; ret  ;  (1 found)
0x00001942: add byte [ebx+0x016424B4], cl ; add byte [eax], al ; mov edi, dword [esp+0x00000168] ; add esp, 0x0000016C ; ret  ;  (1 found)
0x00001968: add byte [ebx+0x016424B4], cl ; add byte [eax], al ; mov edi, dword [esp+0x00000168] ; add esp, 0x0000016C ; ret  ;  (1 found)
0x00001949: add byte [ebx+0x016824BC], cl ; add byte [eax], al ; add esp, 0x0000016C ; ret  ;  (1 found)
0x0000196f: add byte [ebx+0x016824BC], cl ; add byte [eax], al ; add esp, 0x0000016C ; ret  ;  (1 found)
0x00001b92: add byte [ebx+0x0190249C], cl ; add byte [eax], al ; mov esi, dword [esp+0x00000194] ; mov edi, dword [esp+0x00000198] ; add esp, 0x0000019C ; ret  ;  (1 found)
0x00001b99: add byte [ebx+0x019424B4], cl ; add byte [eax], al ; mov edi, dword [esp+0x00000198] ; add esp, 0x0000019C ; ret  ;  (1 found)
0x00001ba0: add byte [ebx+0x019824BC], cl ; add byte [eax], al ; add esp, 0x0000019C ; ret  ;  (1 found)
0x00009ff2: add byte [ebx+0x01B814C4], al ; add byte [eax], al ; add byte [ebx+0x5E], bl ; ret  ;  (1 found)
0x0000a2df: add byte [ebx+0x022C249C], cl ; add byte [eax], al ; mov esi, dword [esp+0x00000230] ; mov edi, dword [esp+0x00000234] ; mov ebp, dword [esp+0x00000238] ; add esp, 0x0000023C ; retn 0x0010 ;  (1 found)
0x0000a2e6: add byte [ebx+0x023024B4], cl ; add byte [eax], al ; mov edi, dword [esp+0x00000234] ; mov ebp, dword [esp+0x00000238] ; add esp, 0x0000023C ; retn 0x0010 ;  (1 found)
0x0000a29c: add byte [ebx+0x023424BC], cl ; add byte [eax], al ; mov ebp, dword [esp+0x00000238] ; add esp, 0x0000023C ; retn 0x0010 ;  (1 found)
0x0000a2ed: add byte [ebx+0x023424BC], cl ; add byte [eax], al ; mov ebp, dword [esp+0x00000238] ; add esp, 0x0000023C ; retn 0x0010 ;  (1 found)
0x0000a2a3: add byte [ebx+0x023824AC], cl ; add byte [eax], al ; add esp, 0x0000023C ; retn 0x0010 ;  (1 found)
0x0000a2f4: add byte [ebx+0x023824AC], cl ; add byte [eax], al ; add esp, 0x0000023C ; retn 0x0010 ;  (1 found)
0x000024a8: add byte [ebx+0x0470249C], cl ; add byte [eax], al ; mov esi, dword [esp+0x00000474] ; mov edi, dword [esp+0x00000478] ; add esp, 0x0000047C ; ret  ;  (1 found)
0x00002441: add byte [ebx+0x0470249C], cl ; add byte [eax], al ; mov esi, dword [esp+0x00000474] ; mov edi, dword [esp+0x00000478] ; add esp, 0x0000047C ; ret  ;  (1 found)
0x00002448: add byte [ebx+0x047424B4], cl ; add byte [eax], al ; mov edi, dword [esp+0x00000478] ; add esp, 0x0000047C ; ret  ;  (1 found)
0x000024af: add byte [ebx+0x047424B4], cl ; add byte [eax], al ; mov edi, dword [esp+0x00000478] ; add esp, 0x0000047C ; ret  ;  (1 found)
0x000024b6: add byte [ebx+0x047824BC], cl ; add byte [eax], al ; add esp, 0x0000047C ; ret  ;  (1 found)
0x0000244f: add byte [ebx+0x047824BC], cl ; add byte [eax], al ; add esp, 0x0000047C ; ret  ;  (1 found)
0x00001473: add byte [ebx+0x048B10EC], al ; mov ch, 0x20 ; inc eax ; inc edi ; add byte [ebx+0x5E5B14C4], al ; ret  ;  (1 found)
0x00009074: add byte [ebx+0x243024B4], cl ; add byte [eax], al ; mov edi, dword [esp+0x00002434] ; mov ebp, dword [esp+0x00002438] ; add esp, 0x0000243C ; ret  ;  (1 found)
0x0000907b: add byte [ebx+0x243424BC], cl ; add byte [eax], al ; mov ebp, dword [esp+0x00002438] ; add esp, 0x0000243C ; ret  ;  (1 found)
0x00009082: add byte [ebx+0x243824AC], cl ; add byte [eax], al ; add esp, 0x0000243C ; ret  ;  (1 found)
0x00001768: add byte [ebx+0x3120245C], cl ; ror byte [ebx-0x74DBDB8C], 0x0000007C ; and al, 0x28 ; add esp, 0x2C ; retn 0x0010 ;  (1 found)
0x0000a660: add byte [ebx+0x3120245C], cl ; ror byte [ebx-0x74DBDB8C], 0x0000007C ; and al, 0x28 ; add esp, 0x2C ; retn 0x0010 ;  (1 found)
0x00001140: add byte [ebx+0x353B04EC], al ; dec eax ; xor edx, dword [eax+eax+0x5B58E47C] ; pop esi ; ret  ;  (1 found)
0x0000150b: add byte [ebx+0x4020B504], cl ; inc edi ; add byte [ebx+0x5E5B14C4], al ; ret  ;  (1 found)
0x0000146d: add byte [ebx+0x40D01035], cl ; add byte [ebx+0x048B10EC], al ; mov ch, 0x20 ; inc eax ; inc edi ; add byte [ebx+0x5E5B14C4], al ; ret  ;  (1 found)
0x00001505: add byte [ebx+0x40D01035], cl ; add byte [ebx+0x4020B504], cl ; inc edi ; add byte [ebx+0x5E5B14C4], al ; ret  ;  (1 found)
0x000004aa: add byte [ebx+0x40D6D015], cl ; add byte [ecx+0x5DEC8910], cl ; ret  ;  (1 found)
0x000083b0: add byte [ebx+0x5E5B10C4], al ; pop edi ; ret  ;  (1 found)
0x0000147d: add byte [ebx+0x5E5B14C4], al ; ret  ;  (1 found)
0x00001512: add byte [ebx+0x5E5B14C4], al ; ret  ;  (1 found)
0x00008314: add byte [ebx+0x5E5B7CC4], al ; pop edi ; pop ebp ; ret  ;  (1 found)
0x000008c9: add byte [ebx+0x5E], bl ; pop edi ; pop ebp ; ret  ;  (1 found)
0x00000f81: add byte [ebx+0x5E], bl ; pop edi ; pop ebp ; ret  ;  (1 found)
0x00001aaa: add byte [ebx+0x5E], bl ; pop edi ; pop ebp ; ret  ;  (1 found)
0x00001eee: add byte [ebx+0x5E], bl ; pop edi ; pop ebp ; ret  ;  (1 found)
0x000025d7: add byte [ebx+0x5E], bl ; pop edi ; pop ebp ; ret  ;  (1 found)
0x00002594: add byte [ebx+0x5E], bl ; pop edi ; pop ebp ; ret  ;  (1 found)
0x000022b1: add byte [ebx+0x5E], bl ; pop edi ; pop ebp ; ret  ;  (1 found)
0x00002dc0: add byte [ebx+0x5E], bl ; pop edi ; pop ebp ; ret  ;  (1 found)
0x00002e91: add byte [ebx+0x5E], bl ; pop edi ; pop ebp ; ret  ;  (1 found)
0x00002a22: add byte [ebx+0x5E], bl ; pop edi ; pop ebp ; ret  ;  (1 found)
0x00004275: add byte [ebx+0x5E], bl ; pop edi ; pop ebp ; ret  ;  (1 found)
0x00002f51: add byte [ebx+0x5E], bl ; pop edi ; pop ebp ; ret  ;  (1 found)
0x00003106: add byte [ebx+0x5E], bl ; pop edi ; pop ebp ; ret  ;  (1 found)
0x000032b6: add byte [ebx+0x5E], bl ; pop edi ; pop ebp ; ret  ;  (1 found)
0x000034f0: add byte [ebx+0x5E], bl ; pop edi ; pop ebp ; ret  ;  (1 found)
0x00003c5a: add byte [ebx+0x5E], bl ; pop edi ; pop ebp ; ret  ;  (1 found)
0x00003c78: add byte [ebx+0x5E], bl ; pop edi ; pop ebp ; ret  ;  (1 found)
0x00004eb9: add byte [ebx+0x5E], bl ; pop edi ; pop ebp ; ret  ;  (1 found)
0x00004c80: add byte [ebx+0x5E], bl ; pop edi ; pop ebp ; ret  ;  (1 found)
0x00004e97: add byte [ebx+0x5E], bl ; pop edi ; pop ebp ; ret  ;  (1 found)
0x00006e87: add byte [ebx+0x5E], bl ; pop edi ; pop ebp ; ret  ;  (1 found)
0x000075e9: add byte [ebx+0x5E], bl ; pop edi ; pop ebp ; ret  ;  (1 found)
0x00007cd0: add byte [ebx+0x5E], bl ; pop edi ; pop ebp ; ret  ;  (1 found)
0x000078d0: add byte [ebx+0x5E], bl ; pop edi ; pop ebp ; ret  ;  (1 found)
0x00007ab9: add byte [ebx+0x5E], bl ; pop edi ; pop ebp ; ret  ;  (1 found)
0x000092d2: add byte [ebx+0x5E], bl ; pop edi ; pop ebp ; ret  ;  (1 found)
0x00009d37: add byte [ebx+0x5E], bl ; pop edi ; pop ebp ; ret  ;  (1 found)
0x0000a1df: add byte [ebx+0x5E], bl ; pop edi ; pop ebp ; ret  ;  (1 found)
0x000088d0: add byte [ebx+0x5E], bl ; pop edi ; pop ebp ; ret  ;  (1 found)
0x00004f4d: add byte [ebx+0x5E], bl ; pop edi ; ret  ;  (1 found)
0x00007e13: add byte [ebx+0x5E], bl ; pop edi ; ret  ;  (1 found)
0x0000a10a: add byte [ebx+0x5E], bl ; pop edi ; ret  ;  (1 found)
0x000007a1: add byte [ebx+0x5E], bl ; ret  ;  (1 found)
0x00000c11: add byte [ebx+0x5E], bl ; ret  ;  (1 found)
0x00009ffa: add byte [ebx+0x5E], bl ; ret  ;  (1 found)
0x000010a6: add byte [ebx+0x5F5B24C4], al ; ret  ;  (1 found)
0x0000530e: add byte [ebx+0x70E024B4], cl ; add al, 0x00 ; mov edi, dword [esp+0x000470E4] ; mov ebp, dword [esp+0x000470E8] ; add esp, 0x000470EC ; retn 0x0010 ;  (1 found)
0x00005315: add byte [ebx+0x70E424BC], cl ; add al, 0x00 ; mov ebp, dword [esp+0x000470E8] ; add esp, 0x000470EC ; retn 0x0010 ;  (1 found)
0x0000531c: add byte [ebx+0x70E824AC], cl ; add al, 0x00 ; add esp, 0x000470EC ; retn 0x0010 ;  (1 found)
0x0000ab5a: add byte [ebx+0x75C98508], cl ; add al, 0x89 ; in al, dx ; pop ebp ; ret  ;  (1 found)
0x0000abb6: add byte [ebx+0x75], cl ; imul bl ; fisttp qword [ebx+0x40C22415] ; add byte [ecx], dh ; rol byte [ebp-0x45348B2E], 0x00000020 ; retn 0x0040 ;  (1 found)
0x00006ac2: add byte [ebx+0x7DE904EC], al ; idiv bh ; jmp dword [ecx+0x009437E4] ;  (1 found)
0x00001936: add byte [ebx-0x0776F714], al ; mov ebx, dword [esp+0x00000160] ; mov esi, dword [esp+0x00000164] ; mov edi, dword [esp+0x00000168] ; add esp, 0x0000016C ; ret  ;  (1 found)
0x00008104: add byte [ebx-0x2776EF3C], al ; pop ebx ; pop esi ; pop edi ; ret  ;  (1 found)
0x00006df2: add byte [ebx-0x2776FB14], al ; add esp, 0x24 ; pop ebx ; pop esi ; ret  ;  (1 found)
0x00006d7c: add byte [ebx-0x2DCEFB14], al ; test ax, ax ; setne dl ; add esp, 0x48 ; mov eax, edx ; pop ebx ; ret  ;  (1 found)
0x00004738: add byte [ebx-0x3B7CE714], al ; inc esp ; pop ebx ; pop esi ; ret  ;  (1 found)
0x000010e3: add byte [ebx-0x3B7CEF14], al ; and al, 0x5B ; pop edi ; ret  ;  (1 found)
0x0000510c: add byte [ebx-0x3B7CEF14], al ; sbb al, 0x5B ; pop esi ; pop edi ; pop ebp ; ret  ;  (1 found)
0x00009d2e: add byte [ebx-0x3B7EEF14], al ; fadd qword [ebx+0x00] ; add byte [ebx+0x5E], bl ; pop edi ; pop ebp ; ret  ;  (1 found)
0x0000426c: add byte [ebx-0x3B7EEF14], al ; lodsb  ; or al, byte [eax] ; add byte [ebx+0x5E], bl ; pop edi ; pop ebp ; ret  ;  (1 found)
0x00004c77: add byte [ebx-0x3B7EEF14], al ; pop esp ; or byte [eax], al ; add byte [ebx+0x5E], bl ; pop edi ; pop ebp ; ret  ;  (1 found)
0x00004eb0: add byte [ebx-0x3B7EF714], al ; mov word [0x5E5B0000], ss ; pop edi ; pop ebp ; ret  ;  (1 found)
0x00004e8e: add byte [ebx-0x3B7EF714], al ; mov word [0x5E5B0000], ss ; pop edi ; pop ebp ; ret  ;  (1 found)
0x00009e96: add byte [ebx-0x6BA1FFEB], cl ; add byte [ebp-0x7EF08A2E], al ; les ebp,  [eax+0x0C] ; add byte [eax], al ; pop ebx ; ret  ;  (1 found)
0x00007fc1: add byte [ebx-0x7EEBDBB4], cl ; ret  ;  (1 found)
0x00013444: add byte [ebx], al ; retn 0xC2BA ;  (1 found)
0x00012d37: add byte [ebx], al ; rol byte [eax], 0x00000015 ; ret  ;  (1 found)
0x0001a633: add byte [ebx], bl ; retn 0x0000 ;  (1 found)
0x000185c4: add byte [ebx], cl ; div esp ; out dx, eax ; out dx, al ; retn 0xA7EB ;  (1 found)
0x000174c2: add byte [ebx], cl ; mov al, byte [0xD6C1A3A2] ; ret  ;  (1 found)
0x00014ea0: add byte [ebx], dl ; das  ; xor al, 0x7B ; mov dh, 0xB7 ; retn 0xBAD1 ;  (1 found)
0x00015462: add byte [ebx], dl ; push ss ; sbb al, byte [ebp+ecx*2+0x49] ; sahf  ; mov cl, 0xC0 ; ret  ;  (1 found)
0x00015106: add byte [ebx], dl ; sub eax, 0xD1B26E70 ; retn 0xD2B7 ;  (1 found)
0x000075e3: add byte [ecx+0x00008CC4], al ; add byte [ebx+0x5E], bl ; pop edi ; pop ebp ; ret  ;  (1 found)
0x0000a104: add byte [ecx+0x000110C4], al ; add byte [ebx+0x5E], bl ; pop edi ; ret  ;  (1 found)
0x00000c0b: add byte [ecx+0x000134C4], al ; add byte [ebx+0x5E], bl ; ret  ;  (1 found)
0x00003c54: add byte [ecx+0x00018CC4], al ; add byte [ebx+0x5E], bl ; pop edi ; pop ebp ; ret  ;  (1 found)
0x00001ee8: add byte [ecx+0x00025CC4], al ; add byte [ebx+0x5E], bl ; pop edi ; pop ebp ; ret  ;  (1 found)
0x0000258e: add byte [ecx+0x00025CC4], al ; add byte [ebx+0x5E], bl ; pop edi ; pop ebp ; ret  ;  (1 found)
0x00002f4b: add byte [ecx+0x00025CC4], al ; add byte [ebx+0x5E], bl ; pop edi ; pop ebp ; ret  ;  (1 found)
0x00000f7b: add byte [ecx+0x0002CCC4], al ; add byte [ebx+0x5E], bl ; pop edi ; pop ebp ; ret  ;  (1 found)
0x000034ea: add byte [ecx+0x00032CC4], al ; add byte [ebx+0x5E], bl ; pop edi ; pop ebp ; ret  ;  (1 found)
0x0000079b: add byte [ecx+0x000404C4], al ; add byte [ebx+0x5E], bl ; ret  ;  (1 found)
0x00002a17: add byte [ecx+0x0006DCC4], al ; add byte [eax+0x00000001], bh ; pop ebx ; pop esi ; pop edi ; pop ebp ; ret  ;  (1 found)
0x000025d1: add byte [ecx+0x0006DCC4], al ; add byte [ebx+0x5E], bl ; pop edi ; pop ebp ; ret  ;  (1 found)
0x000022ab: add byte [ecx+0x000CACC4], al ; add byte [ebx+0x5E], bl ; pop edi ; pop ebp ; ret  ;  (1 found)
0x000008c3: add byte [ecx+0x00208CC4], al ; add byte [ebx+0x5E], bl ; pop edi ; pop ebp ; ret  ;  (1 found)
0x00007cca: add byte [ecx+0x0022DCC4], al ; add byte [ebx+0x5E], bl ; pop edi ; pop ebp ; ret  ;  (1 found)
0x000092c7: add byte [ecx+0x00235CC4], al ; add byte [eax+0x00000001], bh ; pop ebx ; pop esi ; pop edi ; pop ebp ; ret  ;  (1 found)
0x0000930c: add byte [ecx+0x00235CC4], al ; add byte [ecx], dh ; rcr byte [ebx+0x5E], 0x0000005F ; pop ebp ; ret  ;  (1 found)
0x00003de7: add byte [ecx+0x010C246C], cl ; ret  ;  (1 found)
0x00008bcf: add byte [ecx+0x015C2444], cl ; ret  ;  (1 found)
0x0000804f: add byte [ecx+0x0FCF39F8], cl ; popfd  ; retn 0xE8C1 ;  (1 found)
0x0000ad88: add byte [ecx+0x158B1853], cl ; add al, 0xD7 ; inc eax ; add byte [ecx-0x2F5EE3BD], cl ; ret  ;  (1 found)
0x000004b0: add byte [ecx+0x5DEC8910], cl ; ret  ;  (1 found)
0x0000968d: add byte [ecx+0x5F5E5BC8], cl ; pop ebp ; ret  ;  (1 found)
0x00007e9f: add byte [ecx+0x69F989C6], cl ; fst qword [edi-0x7F000000] ; ret  ;  (1 found)
0x0000abe5: add byte [ecx+0x74C085E5], cl ; add al, 0x5D ; ret  ;  (1 found)
0x0001b72f: add byte [ecx+edi*8], ah ; adc al, byte [eax] ; sbb bh, 0x00000012 ; add ch, bh ; ret  ;  (1 found)
0x0001c057: add byte [ecx+edi*8], ah ; adc al, byte [eax] ; sbb bh, 0x00000012 ; add ch, bh ; ret  ;  (1 found)
0x0001c97f: add byte [ecx+edi*8], ah ; adc al, byte [eax] ; sbb bh, 0x00000012 ; add ch, bh ; ret  ;  (1 found)
0x0000ae14: add byte [ecx-0x0000837B], cl ; jmp dword [ecx+0x0040F1CC] ;  (1 found)
0x0000ae09: add byte [ecx-0x0000877B], cl ; jmp dword [ecx+0x0040F1C8] ;  (1 found)
0x0000adfe: add byte [ecx-0x00008B7B], cl ; jmp dword [ecx+0x0040F1C4] ;  (1 found)
0x0000adf3: add byte [ecx-0x00008F7B], cl ; jmp dword [ecx+0x0040F1C0] ;  (1 found)
0x0000ade8: add byte [ecx-0x0000937B], cl ; jmp dword [ecx+0x0040F1BC] ;  (1 found)
0x0000addd: add byte [ecx-0x0000977B], cl ; jmp dword [ecx+0x0040F1B8] ;  (1 found)
0x00008ee7: add byte [ecx-0x0B9A7204], cl ; pop ebx ; pop esi ; pop edi ; pop ebp ; ret  ;  (1 found)
0x00000c02: add byte [ecx-0x17FBDBB4], cl ; in al, 0xA3 ; add byte [eax], al ; add esp, 0x00000134 ; pop ebx ; pop esi ; ret  ;  (1 found)
0x0001333f: add byte [ecx-0x26318695], 0xFFFFFFD6 ; retn 0x6D78 ;  (1 found)
0x0000ad91: add byte [ecx-0x2F5EE3BD], cl ; ret  ;  (1 found)
0x00007cc2: add byte [ecx-0x3A17DBF4], cl ; and dword [eax], eax ; add byte [ecx+0x0022DCC4], al ; add byte [ebx+0x5E], bl ; pop edi ; pop ebp ; ret  ;  (1 found)
0x00013323: add byte [ecx-0x49847496], 0xFFFFFFC2 ; retn 0xB5C3 ;  (1 found)
0x0000a47e: add byte [ecx-0x4F5EDBE4], cl ; ret  ;  (1 found)
0x0000a47f: add byte [ecx-0x4F5EDBE4], cl ; ret  ;  (1 found)
0x0001b567: add byte [ecx-0x66000034], bl ; inc dword [eax] ; add byte [ecx-0x66FFCC01], bl ; jmp dword [esi+0x00] ;  (1 found)
0x0001be8f: add byte [ecx-0x66000034], bl ; inc dword [eax] ; add byte [ecx-0x66FFCC01], bl ; jmp dword [esi+0x00] ;  (1 found)
0x0001c7b7: add byte [ecx-0x66000034], bl ; inc dword [eax] ; add byte [ecx-0x66FFCC01], bl ; jmp dword [esi+0x00] ;  (1 found)
0x0001b56f: add byte [ecx-0x66FFCC01], bl ; jmp dword [esi+0x00] ;  (1 found)
0x0001be97: add byte [ecx-0x66FFCC01], bl ; jmp dword [esi+0x00] ;  (1 found)
0x0001c7bf: add byte [ecx-0x66FFCC01], bl ; jmp dword [esi+0x00] ;  (1 found)
0x00000f75: add byte [ecx-0x6BCCBFD3], cl ; add byte [ecx+0x0002CCC4], al ; add byte [ebx+0x5E], bl ; pop edi ; pop ebp ; ret  ;  (1 found)
0x000018b1: add byte [ecx-0x74057610], cl ; pop esp ; and al, 0x10 ; mov esi, dword [esp+0x14] ; mov edi, dword [esp+0x18] ; add esp, 0x1C ; ret  ;  (1 found)
0x0000aed1: add byte [ecx-0x74337620], cl ; or byte [ebx-0x1F00FBC0], cl ; nop  ; nop  ; nop  ; jmp dword [0x0094D3C0] ;  (1 found)
0x000029ae: add byte [ecx-0x74EBDBAC], cl ; and dword [edx+eax-0x74B9FFB8], 0xFFFFFF93 ; mov al, byte [0x81004802] ; ret  ;  (1 found)
0x0000267e: add byte [ecx-0x74EBDBAC], cl ; mov esp, dword [edx+eax-0x74B9FFB8] ; xchg eax, ebx ; mov al, byte [0x81004802] ; ret  ;  (1 found)
0x00007287: add byte [ecx-0x76FBDBB4], cl ; ret  ;  (1 found)
0x00010c5f: add byte [ecx-0x78FF4245], bh ; xchg esi, eax ; add byte [esp+edx*4-0x6464FF3C], dl ; ret  ;  (1 found)
0x00009304: add byte [ecx-0x7C17DBF4], cl ; or eax, dword [eax] ; add byte [ecx+0x00235CC4], al ; add byte [ecx], dh ; rcr byte [ebx+0x5E], 0x0000005F ; pop ebp ; ret  ;  (1 found)
0x0000996d: add byte [ecx-0x7EFBDBA4], cl ; retn 0x0406 ;  (1 found)
0x0000a86e: add byte [ecx-0x7EFBDBBC], cl ; retn 0x3840 ;  (1 found)
0x00009fea: add byte [ecx], al ; mov dword [ebx+0x00945F10], eax ; add esp, 0x14 ; mov eax, 0x00000001 ; pop ebx ; pop esi ; ret  ;  (1 found)
0x00018c0b: add byte [ecx], al ; std  ; call dword [esi-0x02FE694A] ;  (1 found)
0x0000093e: add byte [ecx], bh ; int 0x0F ; pushfd  ; retn 0xFB83 ;  (1 found)
0x00000a94: add byte [ecx], bh ; int 0x0F ; pushfd  ; retn 0xFB83 ;  (1 found)
0x00001e62: add byte [ecx], bh ; ret  ;  (1 found)
0x00001df1: add byte [ecx], bh ; ret  ;  (1 found)
0x00005598: add byte [ecx], ch ; ret  ;  (1 found)
0x00013b9a: add byte [ecx], cl ; mov bl, 0xB5 ; mov edx, 0xE8E8E7D8 ; out 0xE8, eax ; ret  ;  (1 found)
0x0001484a: add byte [ecx], cl ; ret  ;  (1 found)
0x00001dc9: add byte [ecx], dh ; fstp tword [ecx] ; ret  ;  (1 found)
0x00003c89: add byte [ecx], dh ; jmp dword [ebx+0x00943338] ;  (1 found)
0x00009312: add byte [ecx], dh ; rcr byte [ebx+0x5E], 0x0000005F ; pop ebp ; ret  ;  (1 found)
0x0000abc1: add byte [ecx], dh ; rol byte [ebp-0x45348B2E], 0x00000020 ; retn 0x0040 ;  (1 found)
0x00001262: add byte [ecx], dh ; rol byte [ebp-0x7CF58A40], cl ; les eax,  [ecx+ecx*4-0x30] ; pop ebx ; pop esi ; retn 0x0010 ;  (1 found)
0x0000a524: add byte [ecx], dh ; ror byte [ebx+0x00C424B4], 0x00000000 ; add byte [ebx+0x00C824BC], cl ; add byte [eax], al ; add esp, 0x000000CC ; retn 0x0010 ;  (1 found)
0x0000a293: add byte [ecx], dh ; ror byte [ebx+0x023024B4], 0x00000000 ; add byte [ebx+0x023424BC], cl ; add byte [eax], al ; mov ebp, dword [esp+0x00000238] ; add esp, 0x0000023C ; retn 0x0010 ;  (1 found)
0x0001597b: add byte [ecx], dl ; daa  ; cmp ch, byte [ebp-0x58] ; mov bl, 0xD2 ; retn 0xD8DA ;  (1 found)
0x0001597c: add byte [ecx], dl ; daa  ; cmp ch, byte [ebp-0x58] ; mov bl, 0xD2 ; retn 0xD8DA ;  (1 found)
0x00000712: add byte [ecx], dl ; mov seg?, word [esi+eax] ; add byte [eax], al ; mov ebx, dword [esp+0x14] ; mov esi, dword [esp+0x18] ; add esp, 0x1C ; ret  ;  (1 found)
0x00016914: add byte [ecx], dl ; sbb dword [edi-0x55], edx ; ret  ;  (1 found)
0x00008bcc: add byte [edi+0x00], bh ; add byte [ecx+0x015C2444], cl ; ret  ;  (1 found)
0x0000a115: add byte [edi+0x31], dl ; call dword [esi+0x31] ;  (1 found)
0x00007737: add byte [edi+0x31], dl ; call dword [esi+0x53] ;  (1 found)
0x0001b44e: add byte [edi+0x33], dh ; push dword [ebx] ; fsave  [ebx] ; jmp dword [esi+0x01] ;  (1 found)
0x000136ae: add byte [edi+ebp], bl ; xor dword [esi+edi*2+0x7E], edi ; test dword [edx-0x3D35767E], eax ; ret  ;  (1 found)
0x00013be4: add byte [edi+ebx*8], cl ; out dx, eax ; out dx, eax ; out dx, al ; fcmovbe st0, st6 ; rol bl, cl ; retn 0x8CB2 ;  (1 found)
0x00018366: add byte [edi+esi*8], dl ; cmc  ; hlt  ; div edx ; in al, dx ; ret  ;  (1 found)
0x000136e5: add byte [edi-0x35737375], 0xFFFFFF8C ; int3  ; ret  ;  (1 found)
0x00010c7b: add byte [edi-0x5BFF2969], dl ; movsb  ; ret  ;  (1 found)
0x00010c77: add byte [edi-0x68FF2979], al ; xchg eax, edi ; salc  ; add byte [esp-0x5454FF3D], ah ; ret  ;  (1 found)
0x00010c63: add byte [edi-0x6BFF3979], al ; xchg eax, esp ; les eax,  [eax] ; wait  ; wait  ; ret  ;  (1 found)
0x0001819e: add byte [edi], al ; in al, dx ; ret  ;  (1 found)
0x00012d2e: add byte [edi], al ; int3  ; ret  ;  (1 found)
0x0001a62b: add byte [edi], bl ; cmp al, byte [eax] ; add byte [0x1B0000FF], ah ; retn 0x0000 ;  (1 found)
0x000155bf: add byte [edi], cl ; cmp byte [edx], bh ; push edx ; mov ch, 0xD6 ; xlatb  ; ret  ;  (1 found)
0x000155c0: add byte [edi], cl ; cmp byte [edx], bh ; push edx ; mov ch, 0xD6 ; xlatb  ; ret  ;  (1 found)
0x00005c7f: add byte [edi], cl ; pushfd  ; retn 0xFE83 ;  (1 found)
0x0001aa6f: add byte [edi], cl ; ret  ;  (1 found)
0x00019c5f: add byte [edi], cl ; ret  ;  (1 found)
0x0000a7ad: add byte [edi], cl ; test dword [edi+edi*8-0x01], ebx ; jmp dword [ecx+0x0040D6A0] ;  (1 found)
0x00013f8a: add byte [edi], dl ; int1  ; out dx, eax ; in eax, dx ; out 0xD2, al ; ret  ;  (1 found)
0x000156a2: add byte [edi], dl ; sub ch, byte [ebx] ; cmp ch, byte [edi-0x58] ; test al, 0xB2 ; retn 0xD2D1 ;  (1 found)
0x00013322: add byte [edx+0x7B8B6A81], 0xFFFFFFB6 ; retn 0xC3C2 ;  (1 found)
0x00016d34: add byte [edx+ebx*8], cl ; rol dl, cl ; retn 0xC2B7 ;  (1 found)
0x00017292: add byte [edx+ebx*8], cl ; salc  ; ret  ;  (1 found)
0x00010c73: add byte [edx-0x78FF3566], bl ; xchg esi, edx ; add byte [edi-0x5BFF2969], dl ; movsb  ; ret  ;  (1 found)
0x00004f4b: add byte [edx], al ; add byte [ebx+0x5E], bl ; pop edi ; ret  ;  (1 found)
0x00016e88: add byte [edx], cl ; sbb bl, byte [eax-0x50] ; lds esp, ecx ; xlatb  ; retn 0x39A8 ;  (1 found)
0x000152fa: add byte [edx], cl ; sub dword [0xA8B27763], ebp ; mov bl, 0xB7 ; retn 0xC202 ;  (1 found)
0x00016a68: add byte [edx], dl ; add al, 0x05 ; or eax, 0x15160E0E ; dec eax ; lodsb  ; ret  ;  (1 found)
0x000149a2: add byte [edx], dl ; add al, 0x05 ; pop es ; or eax, 0xD6B74514 ; ret  ;  (1 found)
0x0000789f: add byte [esi+0x0F], cl ; xchg eax, esp ; retn 0x7C81 ;  (1 found)
0x0001375e: add byte [esi+edx*8], dl ; retn 0x0F38 ;  (1 found)
0x0001b4df: add byte [esi-0x01], ah ; xor eax, dword [eax] ; jmp word [esi+0x00] ;  (1 found)
0x0001be07: add byte [esi-0x01], ah ; xor eax, dword [eax] ; jmp word [esi+0x00] ;  (1 found)
0x0001c72f: add byte [esi-0x01], ah ; xor eax, dword [eax] ; jmp word [esi+0x00] ;  (1 found)
0x0001b4d7: add byte [esi-0x34], ah ; inc dword [eax] ; inc word [eax] ; add byte [esi-0x01], ah ; xor eax, dword [eax] ; jmp word [esi+0x00] ;  (1 found)
0x0001bdff: add byte [esi-0x34], ah ; inc dword [eax] ; inc word [eax] ; add byte [esi-0x01], ah ; xor eax, dword [eax] ; jmp word [esi+0x00] ;  (1 found)
0x0001c727: add byte [esi-0x34], ah ; inc dword [eax] ; inc word [eax] ; add byte [esi-0x01], ah ; xor eax, dword [eax] ; jmp word [esi+0x00] ;  (1 found)
0x00009e99: add byte [esi-0x6C], bl ; add byte [ebp-0x7EF08A2E], al ; les ebp,  [eax+0x0C] ; add byte [eax], al ; pop ebx ; ret  ;  (1 found)
0x00002539: add byte [esi-0x75], al ; xchg eax, ebx ; mov al, byte [0x81004802] ; ret  ;  (1 found)
0x00002ef6: add byte [esi-0x75], al ; xchg eax, ebx ; mov al, byte [0x81004802] ; ret  ;  (1 found)
0x00002688: add byte [esi-0x75], al ; xchg eax, ebx ; mov al, byte [0x81004802] ; ret  ;  (1 found)
0x000029b8: add byte [esi-0x75], al ; xchg eax, ebx ; mov al, byte [0x81004802] ; ret  ;  (1 found)
0x0000af24: add byte [esi-0x77], ah ; add al, 0x24 ; fldcw word [esp] ; frndint  ; fldcw word [esp+0x02] ; pop eax ; ret  ;  (1 found)
0x000167f8: add byte [esi], al ; retn 0xA8B7 ;  (1 found)
0x000134dc: add byte [esi], bl ; daa  ; sub byte [edi], ch ; xor dword [ebp+0x7E], edi ; test byte [ebx-0x48737375], al ; retn 0xC3C3 ;  (1 found)
0x0001a627: add byte [esi], bl ; xor eax, dword [eax] ; add byte [edi], bl ; cmp al, byte [eax] ; add byte [0x1B0000FF], ah ; retn 0x0000 ;  (1 found)
0x00014f08: add byte [esi], cl ; adc bl, byte [edx] ; sahf  ; retn 0xC3C5 ;  (1 found)
0x000162f2: add byte [esi], cl ; adc byte [edi], cl ; adc byte [eax], bh ; push esp ; retn 0xD2D1 ;  (1 found)
0x00014d36: add byte [esi], cl ; inc ecx ; pop esp ; ret  ;  (1 found)
0x00017360: add byte [esi], cl ; mov cl, 0xB0 ; mov esp, 0xC3C1C1BE ; retn 0xD1C3 ;  (1 found)
0x000152b4: add byte [esi], cl ; movsb  ; mov ebp, 0xC9C9C8C6 ; ret  ;  (1 found)
0x00013288: add byte [esi], cl ; ret  ;  (1 found)
0x00014b0e: add byte [esi], cl ; xor al, 0x7B ; mov dh, 0xD1 ; ror ah, cl ; retn 0xABBF ;  (1 found)
0x0001494a: add byte [esi], cl ; xor eax, 0xD2D1CB7B ; int3  ; ret  ;  (1 found)
0x000130d0: add byte [esi], dl ; retn 0xD2C3 ;  (1 found)
0x00014960: add byte [esi], dl ; sub byte [edi], ch ; xor dword [ecx], esi ; xor byte [esi], dh ; imul ebx, esp, 0xDAD2EAEA ; retn 0x1441 ;  (1 found)
0x00001149: add byte [esp+0x58], bh ; pop ebx ; pop esi ; ret  ;  (1 found)
0x00010c67: add byte [esp+edx*4-0x6464FF3C], dl ; ret  ;  (1 found)
0x00010c7f: add byte [esp-0x5454FF3D], ah ; ret  ;  (1 found)
0x0001728c: add ch, ah ; add ebx, ebp ; add ah, bl ; add byte [edx+ebx*8], cl ; salc  ; ret  ;  (1 found)
0x0001b737: add ch, bh ; ret  ;  (1 found)
0x0001c05f: add ch, bh ; ret  ;  (1 found)
0x0001c987: add ch, bh ; ret  ;  (1 found)
0x000170b2: add ch, bl ; add al, 0xEC ; add byte [0xD6E3E8EC+ebp*8], cl ; ret  ;  (1 found)
0x0001728a: add ch, bl ; add ch, ah ; add ebx, ebp ; add ah, bl ; add byte [edx+ebx*8], cl ; salc  ; ret  ;  (1 found)
0x00014e9e: add ch, byte [eax] ; add byte [ebx], dl ; das  ; xor al, 0x7B ; mov dh, 0xB7 ; retn 0xBAD1 ;  (1 found)
0x000136ac: add ch, byte [eax] ; add byte [edi+ebp], bl ; xor dword [esi+edi*2+0x7E], edi ; test dword [edx-0x3D35767E], eax ; ret  ;  (1 found)
0x00017358: add ch, byte [esi-0x46FD43FA] ; add edi, dword [eax+eax-0x434F4EF2] ; mov esi, 0xC2C3C1C1 ; ret  ;  (1 found)
0x000155be: add ch, byte [esi] ; add byte [edi], cl ; cmp byte [edx], bh ; push edx ; mov ch, 0xD6 ; xlatb  ; ret  ;  (1 found)
0x00013317: add cl, byte [bx] ; add byte [0x2F28272A], bl ; xor al, byte [eax+0x6A818280] ; mov edi, dword [ebx-0x4A] ; retn 0xC3C2 ;  (1 found)
0x000162f0: add cl, byte [eax+eax] ; push cs ; adc byte [edi], cl ; adc byte [eax], bh ; push esp ; retn 0xD2D1 ;  (1 found)
0x00014f00: add cl, byte [eax] ; add al, byte [edi] ; add eax, dword [0x0E000702] ; adc bl, byte [edx] ; sahf  ; retn 0xC3C5 ;  (1 found)
0x0001495e: add cl, byte [ebx] ; add byte [esi], dl ; sub byte [edi], ch ; xor dword [ecx], esi ; xor byte [esi], dh ; imul ebx, esp, 0xDAD2EAEA ; retn 0x1441 ;  (1 found)
0x00008033: add cl, byte [ecx+0x0CC483F0] ; pop ebx ; pop esi ; pop edi ; pop ebp ; ret  ;  (1 found)
0x000152f6: add cl, byte [ecx] ; add al, 0x0B ; add byte [edx], cl ; sub dword [0xA8B27763], ebp ; mov bl, 0xB7 ; retn 0xC202 ;  (1 found)
0x00013318: add cl, byte [edi] ; add byte [0x2F28272A], bl ; xor al, byte [eax+0x6A818280] ; mov edi, dword [ebx-0x4A] ; retn 0xC3C2 ;  (1 found)
0x000134da: add cl, byte [edi] ; add byte [esi], bl ; daa  ; sub byte [edi], ch ; xor dword [ebp+0x7E], edi ; test byte [ebx-0x48737375], al ; retn 0xC3C3 ;  (1 found)
0x00016a0e: add cl, byte [edx] ; add dword [edi], ecx ; add al, 0x10 ; add byte [0xEAE6E8D6+esi*2], cl ; out 0xDA, al ; retn 0x3DA8 ;  (1 found)
0x00013284: add dh, byte [ebp+0x0E00C202] ; ret  ;  (1 found)
0x0001415c: add dl, al ; add edi, ebx ; add ah, al ; add byte [0xDAEAEEF0], cl ; retn 0xB5B5 ;  (1 found)
0x0001375c: add dl, bh ; add byte [esi+edx*8], dl ; retn 0x0F38 ;  (1 found)
0x000158ae: add dl, byte [edi-0x6667F000] ; cwde  ; mov al, byte [0xC5C0AE99] ; salc  ; ret  ;  (1 found)
0x00016e86: add dl, byte [edx] ; add byte [edx], cl ; sbb bl, byte [eax-0x50] ; lds esp, ecx ; xlatb  ; retn 0x39A8 ;  (1 found)
0x00014aac: add dl, ch ; add byte [eax], dl ; aam 0xE6 ; fcmovu st0, st2 ; retn 0xAAC2 ;  (1 found)
0x000167f6: add dl, dl ; add byte [esi], al ; retn 0xA8B7 ;  (1 found)
0x000158ac: add dword [eax+0x10009702], ebx ; cwde  ; cdq  ; cwde  ; mov al, byte [0xC5C0AE99] ; salc  ; ret  ;  (1 found)
0x0001690e: add dword [eax+ecx], eax ; add eax, 0x11000704 ; sbb dword [edi-0x55], edx ; ret  ;  (1 found)
0x0001b72b: add dword [eax], eax ; add byte [eax], al ; add byte [ecx+edi*8], ah ; adc al, byte [eax] ; sbb bh, 0x00000012 ; add ch, bh ; ret  ;  (1 found)
0x0001c053: add dword [eax], eax ; add byte [eax], al ; add byte [ecx+edi*8], ah ; adc al, byte [eax] ; sbb bh, 0x00000012 ; add ch, bh ; ret  ;  (1 found)
0x0001c97b: add dword [eax], eax ; add byte [eax], al ; add byte [ecx+edi*8], ah ; adc al, byte [eax] ; sbb bh, 0x00000012 ; add ch, bh ; ret  ;  (1 found)
0x0000a101: add dword [eax], eax ; add byte [eax], al ; add esp, 0x00000110 ; pop ebx ; pop esi ; pop edi ; ret  ;  (1 found)
0x0000119a: add dword [eax], eax ; add byte [eax], al ; add esp, 0x08 ; pop ebx ; ret  ;  (1 found)
0x000083ad: add dword [eax], eax ; add byte [eax], al ; add esp, 0x10 ; pop ebx ; pop esi ; pop edi ; ret  ;  (1 found)
0x00000649: add dword [eax], eax ; add byte [eax], al ; call dword [0x0094D3DC] ;  (1 found)
0x00006bef: add dword [eax], eax ; add byte [eax], al ; lea esi, dword [esi+0x00000000] ; lea edi, dword [edi+0x00000000] ; add esp, 0x18 ; pop ebx ; retn 0x0010 ;  (1 found)
0x0000a561: add dword [eax], eax ; add byte [eax], al ; mov ebx, dword [esp+0x000000C0] ; mov esi, dword [esp+0x000000C4] ; mov edi, dword [esp+0x000000C8] ; add esp, 0x000000CC ; retn 0x0010 ;  (1 found)
0x00001792: add dword [eax], eax ; add byte [eax], al ; mov ebx, dword [esp+0x20] ; mov esi, dword [esp+0x24] ; mov edi, dword [esp+0x28] ; add esp, 0x2C ; retn 0x0010 ;  (1 found)
0x0000a711: add dword [eax], eax ; add byte [eax], al ; mov ebx, dword [esp+0x20] ; mov esi, dword [esp+0x24] ; mov edi, dword [esp+0x28] ; add esp, 0x2C ; retn 0x0010 ;  (1 found)
0x00009071: add dword [eax], eax ; add byte [eax], al ; mov esi, dword [esp+0x00002430] ; mov edi, dword [esp+0x00002434] ; mov ebp, dword [esp+0x00002438] ; add esp, 0x0000243C ; ret  ;  (1 found)
0x00002a1f: add dword [eax], eax ; add byte [eax], al ; pop ebx ; pop esi ; pop edi ; pop ebp ; ret  ;  (1 found)
0x000092cf: add dword [eax], eax ; add byte [eax], al ; pop ebx ; pop esi ; pop edi ; pop ebp ; ret  ;  (1 found)
0x0000a1dc: add dword [eax], eax ; add byte [eax], al ; pop ebx ; pop esi ; pop edi ; pop ebp ; ret  ;  (1 found)
0x00009ff7: add dword [eax], eax ; add byte [eax], al ; pop ebx ; pop esi ; ret  ;  (1 found)
0x00009679: add dword [eax], eax ; add byte [ebp-0x37760B9B], cl ; pop ebx ; pop esi ; pop edi ; pop ebp ; ret  ;  (1 found)
0x0000480e: add dword [eax], eax ; add byte [ebx+0x015424B4], cl ; add byte [eax], al ; mov edi, dword [esp+0x00000158] ; add esp, 0x0000015C ; ret  ;  (1 found)
0x00004865: add dword [eax], eax ; add byte [ebx+0x015424B4], cl ; add byte [eax], al ; mov edi, dword [esp+0x00000158] ; add esp, 0x0000015C ; ret  ;  (1 found)
0x00004815: add dword [eax], eax ; add byte [ebx+0x015824BC], cl ; add byte [eax], al ; add esp, 0x0000015C ; ret  ;  (1 found)
0x0000486c: add dword [eax], eax ; add byte [ebx+0x015824BC], cl ; add byte [eax], al ; add esp, 0x0000015C ; ret  ;  (1 found)
0x00001940: add dword [eax], eax ; add byte [ebx+0x016424B4], cl ; add byte [eax], al ; mov edi, dword [esp+0x00000168] ; add esp, 0x0000016C ; ret  ;  (1 found)
0x00001966: add dword [eax], eax ; add byte [ebx+0x016424B4], cl ; add byte [eax], al ; mov edi, dword [esp+0x00000168] ; add esp, 0x0000016C ; ret  ;  (1 found)
0x00001947: add dword [eax], eax ; add byte [ebx+0x016824BC], cl ; add byte [eax], al ; add esp, 0x0000016C ; ret  ;  (1 found)
0x0000196d: add dword [eax], eax ; add byte [ebx+0x016824BC], cl ; add byte [eax], al ; add esp, 0x0000016C ; ret  ;  (1 found)
0x00001b97: add dword [eax], eax ; add byte [ebx+0x019424B4], cl ; add byte [eax], al ; mov edi, dword [esp+0x00000198] ; add esp, 0x0000019C ; ret  ;  (1 found)
0x00001b9e: add dword [eax], eax ; add byte [ebx+0x019824BC], cl ; add byte [eax], al ; add esp, 0x0000019C ; ret  ;  (1 found)
0x0000a65e: add dword [eax], eax ; add byte [ebx+0x3120245C], cl ; ror byte [ebx-0x74DBDB8C], 0x0000007C ; and al, 0x28 ; add esp, 0x2C ; retn 0x0010 ;  (1 found)
0x00003c58: add dword [eax], eax ; add byte [ebx+0x5E], bl ; pop edi ; pop ebp ; ret  ;  (1 found)
0x0000a108: add dword [eax], eax ; add byte [ebx+0x5E], bl ; pop edi ; ret  ;  (1 found)
0x00000c0f: add dword [eax], eax ; add byte [ebx+0x5E], bl ; ret  ;  (1 found)
0x000025cf: add dword [eax], eax ; add byte [ecx+0x0006DCC4], al ; add byte [ebx+0x5E], bl ; pop edi ; pop ebp ; ret  ;  (1 found)
0x00003de5: add dword [eax], eax ; add byte [ecx+0x010C246C], cl ; ret  ;  (1 found)
0x0000968b: add dword [eax], eax ; add byte [ecx+0x5F5E5BC8], cl ; pop ebp ; ret  ;  (1 found)
0x00016e84: add dword [eax], ecx ; add dl, byte [edx] ; add byte [edx], cl ; sbb bl, byte [eax-0x50] ; lds esp, ecx ; xlatb  ; retn 0x39A8 ;  (1 found)
0x0000988a: add dword [ebp+0x06], esi ; add esp, 0x14 ; pop ebx ; pop esi ; ret  ;  (1 found)
0x0001b55f: add dword [ecx-0x66FF6634], ebx ; int3  ; int3  ; add byte [ecx-0x66000034], bl ; inc dword [eax] ; add byte [ecx-0x66FFCC01], bl ; jmp dword [esi+0x00] ;  (1 found)
0x0001be87: add dword [ecx-0x66FF6634], ebx ; int3  ; int3  ; add byte [ecx-0x66000034], bl ; inc dword [eax] ; add byte [ecx-0x66FFCC01], bl ; jmp dword [esi+0x00] ;  (1 found)
0x0001c7af: add dword [ecx-0x66FF6634], ebx ; int3  ; int3  ; add byte [ecx-0x66000034], bl ; inc dword [eax] ; add byte [ecx-0x66FFCC01], bl ; jmp dword [esi+0x00] ;  (1 found)
0x000162ee: add dword [ecx], ecx ; add cl, byte [eax+eax] ; push cs ; adc byte [edi], cl ; adc byte [eax], bh ; push esp ; retn 0xD2D1 ;  (1 found)
0x00016a10: add dword [edi], ecx ; add al, 0x10 ; add byte [0xEAE6E8D6+esi*2], cl ; out 0xDA, al ; retn 0x3DA8 ;  (1 found)
0x000136aa: add dword [edi], esp ; add ch, byte [eax] ; add byte [edi+ebp], bl ; xor dword [esi+edi*2+0x7E], edi ; test dword [edx-0x3D35767E], eax ; ret  ;  (1 found)
0x000152b0: add dword [edx+0x06], ebp ; xchg eax, edi ; add byte [esi], cl ; movsb  ; mov ebp, 0xC9C9C8C6 ; ret  ;  (1 found)
0x00014846: add dword [edx+0x0900B602], esi ; ret  ;  (1 found)
0x00017356: add dword [edx+eax+0x02BC06AE], edi ; mov ecx, 0x0E00BC03 ; mov cl, 0xB0 ; mov esp, 0xC3C1C1BE ; retn 0xD1C3 ;  (1 found)
0x00014d30: add dword [edx+eax], eax ; add eax, 0x0E000702 ; inc ecx ; pop esp ; ret  ;  (1 found)
0x0000070d: add dword [esi+0x00000630], eax ; adc dword [esi+0x00000634], ecx ; mov ebx, dword [esp+0x14] ; mov esi, dword [esp+0x18] ; add esp, 0x1C ; ret  ;  (1 found)
0x00000790: add dword [esi+0x00000630], eax ; adc dword [esi+0x00000634], edx ; add esp, 0x00000404 ; pop ebx ; pop esi ; ret  ;  (1 found)
0x00018c08: add dword [esi-0x02FF0000], edx ; call dword [esi-0x02FE694A] ;  (1 found)
0x00017352: add dword [esi-0x43FE41FB], ebp ; add ch, byte [esi-0x46FD43FA] ; add edi, dword [eax+eax-0x434F4EF2] ; mov esi, 0xC2C3C1C1 ; ret  ;  (1 found)
0x00012ef8: add dword [esp+eax-0x4BF8FF4D], esi ; retn 0xD6D2 ;  (1 found)
0x00001946: add dword [fs:eax], eax ; add byte [ebx+0x016824BC], cl ; add byte [eax], al ; add esp, 0x0000016C ; ret  ;  (1 found)
0x0000196c: add dword [fs:eax], eax ; add byte [ebx+0x016824BC], cl ; add byte [eax], al ; add esp, 0x0000016C ; ret  ;  (1 found)
0x0001499d: add eax, 0x02060204 ; add byte [edx], dl ; add al, 0x05 ; pop es ; or eax, 0xD6B74514 ; ret  ;  (1 found)
0x00014d2b: add eax, 0x02071002 ; add dword [edx+eax], eax ; add eax, 0x0E000702 ; inc ecx ; pop esp ; ret  ;  (1 found)
0x000162ec: add eax, 0x0209010B ; or al, 0x00 ; push cs ; adc byte [edi], cl ; adc byte [eax], bh ; push esp ; retn 0xD2D1 ;  (1 found)
0x00016a67: add eax, 0x05041200 ; or eax, 0x15160E0E ; dec eax ; lodsb  ; ret  ;  (1 found)
0x0001690d: add eax, 0x05080401 ; add al, 0x07 ; add byte [ecx], dl ; sbb dword [edi-0x55], edx ; ret  ;  (1 found)
0x00014cce: add eax, 0x0B090404 ; sub byte [edi], ch ; sub byte [edi], ch ; das  ; pop edi ; mov dl, 0xB6 ; retn 0xD1D2 ;  (1 found)
0x00014f05: add eax, 0x0E000702 ; adc bl, byte [edx] ; sahf  ; retn 0xC3C5 ;  (1 found)
0x00014d33: add eax, 0x0E000702 ; inc ecx ; pop esp ; ret  ;  (1 found)
0x00016afa: add eax, 0x0F0D000A ; push ecx ; cmpsb  ; ret  ;  (1 found)
0x000167ee: add eax, 0x1004000A ; push esp ; scasd  ; rol byte [edx], cl ; rol byte [eax], cl ; push es ; retn 0xA8B7 ;  (1 found)
0x00016911: add eax, 0x11000704 ; sbb dword [edi-0x55], edx ; ret  ;  (1 found)
0x000149a5: add eax, 0x45140D07 ; mov bh, 0xD6 ; ret  ;  (1 found)
0x00014b72: add eax, 0x51410E07 ; ret  ;  (1 found)
0x0000859d: add eax, 0x85C2970F ; dec dword [edi] ; lahf  ; ret  ;  (1 found)
0x00014f04: add eax, dword [0x0E000702] ; adc bl, byte [edx] ; sahf  ; retn 0xC3C5 ;  (1 found)
0x000034ee: add eax, dword [eax] ; add byte [ebx+0x5E], bl ; pop edi ; pop ebp ; ret  ;  (1 found)
0x0000996b: add eax, dword [eax] ; add byte [ecx-0x7EFBDBA4], cl ; retn 0x0406 ;  (1 found)
0x00004808: add eax, dword [eax] ; mov ebx, dword [esp+0x00000150] ; mov esi, dword [esp+0x00000154] ; mov edi, dword [esp+0x00000158] ; add esp, 0x0000015C ; ret  ;  (1 found)
0x00007e12: add eax, dword [eax] ; pop ebx ; pop esi ; pop edi ; ret  ;  (1 found)
0x0000447b: add eax, dword [ebx-0x017CEF14] ; movd dword [esi+0x5B7CC483], mm1 ; pop esi ; pop edi ; pop ebp ; ret  ;  (1 found)
0x00016a64: add eax, dword [edx+eax] ; add eax, 0x05041200 ; or eax, 0x15160E0E ; dec eax ; lodsb  ; ret  ;  (1 found)
0x0001753c: add eax, ecx ; add byte [eax], cl ; ret  ;  (1 found)
0x00009feb: add eax, esi ; mov dword [ebx+0x00945F10], eax ; add esp, 0x14 ; mov eax, 0x00000001 ; pop ebx ; pop esi ; ret  ;  (1 found)
0x00013b98: add ebp, dword [eax-0x4A4CF700] ; mov edx, 0xE8E8E7D8 ; out 0xE8, eax ; ret  ;  (1 found)
0x00017350: add ebp, dword [ebp-0x41FA51FF] ; add dword [edx+eax+0x02BC06AE], edi ; mov ecx, 0x0E00BC03 ; mov cl, 0xB0 ; mov esp, 0xC3C1C1BE ; retn 0xD1C3 ;  (1 found)
0x00014ac0: add ebp, dword [edi] ; add byte [eax], dl ; xor esi, dword [edi] ; mov ecx, ebx ; rol edx, 1  ; retn 0x4757 ;  (1 found)
0x00014b0c: add ebp, dword [edi] ; add byte [esi], cl ; xor al, 0x7B ; mov dh, 0xD1 ; ror ah, cl ; retn 0xABBF ;  (1 found)
0x00018c06: add ebp, edi ; add dword [esi-0x02FF0000], edx ; call dword [esi-0x02FE694A] ;  (1 found)
0x00018c0c: add ebp, edi ; call dword [esi-0x02FE694A] ;  (1 found)
0x0001728e: add ebx, ebp ; add ah, bl ; add byte [edx+ebx*8], cl ; salc  ; ret  ;  (1 found)
0x000185c0: add ebx, edi ; add al, 0xFA ; add byte [ebx], cl ; div esp ; out dx, eax ; out dx, al ; retn 0xA7EB ;  (1 found)
0x0001819a: add ebx, esi ; add al, 0xEF ; add byte [edi], al ; in al, dx ; ret  ;  (1 found)
0x00015104: add ecx, dword [ebx] ; add byte [ebx], dl ; sub eax, 0xD1B26E70 ; retn 0xD2B7 ;  (1 found)
0x000156a0: add ecx, dword [ebx] ; add byte [edi], dl ; sub ch, byte [ebx] ; cmp ch, byte [edi-0x58] ; test al, 0xB2 ; retn 0xD2D1 ;  (1 found)
0x00015102: add ecx, dword [ecx] ; add ecx, dword [ebx] ; add byte [ebx], dl ; sub eax, 0xD1B26E70 ; retn 0xD2B7 ;  (1 found)
0x000136a8: add ecx, dword [edi] ; add dword [edi], esp ; add ch, byte [eax] ; add byte [edi+ebp], bl ; xor dword [esi+edi*2+0x7E], edi ; test dword [edx-0x3D35767E], eax ; ret  ;  (1 found)
0x00012d2c: add ecx, esi ; add byte [edi], al ; int3  ; ret  ;  (1 found)
0x00014482: add edi, dword [eax+eax+0x04] ; sub byte [ebx+0x79], 0x0000007B ; add bh, byte [ebx+0x00] ; sbb bl, cl ; rol ebp, cl ; retn 0x5CC2 ;  (1 found)
0x0001735e: add edi, dword [eax+eax-0x434F4EF2] ; mov esi, 0xC2C3C1C1 ; ret  ;  (1 found)
0x0001415e: add edi, ebx ; add ah, al ; add byte [0xDAEAEEF0], cl ; retn 0xB5B5 ;  (1 found)
0x00001aa8: add edx, dword [eax+eax+0x5D5F5E5B] ; ret  ;  (1 found)
0x00007e0d: add esi, eax ; add bh, byte [0x5B0003C6] ; pop esi ; pop edi ; ret  ;  (1 found)
0x00006e82: add esp, 0x0000008C ; pop ebx ; pop esi ; pop edi ; pop ebp ; ret  ;  (1 found)
0x000075e4: add esp, 0x0000008C ; pop ebx ; pop esi ; pop edi ; pop ebp ; ret  ;  (1 found)
0x00004545: add esp, 0x0000009C ; retn 0x0010 ;  (1 found)
0x0000a535: add esp, 0x000000CC ; retn 0x0010 ;  (1 found)
0x0000a57a: add esp, 0x000000CC ; retn 0x0010 ;  (1 found)
0x0000a105: add esp, 0x00000110 ; pop ebx ; pop esi ; pop edi ; ret  ;  (1 found)
0x00000c0c: add esp, 0x00000134 ; pop ebx ; pop esi ; ret  ;  (1 found)
0x0000481f: add esp, 0x0000015C ; ret  ;  (1 found)
0x00004876: add esp, 0x0000015C ; ret  ;  (1 found)
0x00001951: add esp, 0x0000016C ; ret  ;  (1 found)
0x00001977: add esp, 0x0000016C ; ret  ;  (1 found)
0x00003c55: add esp, 0x0000018C ; pop ebx ; pop esi ; pop edi ; pop ebp ; ret  ;  (1 found)
0x00001ba8: add esp, 0x0000019C ; ret  ;  (1 found)
0x00000fd9: add esp, 0x000001AC ; ret  ;  (1 found)
0x0000a2ab: add esp, 0x0000023C ; retn 0x0010 ;  (1 found)
0x0000a2fc: add esp, 0x0000023C ; retn 0x0010 ;  (1 found)
0x00001ee9: add esp, 0x0000025C ; pop ebx ; pop esi ; pop edi ; pop ebp ; ret  ;  (1 found)
0x0000258f: add esp, 0x0000025C ; pop ebx ; pop esi ; pop edi ; pop ebp ; ret  ;  (1 found)
0x00002e8c: add esp, 0x0000025C ; pop ebx ; pop esi ; pop edi ; pop ebp ; ret  ;  (1 found)
0x00002f4c: add esp, 0x0000025C ; pop ebx ; pop esi ; pop edi ; pop ebp ; ret  ;  (1 found)
0x00003101: add esp, 0x0000026C ; pop ebx ; pop esi ; pop edi ; pop ebp ; ret  ;  (1 found)
0x000032b1: add esp, 0x0000026C ; pop ebx ; pop esi ; pop edi ; pop ebp ; ret  ;  (1 found)
0x00000f7c: add esp, 0x000002CC ; pop ebx ; pop esi ; pop edi ; pop ebp ; ret  ;  (1 found)
0x000034eb: add esp, 0x0000032C ; pop ebx ; pop esi ; pop edi ; pop ebp ; ret  ;  (1 found)
0x0000079c: add esp, 0x00000404 ; pop ebx ; pop esi ; ret  ;  (1 found)
0x00007ab4: add esp, 0x0000045C ; pop ebx ; pop esi ; pop edi ; pop ebp ; ret  ;  (1 found)
0x000078cb: add esp, 0x0000045C ; pop ebx ; pop esi ; pop edi ; pop ebp ; ret  ;  (1 found)
0x00002457: add esp, 0x0000047C ; ret  ;  (1 found)
0x000024be: add esp, 0x0000047C ; ret  ;  (1 found)
0x00002a18: add esp, 0x000006DC ; mov eax, 0x00000001 ; pop ebx ; pop esi ; pop edi ; pop ebp ; ret  ;  (1 found)
0x000025d2: add esp, 0x000006DC ; pop ebx ; pop esi ; pop edi ; pop ebp ; ret  ;  (1 found)
0x00004c7b: add esp, 0x0000085C ; pop ebx ; pop esi ; pop edi ; pop ebp ; ret  ;  (1 found)
0x00004270: add esp, 0x00000AAC ; pop ebx ; pop esi ; pop edi ; pop ebp ; ret  ;  (1 found)
0x00003c73: add esp, 0x00000AAC ; pop ebx ; pop esi ; pop edi ; pop ebp ; ret  ;  (1 found)
0x00009f74: add esp, 0x00000C68 ; pop ebx ; ret  ;  (1 found)
0x00009ea1: add esp, 0x00000C68 ; pop ebx ; ret  ;  (1 found)
0x000022ac: add esp, 0x00000CAC ; pop ebx ; pop esi ; pop edi ; pop ebp ; ret  ;  (1 found)
0x00001aa0: add esp, 0x0000142C ; mov eax, 0x00940338 ; pop ebx ; pop esi ; pop edi ; pop ebp ; ret  ;  (1 found)
0x00004eb4: add esp, 0x0000158C ; pop ebx ; pop esi ; pop edi ; pop ebp ; ret  ;  (1 found)
0x00004e92: add esp, 0x0000158C ; pop ebx ; pop esi ; pop edi ; pop ebp ; ret  ;  (1 found)
0x000008c4: add esp, 0x0000208C ; pop ebx ; pop esi ; pop edi ; pop ebp ; ret  ;  (1 found)
0x00007ccb: add esp, 0x000022DC ; pop ebx ; pop esi ; pop edi ; pop ebp ; ret  ;  (1 found)
0x000092c8: add esp, 0x0000235C ; mov eax, 0x00000001 ; pop ebx ; pop esi ; pop edi ; pop ebp ; ret  ;  (1 found)
0x0000930d: add esp, 0x0000235C ; xor eax, eax ; pop ebx ; pop esi ; pop edi ; pop ebp ; ret  ;  (1 found)
0x0000908a: add esp, 0x0000243C ; ret  ;  (1 found)
0x00002dbb: add esp, 0x00003D0C ; pop ebx ; pop esi ; pop edi ; pop ebp ; ret  ;  (1 found)
0x00009d32: add esp, 0x000043DC ; pop ebx ; pop esi ; pop edi ; pop ebp ; ret  ;  (1 found)
0x000088cb: add esp, 0x00007EEC ; pop ebx ; pop esi ; pop edi ; pop ebp ; ret  ;  (1 found)
0x00004f48: add esp, 0x00020010 ; pop ebx ; pop esi ; pop edi ; ret  ;  (1 found)
0x00005324: add esp, 0x000470EC ; retn 0x0010 ;  (1 found)
0x00007fdf: add esp, 0x08 ; mov eax, ebx ; pop ebx ; ret  ;  (1 found)
0x0000119e: add esp, 0x08 ; pop ebx ; ret  ;  (1 found)
0x000016f5: add esp, 0x08 ; pop ebx ; ret  ;  (1 found)
0x0000a1d8: add esp, 0x0C ; mov eax, 0x00000001 ; pop ebx ; pop esi ; pop edi ; pop ebp ; ret  ;  (1 found)
0x00003301: add esp, 0x0C ; mov eax, 0xFFFFFFFF ; pop ebx ; pop esi ; pop edi ; pop ebp ; ret  ;  (1 found)
0x0000330e: add esp, 0x0C ; mov eax, esi ; pop ebx ; pop esi ; pop edi ; pop ebp ; ret  ;  (1 found)
0x00007665: add esp, 0x0C ; pop ebx ; pop esi ; pop edi ; pop ebp ; ret  ;  (1 found)
0x00008035: add esp, 0x0C ; pop ebx ; pop esi ; pop edi ; pop ebp ; ret  ;  (1 found)
0x00008036: add esp, 0x0C ; pop ebx ; pop esi ; pop edi ; pop ebp ; ret  ;  (1 found)
0x0000a215: add esp, 0x0C ; xor eax, eax ; pop ebx ; pop esi ; pop edi ; pop ebp ; ret  ;  (1 found)
0x00008105: add esp, 0x10 ; mov eax, ebx ; pop ebx ; pop esi ; pop edi ; ret  ;  (1 found)
0x000083b1: add esp, 0x10 ; pop ebx ; pop esi ; pop edi ; ret  ;  (1 found)
0x00009ff3: add esp, 0x14 ; mov eax, 0x00000001 ; pop ebx ; pop esi ; ret  ;  (1 found)
0x0000147e: add esp, 0x14 ; pop ebx ; pop esi ; ret  ;  (1 found)
0x00001513: add esp, 0x14 ; pop ebx ; pop esi ; ret  ;  (1 found)
0x0000988d: add esp, 0x14 ; pop ebx ; pop esi ; ret  ;  (1 found)
0x00009ffe: add esp, 0x14 ; xor eax, eax ; pop ebx ; pop esi ; ret  ;  (1 found)
0x00006c00: add esp, 0x18 ; pop ebx ; retn 0x0010 ;  (1 found)
0x00006bce: add esp, 0x18 ; xor eax, eax ; pop ebx ; retn 0x0010 ;  (1 found)
0x00005110: add esp, 0x1C ; pop ebx ; pop esi ; pop edi ; pop ebp ; ret  ;  (1 found)
0x00000721: add esp, 0x1C ; ret  ;  (1 found)
0x00001739: add esp, 0x1C ; ret  ;  (1 found)
0x000018c2: add esp, 0x1C ; ret  ;  (1 found)
0x000010a7: add esp, 0x24 ; pop ebx ; pop edi ; ret  ;  (1 found)
0x000010e7: add esp, 0x24 ; pop ebx ; pop edi ; ret  ;  (1 found)
0x00006df8: add esp, 0x24 ; pop ebx ; pop esi ; ret  ;  (1 found)
0x0000163c: add esp, 0x2C ; ret  ;  (1 found)
0x00007e55: add esp, 0x2C ; ret  ;  (1 found)
0x00001777: add esp, 0x2C ; retn 0x0010 ;  (1 found)
0x000017a2: add esp, 0x2C ; retn 0x0010 ;  (1 found)
0x0000a66f: add esp, 0x2C ; retn 0x0010 ;  (1 found)
0x0000a721: add esp, 0x2C ; retn 0x0010 ;  (1 found)
0x00001269: add esp, 0x44 ; mov eax, edx ; pop ebx ; pop esi ; retn 0x0010 ;  (1 found)
0x0000473c: add esp, 0x44 ; pop ebx ; pop esi ; ret  ;  (1 found)
0x00006d45: add esp, 0x48 ; mov eax, edx ; pop ebx ; ret  ;  (1 found)
0x00006d88: add esp, 0x48 ; mov eax, edx ; pop ebx ; ret  ;  (1 found)
0x00004484: add esp, 0x7C ; pop ebx ; pop esi ; pop edi ; pop ebp ; ret  ;  (1 found)
0x00008315: add esp, 0x7C ; pop ebx ; pop esi ; pop edi ; pop ebp ; ret  ;  (1 found)
0x000170b0: add esp, ebp ; add ch, bl ; add al, 0xEC ; add byte [0xD6E3E8EC+ebp*8], cl ; ret  ;  (1 found)
0x0001b55e: add word [ecx-0x66FF6634], bx ; int3  ; int3  ; add byte [ecx-0x66000034], bl ; inc dword [eax] ; add byte [ecx-0x66FFCC01], bl ; jmp dword [esi+0x00] ;  (1 found)
0x0001be86: add word [ecx-0x66FF6634], bx ; int3  ; int3  ; add byte [ecx-0x66000034], bl ; inc dword [eax] ; add byte [ecx-0x66FFCC01], bl ; jmp dword [esi+0x00] ;  (1 found)
0x0001c7ae: add word [ecx-0x66FF6634], bx ; int3  ; int3  ; add byte [ecx-0x66000034], bl ; inc dword [eax] ; add byte [ecx-0x66FFCC01], bl ; jmp dword [esi+0x00] ;  (1 found)
0x0000906d: and al, 0x00 ; add byte [eax+0x00000001], bh ; mov esi, dword [esp+0x00002430] ; mov edi, dword [esp+0x00002434] ; mov ebp, dword [esp+0x00002438] ; add esp, 0x0000243C ; ret  ;  (1 found)
0x000010da: and al, 0x00 ; add byte [eax], al ; add al, ch ; cld  ; mov al, byte [0xEC830000] ; adc byte [ebx+0x5F5B24C4], al ; ret  ;  (1 found)
0x00009079: and al, 0x00 ; add byte [ebx+0x243424BC], cl ; add byte [eax], al ; mov ebp, dword [esp+0x00002438] ; add esp, 0x0000243C ; ret  ;  (1 found)
0x00009080: and al, 0x00 ; add byte [ebx+0x243824AC], cl ; add byte [eax], al ; add esp, 0x0000243C ; ret  ;  (1 found)
0x0000af30: and al, 0x02 ; pop eax ; ret  ;  (1 found)
0x00004847: and al, 0x04 ; mov dword [esp], eax ; call dword [ebx+0x14] ;  (1 found)
0x0000053d: and al, 0x0B ; add byte [eax], al ; add byte [ebp+0x000026B4], cl ; add byte [eax], al ; lea edi, dword [edi+0x00000000] ; call eax ;  (1 found)
0x0000509a: and al, 0x0F ; xchg eax, esp ; retn 0x8B8D ;  (1 found)
0x000018b8: and al, 0x10 ; mov esi, dword [esp+0x14] ; mov edi, dword [esp+0x18] ; add esp, 0x1C ; ret  ;  (1 found)
0x000018bc: and al, 0x14 ; mov edi, dword [esp+0x18] ; add esp, 0x1C ; ret  ;  (1 found)
0x0000071b: and al, 0x14 ; mov esi, dword [esp+0x18] ; add esp, 0x1C ; ret  ;  (1 found)
0x000018c0: and al, 0x18 ; add esp, 0x1C ; ret  ;  (1 found)
0x0000071f: and al, 0x18 ; add esp, 0x1C ; ret  ;  (1 found)
0x00007e45: and al, 0x1C ; mov eax, edx ; mov esi, dword [esp+0x20] ; mov edi, dword [esp+0x24] ; mov ebp, dword [esp+0x28] ; add esp, 0x2C ; ret  ;  (1 found)
0x00004841: and al, 0x1C ; mov ebx, dword [eax] ; mov dword [esp+0x04], edi ; mov dword [esp], eax ; call dword [ebx+0x14] ;  (1 found)
0x00004854: and al, 0x1C ; mov edx, dword [ecx] ; mov dword [esp], ecx ; call dword [edx+0x08] ;  (1 found)
0x00007e4b: and al, 0x20 ; mov edi, dword [esp+0x24] ; mov ebp, dword [esp+0x28] ; add esp, 0x2C ; ret  ;  (1 found)
0x00001632: and al, 0x20 ; mov esi, dword [esp+0x24] ; mov edi, dword [esp+0x28] ; add esp, 0x2C ; ret  ;  (1 found)
0x00001798: and al, 0x20 ; mov esi, dword [esp+0x24] ; mov edi, dword [esp+0x28] ; add esp, 0x2C ; retn 0x0010 ;  (1 found)
0x0000a717: and al, 0x20 ; mov esi, dword [esp+0x24] ; mov edi, dword [esp+0x28] ; add esp, 0x2C ; retn 0x0010 ;  (1 found)
0x0000176b: and al, 0x20 ; xor eax, eax ; mov esi, dword [esp+0x24] ; mov edi, dword [esp+0x28] ; add esp, 0x2C ; retn 0x0010 ;  (1 found)
0x0000a663: and al, 0x20 ; xor eax, eax ; mov esi, dword [esp+0x24] ; mov edi, dword [esp+0x28] ; add esp, 0x2C ; retn 0x0010 ;  (1 found)
0x000156ca: and al, 0x24 ; cwde  ; mov eax, 0xC6C8E1C6 ; les edi,  [esi-0x5B474745] ; mov dword [0xA4A2A2A4], eax ; mov al, byte [0xB9BCBEBB] ; ret  ;  (1 found)
0x00007e4f: and al, 0x24 ; mov ebp, dword [esp+0x28] ; add esp, 0x2C ; ret  ;  (1 found)
0x00001636: and al, 0x24 ; mov edi, dword [esp+0x28] ; add esp, 0x2C ; ret  ;  (1 found)
0x00001771: and al, 0x24 ; mov edi, dword [esp+0x28] ; add esp, 0x2C ; retn 0x0010 ;  (1 found)
0x0000179c: and al, 0x24 ; mov edi, dword [esp+0x28] ; add esp, 0x2C ; retn 0x0010 ;  (1 found)
0x0000a71b: and al, 0x24 ; mov edi, dword [esp+0x28] ; add esp, 0x2C ; retn 0x0010 ;  (1 found)
0x0000a669: and al, 0x24 ; mov edi, dword [esp+0x28] ; add esp, 0x2C ; retn 0x0010 ;  (1 found)
0x0000163a: and al, 0x28 ; add esp, 0x2C ; ret  ;  (1 found)
0x00007e53: and al, 0x28 ; add esp, 0x2C ; ret  ;  (1 found)
0x00001775: and al, 0x28 ; add esp, 0x2C ; retn 0x0010 ;  (1 found)
0x000017a0: and al, 0x28 ; add esp, 0x2C ; retn 0x0010 ;  (1 found)
0x0000a71f: and al, 0x28 ; add esp, 0x2C ; retn 0x0010 ;  (1 found)
0x0000a66d: and al, 0x28 ; add esp, 0x2C ; retn 0x0010 ;  (1 found)
0x0000a298: and al, 0x30 ; add al, byte [eax] ; add byte [ebx+0x023424BC], cl ; add byte [eax], al ; mov ebp, dword [esp+0x00000238] ; add esp, 0x0000023C ; retn 0x0010 ;  (1 found)
0x0000a2e9: and al, 0x30 ; add al, byte [eax] ; add byte [ebx+0x023424BC], cl ; add byte [eax], al ; mov ebp, dword [esp+0x00000238] ; add esp, 0x0000023C ; retn 0x0010 ;  (1 found)
0x00007ab2: and al, 0x30 ; add esp, 0x0000045C ; pop ebx ; pop esi ; pop edi ; pop ebp ; ret  ;  (1 found)
0x000078c9: and al, 0x30 ; add esp, 0x0000045C ; pop ebx ; pop esi ; pop edi ; pop ebp ; ret  ;  (1 found)
0x00009077: and al, 0x30 ; and al, 0x00 ; add byte [ebx+0x243424BC], cl ; add byte [eax], al ; mov ebp, dword [esp+0x00002438] ; add esp, 0x0000243C ; ret  ;  (1 found)
0x00007231: and al, 0x32 ; add byte [eax], al ; add al, ch ; and eax, 0x83000040 ; in al, dx ; add al, 0x89 ; ret  ;  (1 found)
0x0000a29f: and al, 0x34 ; add al, byte [eax] ; add byte [ebx+0x023824AC], cl ; add byte [eax], al ; add esp, 0x0000023C ; retn 0x0010 ;  (1 found)
0x0000a2f0: and al, 0x34 ; add al, byte [eax] ; add byte [ebx+0x023824AC], cl ; add byte [eax], al ; add esp, 0x0000023C ; retn 0x0010 ;  (1 found)
0x0000907e: and al, 0x34 ; and al, 0x00 ; add byte [ebx+0x243824AC], cl ; add byte [eax], al ; add esp, 0x0000243C ; ret  ;  (1 found)
0x0000480c: and al, 0x50 ; add dword [eax], eax ; add byte [ebx+0x015424B4], cl ; add byte [eax], al ; mov edi, dword [esp+0x00000158] ; add esp, 0x0000015C ; ret  ;  (1 found)
0x00004863: and al, 0x50 ; add dword [eax], eax ; add byte [ebx+0x015424B4], cl ; add byte [eax], al ; mov edi, dword [esp+0x00000158] ; add esp, 0x0000015C ; ret  ;  (1 found)
0x0000ab9b: and al, 0x50 ; mov bh, 0x40 ; add al, ch ; fistp dword [edx-0x01] ; dec dword [ebx-0x137603A3] ; pop ebp ; ret  ;  (1 found)
0x00004813: and al, 0x54 ; add dword [eax], eax ; add byte [ebx+0x015824BC], cl ; add byte [eax], al ; add esp, 0x0000015C ; ret  ;  (1 found)
0x0000486a: and al, 0x54 ; add dword [eax], eax ; add byte [ebx+0x015824BC], cl ; add byte [eax], al ; add esp, 0x0000015C ; ret  ;  (1 found)
0x000010a9: and al, 0x5B ; pop edi ; ret  ;  (1 found)
0x000010e9: and al, 0x5B ; pop edi ; ret  ;  (1 found)
0x00006dfa: and al, 0x5B ; pop esi ; ret  ;  (1 found)
0x00009969: and al, 0x5C ; add eax, dword [eax] ; add byte [ecx-0x7EFBDBA4], cl ; retn 0x0406 ;  (1 found)
0x00001964: and al, 0x60 ; add dword [eax], eax ; add byte [ebx+0x016424B4], cl ; add byte [eax], al ; mov edi, dword [esp+0x00000168] ; add esp, 0x0000016C ; ret  ;  (1 found)
0x0000193e: and al, 0x60 ; add dword [eax], eax ; add byte [ebx+0x016424B4], cl ; add byte [eax], al ; mov edi, dword [esp+0x00000168] ; add esp, 0x0000016C ; ret  ;  (1 found)
0x00001945: and al, 0x64 ; add dword [eax], eax ; add byte [ebx+0x016824BC], cl ; add byte [eax], al ; add esp, 0x0000016C ; ret  ;  (1 found)
0x0000196b: and al, 0x64 ; add dword [eax], eax ; add byte [ebx+0x016824BC], cl ; add byte [eax], al ; add esp, 0x0000016C ; ret  ;  (1 found)
0x000024ab: and al, 0x70 ; add al, 0x00 ; add byte [ebx+0x047424B4], cl ; add byte [eax], al ; mov edi, dword [esp+0x00000478] ; add esp, 0x0000047C ; ret  ;  (1 found)
0x00002444: and al, 0x70 ; add al, 0x00 ; add byte [ebx+0x047424B4], cl ; add byte [eax], al ; mov edi, dword [esp+0x00000478] ; add esp, 0x0000047C ; ret  ;  (1 found)
0x0000244b: and al, 0x74 ; add al, 0x00 ; add byte [ebx+0x047824BC], cl ; add byte [eax], al ; add esp, 0x0000047C ; ret  ;  (1 found)
0x000024b2: and al, 0x74 ; add al, 0x00 ; add byte [ebx+0x047824BC], cl ; add byte [eax], al ; add esp, 0x0000047C ; ret  ;  (1 found)
0x0000978d: and al, 0x81 ; ret  ;  (1 found)
0x0000265f: and al, 0x81 ; retn 0x3820 ;  (1 found)
0x0000298f: and al, 0x81 ; retn 0x3820 ;  (1 found)
0x00007e50: and al, 0x8B ; insb  ; and al, 0x28 ; add esp, 0x2C ; ret  ;  (1 found)
0x000029aa: and al, 0x90 ; add al, byte [eax] ; add byte [ecx-0x74EBDBAC], cl ; and dword [edx+eax-0x74B9FFB8], 0xFFFFFF93 ; mov al, byte [0x81004802] ; ret  ;  (1 found)
0x0000267a: and al, 0x90 ; add al, byte [eax] ; add byte [ecx-0x74EBDBAC], cl ; mov esp, dword [edx+eax-0x74B9FFB8] ; xchg eax, ebx ; mov al, byte [0x81004802] ; ret  ;  (1 found)
0x00004532: and al, 0x90 ; add byte [eax], al ; add byte [ebx+0x009424BC], cl ; add byte [eax], al ; mov ebp, dword [esp+0x00000098] ; add esp, 0x0000009C ; retn 0x0010 ;  (1 found)
0x00001b95: and al, 0x90 ; add dword [eax], eax ; add byte [ebx+0x019424B4], cl ; add byte [eax], al ; mov edi, dword [esp+0x00000198] ; add esp, 0x0000019C ; ret  ;  (1 found)
0x00004539: and al, 0x94 ; add byte [eax], al ; add byte [ebx+0x009824AC], cl ; add byte [eax], al ; add esp, 0x0000009C ; retn 0x0010 ;  (1 found)
0x00001b9c: and al, 0x94 ; add dword [eax], eax ; add byte [ebx+0x019824BC], cl ; add byte [eax], al ; add esp, 0x0000019C ; ret  ;  (1 found)
0x000156cb: and al, 0x98 ; mov eax, 0xC6C8E1C6 ; les edi,  [esi-0x5B474745] ; mov dword [0xA4A2A2A4], eax ; mov al, byte [0xB9BCBEBB] ; ret  ;  (1 found)
0x0000a567: and al, 0xC0 ; add byte [eax], al ; add byte [ebx+0x00C424B4], cl ; add byte [eax], al ; mov edi, dword [esp+0x000000C8] ; add esp, 0x000000CC ; retn 0x0010 ;  (1 found)
0x0000abbe: and al, 0xC2 ; inc eax ; add byte [ecx], dh ; rol byte [ebp-0x45348B2E], 0x00000020 ; retn 0x0040 ;  (1 found)
0x0000a56e: and al, 0xC4 ; add byte [eax], al ; add byte [ebx+0x00C824BC], cl ; add byte [eax], al ; add esp, 0x000000CC ; retn 0x0010 ;  (1 found)
0x0000a529: and al, 0xC4 ; add byte [eax], al ; add byte [ebx+0x00C824BC], cl ; add byte [eax], al ; add esp, 0x000000CC ; retn 0x0010 ;  (1 found)
0x0000af2b: and al, 0xD9 ; cld  ; fldcw word [esp+0x02] ; pop eax ; ret  ;  (1 found)
0x0000af28: and al, 0xD9 ; sub al, 0x24 ; frndint  ; fldcw word [esp+0x02] ; pop eax ; ret  ;  (1 found)
0x0000830a: and al, 0xE8 ; adc byte [0x01B80000], ch ; add byte [eax], al ; add byte [ebx+0x5E5B7CC4], al ; pop edi ; pop ebp ; ret  ;  (1 found)
0x00009d29: and al, 0xE8 ; and dword [0xEC830000], edx ; adc byte [ecx+0x0043DCC4], al ; add byte [ebx+0x5E], bl ; pop edi ; pop ebp ; ret  ;  (1 found)
0x00006ded: and al, 0xE8 ; cmp eax, 0x83000046 ; in al, dx ; add al, 0x89 ; fadd dword [ebx+0x5E5B24C4] ; ret  ;  (1 found)
0x000063cf: and al, 0xE8 ; mov ebx, 0x8900004F ; ret  ;  (1 found)
0x00009f6e: and al, 0xE8 ; or al, 0x12 ; add byte [eax], al ; add esp, 0x00000C68 ; pop ebx ; ret  ;  (1 found)
0x00009307: and al, 0xE8 ; or dword [ebx], 0x00000000 ; add byte [ecx+0x00235CC4], al ; add byte [ecx], dh ; rcr byte [ebx+0x5E], 0x0000005F ; pop ebp ; ret  ;  (1 found)
0x00003a68: and al, 0xE8 ; retn 0x0076 ;  (1 found)
0x0000aa75: and al, 0xE8 ; xor eax, 0x8BFFFF67 ; pop ebp ; cld  ; sub esp, 0x10 ; leave  ; ret  ;  (1 found)
0x0001b730: and al, 0xF9 ; adc al, byte [eax] ; sbb bh, 0x00000012 ; add ch, bh ; ret  ;  (1 found)
0x0001c058: and al, 0xF9 ; adc al, byte [eax] ; sbb bh, 0x00000012 ; add ch, bh ; ret  ;  (1 found)
0x0001c980: and al, 0xF9 ; adc al, byte [eax] ; sbb bh, 0x00000012 ; add ch, bh ; ret  ;  (1 found)
0x000006ab: and al, 0xFF ; adc eax, 0x0094D3F0 ; mov esp, ebp ; pop ebp ; ret  ;  (1 found)
0x0000068b: and al, 0xFF ; adc eax, 0x0094D400 ; mov esp, ebp ; pop ebp ; ret  ;  (1 found)
0x00007cce: and al, byte [eax] ; add byte [ebx+0x5E], bl ; pop edi ; pop ebp ; ret  ;  (1 found)
0x00000536: and al, byte [ebp-0x382A8B40] ; add al, 0x24 ; or eax, dword [eax] ; add byte [eax], al ; lea esi, dword [esi+0x00000000] ; lea edi, dword [edi+0x00000000] ; call eax ;  (1 found)
0x0000147a: and byte [eax+0x47], al ; add byte [ebx+0x5E5B14C4], al ; ret  ;  (1 found)
0x0000150f: and byte [eax+0x47], al ; add byte [ebx+0x5E5B14C4], al ; ret  ;  (1 found)
0x00001c04: and byte [eax-0x68F0A006], al ; ret  ;  (1 found)
0x000008c7: and byte [eax], al ; add byte [ebx+0x5E], bl ; pop edi ; pop ebp ; ret  ;  (1 found)
0x00008049: and byte [ebx-0x6BA21FF3], cl ; add byte [ecx+0x0FCF39F8], cl ; popfd  ; retn 0xE8C1 ;  (1 found)
0x00007e4c: and byte [ebx-0x74DBDB84], cl ; insb  ; and al, 0x28 ; add esp, 0x2C ; ret  ;  (1 found)
0x0000252f: and byte [ecx-0x74EBDBAC], cl ; mov esp, dword [edx+eax-0x74B9FFB8] ; xchg eax, ebx ; mov al, byte [0x81004802] ; ret  ;  (1 found)
0x00002eec: and byte [ecx-0x74EBDBAC], cl ; mov esp, dword [edx+eax-0x74B9FFB8] ; xchg eax, ebx ; mov al, byte [0x81004802] ; ret  ;  (1 found)
0x0000176c: and byte [ecx], dh ; ror byte [ebx-0x74DBDB8C], 0x0000007C ; and al, 0x28 ; add esp, 0x2C ; retn 0x0010 ;  (1 found)
0x0000a664: and byte [ecx], dh ; ror byte [ebx-0x74DBDB8C], 0x0000007C ; and al, 0x28 ; add esp, 0x2C ; retn 0x0010 ;  (1 found)
0x00009d2b: and dword [0xEC830000], edx ; adc byte [ecx+0x0043DCC4], al ; add byte [ebx+0x5E], bl ; pop edi ; pop ebp ; ret  ;  (1 found)
0x00007cc8: and dword [eax], eax ; add byte [ecx+0x0022DCC4], al ; add byte [ebx+0x5E], bl ; pop edi ; pop ebp ; ret  ;  (1 found)
0x000029b4: and dword [edx+eax-0x74B9FFB8], 0xFFFFFF93 ; mov al, byte [0x81004802] ; ret  ;  (1 found)
0x0001a630: and eax, 0x1B0000FF ; retn 0x0000 ;  (1 found)
0x00007387: and eax, 0x83000036 ; in al, dx ; or al, 0x89 ; ret  ;  (1 found)
0x00007237: and eax, 0x83000040 ; in al, dx ; add al, 0x89 ; ret  ;  (1 found)
0x0001730d: and eax, 0xC0BF9EAB ; mov cl, 0xB0 ; ret  ;  (1 found)
0x000092cb: and eax, dword [eax] ; add byte [eax+0x00000001], bh ; pop ebx ; pop esi ; pop edi ; pop ebp ; ret  ;  (1 found)
0x0000a86c: and eax, dword [eax] ; add byte [ecx-0x7EFBDBBC], cl ; retn 0x3840 ;  (1 found)
0x00009310: and eax, dword [eax] ; add byte [ecx], dh ; rcr byte [ebx+0x5E], 0x0000005F ; pop ebp ; ret  ;  (1 found)
0x0000a7ab: and eax, dword [eax] ; add byte [edi], cl ; test dword [edi+edi*8-0x01], ebx ; jmp dword [ecx+0x0040D6A0] ;  (1 found)
0x00007fbb: and ebp, dword [ecx-0x27] ; xchg eax, edi ; add byte [eax], al ; add byte [ebx-0x7EEBDBB4], cl ; ret  ;  (1 found)
0x00018198: and ebp, edi ; add ebx, esi ; add al, 0xEF ; add byte [edi], al ; in al, dx ; ret  ;  (1 found)
0x000156c9: and esp, dword [esp] ; cwde  ; mov eax, 0xC6C8E1C6 ; les edi,  [esi-0x5B474745] ; mov dword [0xA4A2A2A4], eax ; mov al, byte [0xB9BCBEBB] ; ret  ;  (1 found)
0x00004eae: arpl word [eax], ax ; add byte [ebx-0x3B7EF714], al ; mov word [0x5E5B0000], ss ; pop edi ; pop ebp ; ret  ;  (1 found)
0x00004e8c: arpl word [eax], ax ; add byte [ebx-0x3B7EF714], al ; mov word [0x5E5B0000], ss ; pop edi ; pop ebp ; ret  ;  (1 found)
0x0000510a: bound eax, dword [eax] ; add byte [ebx-0x3B7CEF14], al ; sbb al, 0x5B ; pop esi ; pop edi ; pop ebp ; ret  ;  (1 found)
0x0000abb0: call dword [0x0040C220+ebx*4] ;  (1 found)
0x0000066d: call dword [0x0094D3DC] ;  (1 found)
0x0000064d: call dword [0x0094D3DC] ;  (1 found)
0x000006ac: call dword [0x0094D3F0] ;  (1 found)
0x0000068c: call dword [0x0094D400] ;  (1 found)
0x00002e08: call dword [eax+0x0000B68D] ;  (1 found)
0x000043e8: call dword [eax+0x0000B68D] ;  (1 found)
0x000097f8: call dword [eax+0x0000B68D] ;  (1 found)
0x00000b4a: call dword [eax+0x0026748D] ;  (1 found)
0x00000fa0: call dword [eax+0x0026B48D] ;  (1 found)
0x00001bc0: call dword [eax+0x0026B48D] ;  (1 found)
0x00001ce7: call dword [eax+0x0026B48D] ;  (1 found)
0x0000a4de: call dword [eax+0x00CCEC81] ;  (1 found)
0x00007bfe: call dword [eax+0x22DCB855] ;  (1 found)
0x00002a3c: call dword [eax-0x47AA0977] ;  (1 found)
0x00001845: call dword [eax-0x6F6F6F70] ;  (1 found)
0x00004696: call dword [eax-0x6F6F6F70] ;  (1 found)
0x00007d22: call dword [eax-0x6F6F6F70] ;  (1 found)
0x00008e66: call dword [eax-0x6F6F6F70] ;  (1 found)
0x00009e89: call dword [eax-0x6F6F6F70] ;  (1 found)
0x0000aac2: call dword [eax-0x6F6F6F70] ;  (1 found)
0x0000b618: call dword [eax-0x6F6F6F70] ;  (1 found)
0x0000936e: call dword [eax-0x7D8347AB] ;  (1 found)
0x0000ab65: call dword [eax] ;  (1 found)
0x0000b623: call dword [eax] ;  (1 found)
0x0000484c: call dword [ebx+0x14] ;  (1 found)
0x000016cf: call dword [ebx-0x7D] ;  (1 found)
0x0000488a: call dword [edi+0x56] ;  (1 found)
0x0000485b: call dword [edx+0x08] ;  (1 found)
0x00010d3c: call dword [esi+0x000096B9] ;  (1 found)
0x000043f3: call dword [esi+0x31] ;  (1 found)
0x0000a118: call dword [esi+0x31] ;  (1 found)
0x0000773a: call dword [esi+0x53] ;  (1 found)
0x00018c0e: call dword [esi-0x02FE694A] ;  (1 found)
0x00000550: call eax ;  (1 found)
0x0000078f: cdq  ; add dword [esi+0x00000630], eax ; adc dword [esi+0x00000634], edx ; add esp, 0x00000404 ; pop ebx ; pop esi ; ret  ;  (1 found)
0x000158b3: cdq  ; cwde  ; mov al, byte [0xC5C0AE99] ; salc  ; ret  ;  (1 found)
0x0001b56c: cdq  ; inc dword [eax] ; add byte [ecx-0x66FFCC01], bl ; jmp dword [esi+0x00] ;  (1 found)
0x0001be94: cdq  ; inc dword [eax] ; add byte [ecx-0x66FFCC01], bl ; jmp dword [esi+0x00] ;  (1 found)
0x0001c7bc: cdq  ; inc dword [eax] ; add byte [ecx-0x66FFCC01], bl ; jmp dword [esi+0x00] ;  (1 found)
0x0001b564: cdq  ; int3  ; int3  ; add byte [ecx-0x66000034], bl ; inc dword [eax] ; add byte [ecx-0x66FFCC01], bl ; jmp dword [esi+0x00] ;  (1 found)
0x0001be8c: cdq  ; int3  ; int3  ; add byte [ecx-0x66000034], bl ; inc dword [eax] ; add byte [ecx-0x66FFCC01], bl ; jmp dword [esi+0x00] ;  (1 found)
0x0001c7b4: cdq  ; int3  ; int3  ; add byte [ecx-0x66000034], bl ; inc dword [eax] ; add byte [ecx-0x66FFCC01], bl ; jmp dword [esi+0x00] ;  (1 found)
0x0001b574: cdq  ; jmp dword [esi+0x00] ;  (1 found)
0x0001be9c: cdq  ; jmp dword [esi+0x00] ;  (1 found)
0x0001c7c4: cdq  ; jmp dword [esi+0x00] ;  (1 found)
0x00014614: cdq  ; mov byte [0xC7C1BCB8], al ; xlatb  ; xlatb  ; ret  ;  (1 found)
0x000158b6: cdq  ; scasb  ; rol ch, 0xFFFFFFD6 ; ret  ;  (1 found)
0x00006bca: clc  ; adc byte [ecx+edi-0x7D], dh ; les ebx,  [eax] ; xor eax, eax ; pop ebx ; retn 0x0010 ;  (1 found)
0x00001961: clc  ; mov ebx, dword [esp+0x00000160] ; mov esi, dword [esp+0x00000164] ; mov edi, dword [esp+0x00000168] ; add esp, 0x0000016C ; ret  ;  (1 found)
0x0000193b: clc  ; mov ebx, dword [esp+0x00000160] ; mov esi, dword [esp+0x00000164] ; mov edi, dword [esp+0x00000168] ; add esp, 0x0000016C ; ret  ;  (1 found)
0x00000517: clc  ; mov esp, ebp ; pop ebp ; retn 0x0004 ;  (1 found)
0x0000b1c2: clc  ; rcl dword [eax+eax+0x00009090], cl ; add byte [eax], al ; add byte [eax], al ; add byte [eax], al ; jmp dword [0x0094D4C4] ;  (1 found)
0x00005595: cld  ; aaa  ; xchg eax, esp ; add byte [ecx], ch ; ret  ;  (1 found)
0x00018365: cld  ; add byte [edi+esi*8], dl ; cmc  ; hlt  ; div edx ; in al, dx ; ret  ;  (1 found)
0x0000af2d: cld  ; fldcw word [esp+0x02] ; pop eax ; ret  ;  (1 found)
0x00008ee9: cld  ; lea esp, dword [ebp-0x0C] ; pop ebx ; pop esi ; pop edi ; pop ebp ; ret  ;  (1 found)
0x0000ac63: cld  ; leave  ; ret  ;  (1 found)
0x000010e0: cld  ; mov al, byte [0xEC830000] ; adc byte [ebx+0x5F5B24C4], al ; ret  ;  (1 found)
0x00000514: cld  ; mov ebx, dword [ebp-0x08] ; mov esp, ebp ; pop ebp ; retn 0x0004 ;  (1 found)
0x0000aba7: cld  ; mov esp, ebp ; pop ebp ; ret  ;  (1 found)
0x0000b1a2: cld  ; rcl dword [eax+eax+0x00009090], cl ; add byte [eax], al ; add byte [eax], al ; add byte [eax], al ; jmp dword [0x0094D44C] ;  (1 found)
0x0000aa7d: cld  ; sub esp, 0x10 ; leave  ; ret  ;  (1 found)
0x000185c3: cli  ; add byte [ebx], cl ; div esp ; out dx, eax ; out dx, al ; retn 0xA7EB ;  (1 found)
0x000018b5: cli  ; mov ebx, dword [esp+0x10] ; mov esi, dword [esp+0x14] ; mov edi, dword [esp+0x18] ; add esp, 0x1C ; ret  ;  (1 found)
0x00018910: cli  ; ret  ;  (1 found)
0x00018369: cmc  ; hlt  ; div edx ; in al, dx ; ret  ;  (1 found)
0x0001890b: cmc  ; idiv ecx ; stc  ; cli  ; ret  ;  (1 found)
0x0001890c: cmc  ; idiv ecx ; stc  ; cli  ; ret  ;  (1 found)
0x0000a2ad: cmp al, 0x02 ; add byte [eax], al ; retn 0x0010 ;  (1 found)
0x0000a2fe: cmp al, 0x02 ; add byte [eax], al ; retn 0x0010 ;  (1 found)
0x0000908c: cmp al, 0x24 ; add byte [eax], al ; ret  ;  (1 found)
0x0000ac5c: cmp al, 0x75 ; pop es ; mov eax, ebx ; mov ebx, dword [ebp-0x04] ; leave  ; ret  ;  (1 found)
0x0001a62d: cmp al, byte [eax] ; add byte [0x1B0000FF], ah ; retn 0x0000 ;  (1 found)
0x000152f0: cmp byte [0x0402040F], cl ; add cl, byte [ecx] ; add al, 0x0B ; add byte [edx], cl ; sub dword [0xA8B27763], ebp ; mov bl, 0xB7 ; retn 0xC202 ;  (1 found)
0x0001aa2e: cmp byte [eax], bh ; cmp byte [eax], cl ; inc ebp ; inc ebp ; ret  ;  (1 found)
0x0001aa2f: cmp byte [eax], bh ; or byte [ebp+0x45], al ; ret  ;  (1 found)
0x0001671e: cmp byte [eax], bh ; retn 0xEAEA ;  (1 found)
0x0001aa30: cmp byte [eax], cl ; inc ebp ; inc ebp ; ret  ;  (1 found)
0x00013d69: cmp byte [eax], dl ; adc byte [ecx], bh ; pop edx ; test eax, 0xB5B3AFAA ; ret  ;  (1 found)
0x00001aa7: cmp byte [ebx], al ; xchg eax, esp ; add byte [ebx+0x5E], bl ; pop edi ; pop ebp ; ret  ;  (1 found)
0x00003c6b: cmp byte [ebx], dh ; xchg eax, esp ; add byte [ebp-0x7EF48B40], al ; les ebp,  [edx+ecx+0x5E5B0000] ; pop edi ; pop ebp ; ret  ;  (1 found)
0x000046f1: cmp byte [ecx+0x29102454], cl ; ret  ;  (1 found)
0x0000178a: cmp byte [ecx+0x7400001F], dl ; imul edi, dword [eax+0x00000001], 0x20245C8B ; mov esi, dword [esp+0x24] ; mov edi, dword [esp+0x28] ; add esp, 0x2C ; retn 0x0010 ;  (1 found)
0x0000a2a7: cmp byte [edx], al ; add byte [eax], al ; add esp, 0x0000023C ; retn 0x0010 ;  (1 found)
0x0000a2f8: cmp byte [edx], al ; add byte [eax], al ; add esp, 0x0000023C ; retn 0x0010 ;  (1 found)
0x000155c2: cmp byte [edx], bh ; push edx ; mov ch, 0xD6 ; xlatb  ; ret  ;  (1 found)
0x00016968: cmp byte [esi-0x2E2D2940], ah ; retn 0x72A8 ;  (1 found)
0x0001501e: cmp byte [esi], ch ; sub eax, 0x05352827 ; sub byte [eax], al ; adc byte [0xDAD6B266], ch ; ret  ;  (1 found)
0x0000765f: cmp ch, byte [0xC0310A74] ; add esp, 0x0C ; pop ebx ; pop esi ; pop edi ; pop ebp ; ret  ;  (1 found)
0x0001597f: cmp ch, byte [ebp-0x58] ; mov bl, 0xD2 ; retn 0xD8DA ;  (1 found)
0x000156a7: cmp ch, byte [edi-0x58] ; test al, 0xB2 ; retn 0xD2D1 ;  (1 found)
0x000155c3: cmp dl, byte [edx-0x4B] ; salc  ; xlatb  ; ret  ;  (1 found)
0x0001706e: cmp dword [eax-0x5A], edx ; stosb  ; cmpsb  ; test al, 0xAA ; test al, 0xAA ; mov ah, 0xC3 ; retn 0xD2C2 ;  (1 found)
0x00013d68: cmp dword [eax], edi ; adc byte [eax], dl ; cmp dword [edx-0x57], ebx ; stosb  ; scasd  ; mov bl, 0xB5 ; ret  ;  (1 found)
0x0001501d: cmp dword [eax], edi ; sub eax, 0x05352827 ; sub byte [eax], al ; adc byte [0xDAD6B266], ch ; ret  ;  (1 found)
0x00006bcd: cmp dword [ebx-0x3FCEE73C], eax ; pop ebx ; retn 0x0010 ;  (1 found)
0x00013d67: cmp dword [ecx], edi ; cmp byte [eax], dl ; adc byte [ecx], bh ; pop edx ; test eax, 0xB5B3AFAA ; ret  ;  (1 found)
0x00013d6c: cmp dword [edx-0x57], ebx ; stosb  ; scasd  ; mov bl, 0xB5 ; ret  ;  (1 found)
0x00007e10: cmp eax, 0x5B0003C6 ; pop esi ; pop edi ; ret  ;  (1 found)
0x00002dbe: cmp eax, 0x5E5B0000 ; pop edi ; pop ebp ; ret  ;  (1 found)
0x00006def: cmp eax, 0x83000046 ; in al, dx ; add al, 0x89 ; fadd dword [ebx+0x5E5B24C4] ; ret  ;  (1 found)
0x00013b93: cmp eax, dword [edx+0x74] ; test al, 0x29 ; add ebp, dword [eax-0x4A4CF700] ; mov edx, 0xE8E8E7D8 ; out 0xE8, eax ; ret  ;  (1 found)
0x000134d9: cmp eax, dword [edx] ; ltr word [esi] ; daa  ; sub byte [edi], ch ; xor dword [ebp+0x7E], edi ; test byte [ebx-0x48737375], al ; retn 0xC3C3 ;  (1 found)
0x0000ac5b: cmp edi, dword [0x8BD88907+esi*2] ; pop ebp ; cld  ; leave  ; ret  ;  (1 found)
0x00016b00: cmpsb  ; ret  ;  (1 found)
0x00017070: cmpsb  ; stosb  ; cmpsb  ; test al, 0xAA ; test al, 0xAA ; mov ah, 0xC3 ; retn 0xD2C2 ;  (1 found)
0x00017072: cmpsb  ; test al, 0xAA ; test al, 0xAA ; mov ah, 0xC3 ; retn 0xD2C2 ;  (1 found)
0x00017386: cmpsd  ; mov al, 0xB1 ; ret  ;  (1 found)
0x000172fa: cmpsd  ; ret  ;  (1 found)
0x0000093b: cwde  ; add byte [eax], al ; add byte [ecx], bh ; int 0x0F ; pushfd  ; retn 0xFB83 ;  (1 found)
0x00000a91: cwde  ; add byte [eax], al ; add byte [ecx], bh ; int 0x0F ; pushfd  ; retn 0xFB83 ;  (1 found)
0x00001731: cwde  ; add byte [eax], al ; mov eax, 0x00474040 ; add esp, 0x1C ; ret  ;  (1 found)
0x000158ad: cwde  ; add dl, byte [edi-0x6667F000] ; cwde  ; mov al, byte [0xC5C0AE99] ; salc  ; ret  ;  (1 found)
0x000158b2: cwde  ; cdq  ; cwde  ; mov al, byte [0xC5C0AE99] ; salc  ; ret  ;  (1 found)
0x00014613: cwde  ; cdq  ; mov byte [0xC7C1BCB8], al ; xlatb  ; xlatb  ; ret  ;  (1 found)
0x000158b4: cwde  ; mov al, byte [0xC5C0AE99] ; salc  ; ret  ;  (1 found)
0x000156cc: cwde  ; mov eax, 0xC6C8E1C6 ; les edi,  [esi-0x5B474745] ; mov dword [0xA4A2A2A4], eax ; mov al, byte [0xB9BCBEBB] ; ret  ;  (1 found)
0x0000b572: cwde  ; rcl dword [eax+eax+0x00009090], cl ; add byte [eax], al ; add byte [eax], al ; add byte [eax], al ; jmp dword [0x0094D384] ;  (1 found)
0x00006bfb: daa  ; add byte [eax], al ; add byte [eax], al ; add esp, 0x18 ; pop ebx ; retn 0x0010 ;  (1 found)
0x0000054b: daa  ; add byte [eax], al ; add byte [eax], al ; call eax ;  (1 found)
0x000136ab: daa  ; add ch, byte [eax] ; add byte [edi+ebp], bl ; xor dword [esi+edi*2+0x7E], edi ; test dword [edx-0x3D35767E], eax ; ret  ;  (1 found)
0x0001597e: daa  ; cmp ch, byte [ebp-0x58] ; mov bl, 0xD2 ; retn 0xD8DA ;  (1 found)
0x00015021: daa  ; sub byte [0x10002805], dh ; sub eax, 0xDAD6B266 ; ret  ;  (1 found)
0x0001331d: daa  ; sub byte [edi], ch ; xor al, byte [eax+0x6A818280] ; mov edi, dword [ebx-0x4A] ; retn 0xC3C2 ;  (1 found)
0x000134de: daa  ; sub byte [edi], ch ; xor dword [ebp+0x7E], edi ; test byte [ebx-0x48737375], al ; retn 0xC3C3 ;  (1 found)
0x000156a4: daa  ; sub ch, byte [ebx] ; cmp ch, byte [edi-0x58] ; test al, 0xB2 ; retn 0xD2D1 ;  (1 found)
0x00014947: das  ; add al, 0x2F ; add byte [esi], cl ; xor eax, 0xD2D1CB7B ; int3  ; ret  ;  (1 found)
0x00014ac1: das  ; add byte [eax], dl ; xor esi, dword [edi] ; mov ecx, ebx ; rol edx, 1  ; retn 0x4757 ;  (1 found)
0x00014b0d: das  ; add byte [esi], cl ; xor al, 0x7B ; mov dh, 0xD1 ; ror ah, cl ; retn 0xABBF ;  (1 found)
0x00014949: das  ; add byte [esi], cl ; xor eax, 0xD2D1CB7B ; int3  ; ret  ;  (1 found)
0x00014abf: das  ; add ebp, dword [edi] ; add byte [eax], dl ; xor esi, dword [edi] ; mov ecx, ebx ; rol edx, 1  ; retn 0x4757 ;  (1 found)
0x0000a7aa: das  ; and eax, dword [eax] ; add byte [edi], cl ; test dword [edi+edi*8-0x01], ebx ; jmp dword [ecx+0x0040D6A0] ;  (1 found)
0x00014cd6: das  ; das  ; pop edi ; mov dl, 0xB6 ; retn 0xD1D2 ;  (1 found)
0x0001492e: das  ; das  ; xor byte [eax-0x36], ah ; rcl cl, cl ; rcl cl, cl ; fcomp st0, st2 ; retn 0x0DA6 ;  (1 found)
0x000141f6: das  ; das  ; xor dword [ecx], esi ; xor al, byte [edi-0x73357575] ; retn 0x9FC0 ;  (1 found)
0x00014cd7: das  ; pop edi ; mov dl, 0xB6 ; retn 0xD1D2 ;  (1 found)
0x00014cd4: das  ; sub byte [edi], ch ; das  ; pop edi ; mov dl, 0xB6 ; retn 0xD1D2 ;  (1 found)
0x00014ea2: das  ; xor al, 0x7B ; mov dh, 0xB7 ; retn 0xBAD1 ;  (1 found)
0x0001331f: das  ; xor al, byte [eax+0x6A818280] ; mov edi, dword [ebx-0x4A] ; retn 0xC3C2 ;  (1 found)
0x0001492f: das  ; xor byte [eax-0x36], ah ; rcl cl, cl ; rcl cl, cl ; fcomp st0, st2 ; retn 0x0DA6 ;  (1 found)
0x000134e1: das  ; xor dword [ebp+0x7E], edi ; test byte [ebx-0x48737375], al ; retn 0xC3C3 ;  (1 found)
0x000141f7: das  ; xor dword [ecx], esi ; xor al, byte [edi-0x73357575] ; retn 0x9FC0 ;  (1 found)
0x00014963: das  ; xor dword [ecx], esi ; xor byte [esi], dh ; imul ebx, esp, 0xDAD2EAEA ; retn 0x1441 ;  (1 found)
0x000136b0: das  ; xor dword [esi+edi*2+0x7E], edi ; test dword [edx-0x3D35767E], eax ; ret  ;  (1 found)
0x00007893: dec dword [ebp+0x000000B6] ; add byte [ebp+0x000000BF], cl ; add byte [esi+0x0F], cl ; xchg eax, esp ; retn 0x7C81 ;  (1 found)
0x00009666: dec dword [ebp-0x36CE0B9B] ; mov eax, ecx ; pop ebx ; pop esi ; pop edi ; pop ebp ; ret  ;  (1 found)
0x0000aba4: dec dword [ebx-0x137603A3] ; pop ebp ; ret  ;  (1 found)
0x0000aa7a: dec dword [ebx-0x137C03A3] ; adc cl, cl ; ret  ;  (1 found)
0x00008307: dec dword [ecx+0x10E82434] ; sub eax, 0x01B80000 ; add byte [eax], al ; add byte [ebx+0x5E5B7CC4], al ; pop edi ; pop ebp ; ret  ;  (1 found)
0x000014ff: dec dword [ecx+0x40D01035] ; add byte [ebx+0x40D01035], cl ; add byte [ebx+0x4020B504], cl ; inc edi ; add byte [ebx+0x5E5B14C4], al ; ret  ;  (1 found)
0x00000677: dec dword [ecx+0x5DC031EC] ; ret  ;  (1 found)
0x00000657: dec dword [ecx+0x5DC031EC] ; ret  ;  (1 found)
0x0000ae6e: dec dword [ecx-0x0FE2763D] ; ret  ;  (1 found)
0x000085a2: dec dword [edi] ; lahf  ; ret  ;  (1 found)
0x0000502a: dec dword [edi] ; xchg eax, esp ; ret  ;  (1 found)
0x0000add5: dec dword [edx+0x79] ; out 0xA1, eax ; mov ah, 0xF1 ; inc eax ; add byte [ecx-0x0000977B], cl ; jmp dword [ecx+0x0040F1B8] ;  (1 found)
0x00002538: dec eax ; add byte [esi-0x75], al ; xchg eax, ebx ; mov al, byte [0x81004802] ; ret  ;  (1 found)
0x00002ef5: dec eax ; add byte [esi-0x75], al ; xchg eax, ebx ; mov al, byte [0x81004802] ; ret  ;  (1 found)
0x00002687: dec eax ; add byte [esi-0x75], al ; xchg eax, ebx ; mov al, byte [0x81004802] ; ret  ;  (1 found)
0x000029b7: dec eax ; add byte [esi-0x75], al ; xchg eax, ebx ; mov al, byte [0x81004802] ; ret  ;  (1 found)
0x00016a71: dec eax ; lodsb  ; ret  ;  (1 found)
0x00006d8a: dec eax ; mov eax, edx ; pop ebx ; ret  ;  (1 found)
0x00006d47: dec eax ; mov eax, edx ; pop ebx ; ret  ;  (1 found)
0x00001146: dec eax ; xor edx, dword [eax+eax+0x5B58E47C] ; pop esi ; ret  ;  (1 found)
0x00013281: dec ebp ; add al, 0xB7 ; add dh, byte [ebp+0x0E00C202] ; ret  ;  (1 found)
0x00015467: dec ebp ; dec ecx ; sahf  ; mov cl, 0xC0 ; ret  ;  (1 found)
0x000144dc: dec ebp ; pop ecx ; stosd  ; lodsb  ; lodsd  ; ret  ;  (1 found)
0x00017383: dec ecx ; adc eax, 0xB1B0A746 ; ret  ;  (1 found)
0x00015468: dec ecx ; sahf  ; mov cl, 0xC0 ; ret  ;  (1 found)
0x00017380: dec esi ; inc ecx ; inc ebx ; dec ecx ; adc eax, 0xB1B0A746 ; ret  ;  (1 found)
0x00004853: dec esp ; and al, 0x1C ; mov edx, dword [ecx] ; mov dword [esp], ecx ; call dword [edx+0x08] ;  (1 found)
0x00006e7f: div byte [ebp+0x0E] ; add esp, 0x0000008C ; pop ebx ; pop esi ; pop edi ; pop ebp ; ret  ;  (1 found)
0x00018368: div ebp ; hlt  ; div edx ; in al, dx ; ret  ;  (1 found)
0x0001836b: div edx ; in al, dx ; ret  ;  (1 found)
0x000185c6: div esp ; out dx, eax ; out dx, al ; retn 0xA7EB ;  (1 found)
0x0000a576: enter 0x0000, 0x00 ; add esp, 0x000000CC ; retn 0x0010 ;  (1 found)
0x0000a531: enter 0x0000, 0x00 ; add esp, 0x000000CC ; retn 0x0010 ;  (1 found)
0x00010cd9: enter 0x00D0, 0xCC ; int3  ; rol byte [eax], cl ; ret  ;  (1 found)
0x0000966d: enter 0x5E5B, 0x5F ; pop ebp ; ret  ;  (1 found)
0x0000968f: enter 0x5E5B, 0x5F ; pop ebp ; ret  ;  (1 found)
0x00009680: enter 0x5E5B, 0x5F ; pop ebp ; ret  ;  (1 found)
0x00017531: enter 0xC4C6, 0xC4 ; mov bh, 0xFFFFFFC1 ; rol bh, 0xFFFFFFC1 ; adc byte [ebx], al ; rol dword [eax], 0x08 ; ret  ;  (1 found)
0x000150f5: enter 0xC9C9, 0xC8 ; mov edi, 0x105B5BA6 ; or cl, byte [edx] ; or dword [ebx+eax+0x000B0309], ebx ; adc esp, dword [esi] ; sub eax, 0xD1B26E70 ; retn 0xD2B7 ;  (1 found)
0x00006df7: fadd dword [ebx+0x5E5B24C4] ; ret  ;  (1 found)
0x00009d34: fadd qword [ebx+0x00] ; add byte [ebx+0x5E], bl ; pop edi ; pop ebp ; ret  ;  (1 found)
0x000025d4: fadd qword [esi] ; add byte [eax], al ; pop ebx ; pop esi ; pop edi ; pop ebp ; ret  ;  (1 found)
0x00013d1a: fcmovb st0, st2 ; retn 0x395B ;  (1 found)
0x00014ab3: fcmovb st0, st2 ; retn 0xA6AA ;  (1 found)
0x000169e8: fcmovbe st0, st2 ; retn 0xB3B7 ;  (1 found)
0x00016d36: fcmovbe st0, st2 ; retn 0xB7C2 ;  (1 found)
0x00017294: fcmovbe st0, st6 ; ret  ;  (1 found)
0x00013beb: fcmovbe st0, st6 ; rol bl, cl ; retn 0x8CB2 ;  (1 found)
0x00013669: fcmovnbe st0, st5 ; fcomp3 st2 ; retn 0x40B2 ;  (1 found)
0x00014706: fcmovnu st0, st4 ; fcom2 st5 ; fsub st2, st0 ; out 0xD9, al ; retn 0x5BAF ;  (1 found)
0x0001437f: fcmovu st0, st1 ; retn 0x0539 ;  (1 found)
0x00014920: fcmovu st0, st2 ; retn 0x0D0E ;  (1 found)
0x00014ab2: fcmovu st0, st2 ; retn 0xAAC2 ;  (1 found)
0x00014708: fcom2 st5 ; fsub st2, st0 ; out 0xD9, al ; retn 0x5BAF ;  (1 found)
0x00013be6: fcomip st0, st0 ; out dx, eax ; out dx, eax ; out dx, al ; fcmovbe st0, st6 ; rol bl, cl ; retn 0x8CB2 ;  (1 found)
0x00009571: fcomp dword [ebp-0x7ABC0001] ; ror byte [edi], cl ; xchg eax, ebp ; retn 0xFB83 ;  (1 found)
0x00008109: fcomp dword [ebx+0x5E] ; pop edi ; ret  ;  (1 found)
0x00014937: fcomp st0, st2 ; retn 0x0DA6 ;  (1 found)
0x0001366b: fcomp3 st2 ; retn 0x40B2 ;  (1 found)
0x0000530b: fdiv qword [eax+0x04] ; add byte [ebx+0x70E024B4], cl ; add al, 0x00 ; mov edi, dword [esp+0x000470E4] ; mov ebp, dword [esp+0x000470E8] ; add esp, 0x000470EC ; retn 0x0010 ;  (1 found)
0x00014aab: fild dword [edx] ; aad 0x00 ; adc ah, dl ; out 0xDA, al ; fcmovb st0, st2 ; retn 0xA6AA ;  (1 found)
0x00014aa8: fist dword [edx+eax+0x00D502DB] ; adc ah, dl ; out 0xDA, al ; fcmovb st0, st2 ; retn 0xA6AA ;  (1 found)
0x0001b735: fist word [edx] ; add ch, bh ; ret  ;  (1 found)
0x0001c05d: fist word [edx] ; add ch, bh ; ret  ;  (1 found)
0x0001c985: fist word [edx] ; add ch, bh ; ret  ;  (1 found)
0x0000aba1: fistp dword [edx-0x01] ; dec dword [ebx-0x137603A3] ; pop ebp ; ret  ;  (1 found)
0x00007fb7: fisttp dword [eax] ; retn 0x2375 ;  (1 found)
0x0000805b: fisttp dword [eax] ; retn 0x850F ;  (1 found)
0x0000abbb: fisttp qword [ebx+0x40C22415] ; add byte [ecx], dh ; rol byte [ebp-0x45348B2E], 0x00000020 ; retn 0x0040 ;  (1 found)
0x0000af2e: fldcw word [esp+0x02] ; pop eax ; ret  ;  (1 found)
0x0000af29: fldcw word [esp] ; frndint  ; fldcw word [esp+0x02] ; pop eax ; ret  ;  (1 found)
0x00000511: fmul dword [ebx+0x5D8BFC75] ; clc  ; mov esp, ebp ; pop ebp ; retn 0x0004 ;  (1 found)
0x0000ab43: fninit  ; pop ebp ; ret  ;  (1 found)
0x0000af2c: frndint  ; fldcw word [esp+0x02] ; pop eax ; ret  ;  (1 found)
0x0001b453: fsave  [ebx] ; jmp dword [esi+0x01] ;  (1 found)
0x00007ea5: fst qword [edi-0x7F000000] ; ret  ;  (1 found)
0x0000aaff: fstenv  [edx-0x12] ; pop ebx ; pop esi ; pop ebp ; ret  ;  (1 found)
0x00001623: fstp dword [ecx-0x09770000] ; lea edi, dword [edi+0x00000000] ; mov ebx, dword [esp+0x20] ; mov esi, dword [esp+0x24] ; mov edi, dword [esp+0x28] ; add esp, 0x2C ; ret  ;  (1 found)
0x00001dcb: fstp tword [ecx] ; ret  ;  (1 found)
0x0000507c: fstp tword [ecx] ; ret  ;  (1 found)
0x00014afc: fstp1 st2 ; retn 0x0D42 ;  (1 found)
0x00008ee3: fstsw word [edi+ebp*8-0x0376FFC0] ; lea esp, dword [ebp-0x0C] ; pop ebx ; pop esi ; pop edi ; pop ebp ; ret  ;  (1 found)
0x00007ccd: fsub qword [edx] ; add byte [eax], al ; pop ebx ; pop esi ; pop edi ; pop ebp ; ret  ;  (1 found)
0x0001470a: fsub st2, st0 ; out 0xD9, al ; retn 0x5BAF ;  (1 found)
0x0001836a: hlt  ; div edx ; in al, dx ; ret  ;  (1 found)
0x0000967e: hlt  ; mov eax, ecx ; pop ebx ; pop esi ; pop edi ; pop ebp ; ret  ;  (1 found)
0x0000967d: hlt  ; mov eax, ecx ; pop ebx ; pop esi ; pop edi ; pop ebp ; ret  ;  (1 found)
0x0001853e: hlt  ; out 0xC3, eax ; mov cl, 0xAC ; lodsb  ; mov cl, 0xC0 ; ret  ;  (1 found)
0x000185c7: hlt  ; out dx, eax ; out dx, al ; retn 0xA7EB ;  (1 found)
0x00001d90: hlt  ; pop ebx ; pop esi ; pop edi ; pop ebp ; ret  ;  (1 found)
0x00001d91: hlt  ; pop ebx ; pop esi ; pop edi ; pop ebp ; ret  ;  (1 found)
0x00008eec: hlt  ; pop ebx ; pop esi ; pop edi ; pop ebp ; ret  ;  (1 found)
0x00008eeb: hlt  ; pop ebx ; pop esi ; pop edi ; pop ebp ; ret  ;  (1 found)
0x0000ae89: hlt  ; pop ebx ; pop esi ; pop edi ; pop ebp ; ret  ;  (1 found)
0x0000ae88: hlt  ; pop ebx ; pop esi ; pop edi ; pop ebp ; ret  ;  (1 found)
0x0000ac88: hlt  ; pop ebx ; pop esi ; pop edi ; pop ebp ; ret  ;  (1 found)
0x0000ac87: hlt  ; pop ebx ; pop esi ; pop edi ; pop ebp ; ret  ;  (1 found)
0x0000afa2: hlt  ; rcl dword [eax+eax+0x00009090], cl ; add byte [eax], al ; add byte [eax], al ; add byte [eax], al ; jmp dword [0x0094D3D0] ;  (1 found)
0x00008ed8: hlt  ; xor eax, eax ; pop ebx ; pop esi ; pop edi ; pop ebp ; ret  ;  (1 found)
0x00008ed9: hlt  ; xor eax, eax ; pop ebx ; pop esi ; pop edi ; pop ebp ; ret  ;  (1 found)
0x00006ac8: idiv bh ; jmp dword [ecx+0x009437E4] ;  (1 found)
0x0001890d: idiv ecx ; stc  ; cli  ; ret  ;  (1 found)
0x0000abb9: imul bl ; fisttp qword [ebx+0x40C22415] ; add byte [ecx], dh ; rol byte [ebp-0x45348B2E], 0x00000020 ; retn 0x0040 ;  (1 found)
0x00006ede: imul byte [ecx] ; ret  ;  (1 found)
0x00004736: imul eax, dword [eax], 0x00 ; sub esp, 0x18 ; add esp, 0x44 ; pop ebx ; pop esi ; ret  ;  (1 found)
0x00014967: imul ebx, esp, 0xDAD2EAEA ; retn 0x1441 ;  (1 found)
0x00014968: imul ebx, esp, 0xDAD2EAEA ; retn 0x1441 ;  (1 found)
0x00001790: imul edi, dword [eax+0x00000001], 0x20245C8B ; mov esi, dword [esp+0x24] ; mov edi, dword [esp+0x28] ; add esp, 0x2C ; retn 0x0010 ;  (1 found)
0x00013341: imul edi, dword [ecx-0x32], 0xD9 ; salc  ; retn 0x6D78 ;  (1 found)
0x0000114b: in al, 0x58 ; pop ebx ; pop esi ; ret  ;  (1 found)
0x00005319: in al, 0x70 ; add al, 0x00 ; mov ebp, dword [esp+0x000470E8] ; add esp, 0x000470EC ; retn 0x0010 ;  (1 found)
0x00018148: in al, 0x94 ; sbb dword [esi], ecx ; pop es ; ret  ;  (1 found)
0x00000c08: in al, 0xA3 ; add byte [eax], al ; add esp, 0x00000134 ; pop ebx ; pop esi ; ret  ;  (1 found)
0x0000abe2: in al, 0xD6 ; inc eax ; add byte [ecx+0x74C085E5], cl ; add al, 0x5D ; ret  ;  (1 found)
0x000170ae: in al, 0xE5 ; add esp, ebp ; add ch, bl ; add al, 0xEC ; add byte [0xD6E3E8EC+ebp*8], cl ; ret  ;  (1 found)
0x00005075: in al, dx ; adc byte [ebp+0x316B7EC0], al ; fstp tword [ecx] ; ret  ;  (1 found)
0x00001475: in al, dx ; adc byte [ebx+0x4020B504], cl ; inc edi ; add byte [ebx+0x5E5B14C4], al ; ret  ;  (1 found)
0x0000510e: in al, dx ; adc byte [ebx+0x5E5B1CC4], al ; pop edi ; pop ebp ; ret  ;  (1 found)
0x000010e5: in al, dx ; adc byte [ebx+0x5F5B24C4], al ; ret  ;  (1 found)
0x00004c79: in al, dx ; adc byte [ecx+0x00085CC4], al ; add byte [ebx+0x5E], bl ; pop edi ; pop ebp ; ret  ;  (1 found)
0x0000426e: in al, dx ; adc byte [ecx+0x000AACC4], al ; add byte [ebx+0x5E], bl ; pop edi ; pop ebp ; ret  ;  (1 found)
0x00009d30: in al, dx ; adc byte [ecx+0x0043DCC4], al ; add byte [ebx+0x5E], bl ; pop edi ; pop ebp ; ret  ;  (1 found)
0x000088c9: in al, dx ; adc byte [ecx+0x007EECC4], al ; add byte [ebx+0x5E], bl ; pop edi ; pop ebp ; ret  ;  (1 found)
0x0000543c: in al, dx ; adc byte [ecx], bh ; ret  ;  (1 found)
0x0000aa7f: in al, dx ; adc cl, cl ; ret  ;  (1 found)
0x00005569: in al, dx ; add al, 0x01 ; ret  ;  (1 found)
0x0000551b: in al, dx ; add al, 0x01 ; ret  ;  (1 found)
0x0000557c: in al, dx ; add al, 0x01 ; ret  ;  (1 found)
0x00006d7e: in al, dx ; add al, 0x31 ; shl byte [esi-0x7B], cl ; ror byte [edi], 0xFFFFFF95 ; retn 0xC483 ;  (1 found)
0x00006df4: in al, dx ; add al, 0x89 ; fadd dword [ebx+0x5E5B24C4] ; ret  ;  (1 found)
0x0000723c: in al, dx ; add al, 0x89 ; ret  ;  (1 found)
0x00001197: in al, dx ; add al, 0xB8 ; add dword [eax], eax ; add byte [eax], al ; add esp, 0x08 ; pop ebx ; ret  ;  (1 found)
0x000170b5: in al, dx ; add byte [0xD6E3E8EC+ebp*8], cl ; ret  ;  (1 found)
0x0001728d: in al, dx ; add ebx, ebp ; add ah, bl ; add byte [edx+ebx*8], cl ; salc  ; ret  ;  (1 found)
0x00006de7: in al, dx ; or al, 0x89 ; ret  ;  (1 found)
0x000072c2: in al, dx ; or al, 0x89 ; ret  ;  (1 found)
0x0000738c: in al, dx ; or al, 0x89 ; ret  ;  (1 found)
0x00007327: in al, dx ; or al, 0x89 ; ret  ;  (1 found)
0x00000664: in al, dx ; or bh, al ; add al, 0x24 ; add al, byte [eax] ; add byte [eax], al ; call dword [0x0094D3DC] ;  (1 found)
0x00000644: in al, dx ; or bh, al ; add al, 0x24 ; add dword [eax], eax ; add byte [eax], al ; call dword [0x0094D3DC] ;  (1 found)
0x000006a4: in al, dx ; or byte [ebx+0x04890845], cl ; and al, 0xFF ; adc eax, 0x0094D3F0 ; mov esp, ebp ; pop ebp ; ret  ;  (1 found)
0x00000684: in al, dx ; or byte [ebx+0x04890845], cl ; and al, 0xFF ; adc eax, 0x0094D400 ; mov esp, ebp ; pop ebp ; ret  ;  (1 found)
0x00004eb2: in al, dx ; or byte [ecx+0x00158CC4], al ; add byte [ebx+0x5E], bl ; pop edi ; pop ebp ; ret  ;  (1 found)
0x00004e90: in al, dx ; or byte [ecx+0x00158CC4], al ; add byte [ebx+0x5E], bl ; pop edi ; pop ebp ; ret  ;  (1 found)
0x0000ab84: in al, dx ; or byte [ecx+0x20A1FC5D], cl ; retn 0x0040 ;  (1 found)
0x0000643a: in al, dx ; or byte [ecx-0x76FBDBAC], cl ; ret  ;  (1 found)
0x00000439: in al, dx ; pop ebp ; ret  ;  (1 found)
0x00000693: in al, dx ; pop ebp ; ret  ;  (1 found)
0x000006b3: in al, dx ; pop ebp ; ret  ;  (1 found)
0x000004b4: in al, dx ; pop ebp ; ret  ;  (1 found)
0x0000ab62: in al, dx ; pop ebp ; ret  ;  (1 found)
0x0000ab33: in al, dx ; pop ebp ; ret  ;  (1 found)
0x0000aba9: in al, dx ; pop ebp ; ret  ;  (1 found)
0x00000519: in al, dx ; pop ebp ; retn 0x0004 ;  (1 found)
0x0001836c: in al, dx ; ret  ;  (1 found)
0x000181a0: in al, dx ; ret  ;  (1 found)
0x0001836d: in al, dx ; ret  ;  (1 found)
0x0000473a: in al, dx ; sbb byte [ebx+0x5E5B44C4], al ; ret  ;  (1 found)
0x00000659: in al, dx ; xor eax, eax ; pop ebp ; ret  ;  (1 found)
0x00000679: in al, dx ; xor eax, eax ; pop ebp ; ret  ;  (1 found)
0x0000ac07: in eax, 0x5D ; mov ecx, dword [eax+0x04] ; jmp ecx ;  (1 found)
0x00000662: in eax, 0x83 ; in al, dx ; or bh, al ; add al, 0x24 ; add al, byte [eax] ; add byte [eax], al ; call dword [0x0094D3DC] ;  (1 found)
0x00000642: in eax, 0x83 ; in al, dx ; or bh, al ; add al, 0x24 ; add dword [eax], eax ; add byte [eax], al ; call dword [0x0094D3DC] ;  (1 found)
0x0000ab82: in eax, 0x83 ; in al, dx ; or byte [ecx+0x20A1FC5D], cl ; retn 0x0040 ;  (1 found)
0x000169e6: in eax, 0xE8 ; fcmovbe st0, st2 ; retn 0xB3B7 ;  (1 found)
0x00013f8e: in eax, dx ; out 0xD2, al ; ret  ;  (1 found)
0x0001b5fd: inc dword [eax] ; add ah, cl ; push dword [ebx] ; add ah, cl ; jmp dword [esi+0x00] ;  (1 found)
0x0001b3ba: inc dword [eax] ; add bh, bh ; add byte [eax], al ; add bh, bh ; xor esi, dword [edi+0x00] ; jmp dword [esi+0x00] ;  (1 found)
0x0001bce2: inc dword [eax] ; add bh, bh ; add byte [eax], al ; add bh, bh ; xor esi, dword [edi+0x00] ; jmp dword [esi+0x00] ;  (1 found)
0x0001c60a: inc dword [eax] ; add bh, bh ; add byte [eax], al ; add bh, bh ; xor esi, dword [edi+0x00] ; jmp dword [esi+0x00] ;  (1 found)
0x0001b68d: inc dword [eax] ; add bh, bh ; push dword [ebx] ; add bh, bh ; jmp dword [esi+0x00] ;  (1 found)
0x0001bfb5: inc dword [eax] ; add bh, bh ; push dword [ebx] ; add bh, bh ; jmp dword [esi+0x00] ;  (1 found)
0x0001c8dd: inc dword [eax] ; add bh, bh ; push dword [ebx] ; add bh, bh ; jmp dword [esi+0x00] ;  (1 found)
0x0001a631: inc dword [eax] ; add byte [ebx], bl ; retn 0x0000 ;  (1 found)
0x0001b56d: inc dword [eax] ; add byte [ecx-0x66FFCC01], bl ; jmp dword [esi+0x00] ;  (1 found)
0x0001be95: inc dword [eax] ; add byte [ecx-0x66FFCC01], bl ; jmp dword [esi+0x00] ;  (1 found)
0x0001c7bd: inc dword [eax] ; add byte [ecx-0x66FFCC01], bl ; jmp dword [esi+0x00] ;  (1 found)
0x0001b4dd: inc dword [eax] ; add byte [esi-0x01], ah ; xor eax, dword [eax] ; jmp word [esi+0x00] ;  (1 found)
0x0001be05: inc dword [eax] ; add byte [esi-0x01], ah ; xor eax, dword [eax] ; jmp word [esi+0x00] ;  (1 found)
0x0001c72d: inc dword [eax] ; add byte [esi-0x01], ah ; xor eax, dword [eax] ; jmp word [esi+0x00] ;  (1 found)
0x0001b4da: inc dword [eax] ; inc word [eax] ; add byte [esi-0x01], ah ; xor eax, dword [eax] ; jmp word [esi+0x00] ;  (1 found)
0x0001be02: inc dword [eax] ; inc word [eax] ; add byte [esi-0x01], ah ; xor eax, dword [eax] ; jmp word [esi+0x00] ;  (1 found)
0x0001c72a: inc dword [eax] ; inc word [eax] ; add byte [esi-0x01], ah ; xor eax, dword [eax] ; jmp word [esi+0x00] ;  (1 found)
0x0001b5fa: inc dword [eax] ; int3  ; inc dword [eax] ; add ah, cl ; push dword [ebx] ; add ah, cl ; jmp dword [esi+0x00] ;  (1 found)
0x0001b642: inc dword [eax] ; jmp dword [esi+0x00] ;  (1 found)
0x0001bf6a: inc dword [eax] ; jmp dword [esi+0x00] ;  (1 found)
0x0001c892: inc dword [eax] ; jmp dword [esi+0x00] ;  (1 found)
0x0001b44a: inc dword [eax] ; xor edi, edi ; add byte [edi+0x33], dh ; push dword [ebx] ; fsave  [ebx] ; jmp dword [esi+0x01] ;  (1 found)
0x0000a214: inc dword [ebx-0x3FCEF33C] ; pop ebx ; pop esi ; pop edi ; pop ebp ; ret  ;  (1 found)
0x00009574: inc dword [ebx-0x7B] ; ror byte [edi], cl ; xchg eax, ebp ; retn 0xFB83 ;  (1 found)
0x00003100: inc dword [ecx+0x00026CC4] ; add byte [ebx+0x5E], bl ; pop edi ; pop ebp ; ret  ;  (1 found)
0x000032b0: inc dword [ecx+0x00026CC4] ; add byte [ebx+0x5E], bl ; pop edi ; pop ebp ; ret  ;  (1 found)
0x00002dba: inc dword [ecx+0x003D0CC4] ; add byte [ebx+0x5E], bl ; pop edi ; pop ebp ; ret  ;  (1 found)
0x00004f47: inc dword [ecx+0x020010C4] ; add byte [ebx+0x5E], bl ; pop edi ; ret  ;  (1 found)
0x0000ab9e: inc eax ; add al, ch ; fistp dword [edx-0x01] ; dec dword [ebx-0x137603A3] ; pop ebp ; ret  ;  (1 found)
0x000010a0: inc eax ; add al, ch ; sbb dword [edi-0x3B7D0000], ebx ; and al, 0x5B ; pop edi ; ret  ;  (1 found)
0x00001472: inc eax ; add byte [ebx+0x048B10EC], al ; mov ch, 0x20 ; inc eax ; inc edi ; add byte [ebx+0x5E5B14C4], al ; ret  ;  (1 found)
0x0000150a: inc eax ; add byte [ebx+0x4020B504], cl ; inc edi ; add byte [ebx+0x5E5B14C4], al ; ret  ;  (1 found)
0x00001504: inc eax ; add byte [ebx+0x40D01035], cl ; add byte [ebx+0x4020B504], cl ; inc edi ; add byte [ebx+0x5E5B14C4], al ; ret  ;  (1 found)
0x0000ab59: inc eax ; add byte [ebx+0x75C98508], cl ; add al, 0x89 ; in al, dx ; pop ebp ; ret  ;  (1 found)
0x0000abb5: inc eax ; add byte [ebx+0x75], cl ; imul bl ; fisttp qword [ebx+0x40C22415] ; add byte [ecx], dh ; rol byte [ebp-0x45348B2E], 0x00000020 ; retn 0x0040 ;  (1 found)
0x0000ad87: inc eax ; add byte [ecx+0x158B1853], cl ; add al, 0xD7 ; inc eax ; add byte [ecx-0x2F5EE3BD], cl ; ret  ;  (1 found)
0x000004af: inc eax ; add byte [ecx+0x5DEC8910], cl ; ret  ;  (1 found)
0x0000abe4: inc eax ; add byte [ecx+0x74C085E5], cl ; add al, 0x5D ; ret  ;  (1 found)
0x0000ae13: inc eax ; add byte [ecx-0x0000837B], cl ; jmp dword [ecx+0x0040F1CC] ;  (1 found)
0x0000ae08: inc eax ; add byte [ecx-0x0000877B], cl ; jmp dword [ecx+0x0040F1C8] ;  (1 found)
0x0000adfd: inc eax ; add byte [ecx-0x00008B7B], cl ; jmp dword [ecx+0x0040F1C4] ;  (1 found)
0x0000adf2: inc eax ; add byte [ecx-0x00008F7B], cl ; jmp dword [ecx+0x0040F1C0] ;  (1 found)
0x0000ade7: inc eax ; add byte [ecx-0x0000937B], cl ; jmp dword [ecx+0x0040F1BC] ;  (1 found)
0x0000addc: inc eax ; add byte [ecx-0x0000977B], cl ; jmp dword [ecx+0x0040F1B8] ;  (1 found)
0x00008ee6: inc eax ; add byte [ecx-0x0B9A7204], cl ; pop ebx ; pop esi ; pop edi ; pop ebp ; ret  ;  (1 found)
0x0000ad90: inc eax ; add byte [ecx-0x2F5EE3BD], cl ; ret  ;  (1 found)
0x00001e61: inc eax ; add byte [ecx], bh ; ret  ;  (1 found)
0x00001df0: inc eax ; add byte [ecx], bh ; ret  ;  (1 found)
0x00001dc8: inc eax ; add byte [ecx], dh ; fstp tword [ecx] ; ret  ;  (1 found)
0x0000abc0: inc eax ; add byte [ecx], dh ; rol byte [ebp-0x45348B2E], 0x00000020 ; retn 0x0040 ;  (1 found)
0x0000147b: inc eax ; inc edi ; add byte [ebx+0x5E5B14C4], al ; ret  ;  (1 found)
0x00001510: inc eax ; inc edi ; add byte [ebx+0x5E5B14C4], al ; ret  ;  (1 found)
0x0001aa2d: inc ebp ; cmp byte [eax], bh ; cmp byte [eax], cl ; inc ebp ; inc ebp ; ret  ;  (1 found)
0x0001501c: inc ebp ; cmp dword [eax], edi ; sub eax, 0x05352827 ; sub byte [eax], al ; adc byte [0xDAD6B266], ch ; ret  ;  (1 found)
0x0001aa2c: inc ebp ; inc ebp ; cmp byte [eax], bh ; cmp byte [eax], cl ; inc ebp ; inc ebp ; ret  ;  (1 found)
0x0001aa32: inc ebp ; inc ebp ; ret  ;  (1 found)
0x000149a9: inc ebp ; mov bh, 0xD6 ; ret  ;  (1 found)
0x0001aa33: inc ebp ; ret  ;  (1 found)
0x00009d35: inc ebx ; add byte [eax], al ; pop ebx ; pop esi ; pop edi ; pop ebp ; ret  ;  (1 found)
0x00017382: inc ebx ; dec ecx ; adc eax, 0xB1B0A746 ; ret  ;  (1 found)
0x0000ad63: inc ebx ; or byte [eax], al ; mov eax, 0xC0A10040 ; ret  ;  (1 found)
0x00013d66: inc ecx ; cmp dword [ecx], edi ; cmp byte [eax], dl ; adc byte [ecx], bh ; pop edx ; test eax, 0xB5B3AFAA ; ret  ;  (1 found)
0x00017381: inc ecx ; inc ebx ; dec ecx ; adc eax, 0xB1B0A746 ; ret  ;  (1 found)
0x00014d38: inc ecx ; pop esp ; ret  ;  (1 found)
0x00014b75: inc ecx ; push ecx ; ret  ;  (1 found)
0x0000147c: inc edi ; add byte [ebx+0x5E5B14C4], al ; ret  ;  (1 found)
0x00001511: inc edi ; add byte [ebx+0x5E5B14C4], al ; ret  ;  (1 found)
0x00017385: inc esi ; cmpsd  ; mov al, 0xB1 ; ret  ;  (1 found)
0x000144db: inc esi ; dec ebp ; pop ecx ; stosd  ; lodsb  ; lodsd  ; ret  ;  (1 found)
0x00004840: inc esp ; and al, 0x1C ; mov ebx, dword [eax] ; mov dword [esp+0x04], edi ; mov dword [esp], eax ; call dword [ebx+0x14] ;  (1 found)
0x00015466: inc esp ; dec ebp ; dec ecx ; sahf  ; mov cl, 0xC0 ; ret  ;  (1 found)
0x0000126b: inc esp ; mov eax, edx ; pop ebx ; pop esi ; retn 0x0010 ;  (1 found)
0x0000473e: inc esp ; pop ebx ; pop esi ; ret  ;  (1 found)
0x0000a38f: inc esp ; xor eax, 0xB02D8B04 ; ret  ;  (1 found)
0x0001b4dc: inc word [eax] ; add byte [esi-0x01], ah ; xor eax, dword [eax] ; jmp word [esi+0x00] ;  (1 found)
0x0001be04: inc word [eax] ; add byte [esi-0x01], ah ; xor eax, dword [eax] ; jmp word [esi+0x00] ;  (1 found)
0x0001c72c: inc word [eax] ; add byte [esi-0x01], ah ; xor eax, dword [eax] ; jmp word [esi+0x00] ;  (1 found)
0x00003103: insb  ; add al, byte [eax] ; add byte [ebx+0x5E], bl ; pop edi ; pop ebp ; ret  ;  (1 found)
0x000032b3: insb  ; add al, byte [eax] ; add byte [ebx+0x5E], bl ; pop edi ; pop ebp ; ret  ;  (1 found)
0x0000af2f: insb  ; and al, 0x02 ; pop eax ; ret  ;  (1 found)
0x00007e52: insb  ; and al, 0x28 ; add esp, 0x2C ; ret  ;  (1 found)
0x0000b482: insb  ; rcl dword [eax+eax+0x00009090], cl ; add byte [eax], al ; add byte [eax], al ; add byte [eax], al ; jmp dword [0x0094D394] ;  (1 found)
0x00000922: int 0x0F ; pushfd  ; retn 0xF883 ;  (1 found)
0x00000940: int 0x0F ; pushfd  ; retn 0xFB83 ;  (1 found)
0x00000a96: int 0x0F ; pushfd  ; retn 0xFB83 ;  (1 found)
0x00013d18: int 0xC3 ; fcmovb st0, st2 ; retn 0x395B ;  (1 found)
0x0001491c: int 0xCE ; int 0xD8 ; fcmovu st0, st2 ; retn 0x0D0E ;  (1 found)
0x00012d29: int 0xCE ; test byte [ebx], 0xFFFFFFCE ; add byte [edi], al ; int3  ; ret  ;  (1 found)
0x00012d26: int 0xD0 ; ror ch, 1  ; into  ; test byte [ebx], 0xFFFFFFCE ; add byte [edi], al ; int3  ; ret  ;  (1 found)
0x0001437d: int 0xD8 ; fcmovu st0, st1 ; retn 0x0539 ;  (1 found)
0x0001491e: int 0xD8 ; fcmovu st0, st2 ; retn 0x0D0E ;  (1 found)
0x00004e8b: int1  ; arpl word [eax], ax ; add byte [ebx-0x3B7EF714], al ; mov word [0x5E5B0000], ss ; pop edi ; pop ebp ; ret  ;  (1 found)
0x0000ae12: int1  ; inc eax ; add byte [ecx-0x0000837B], cl ; jmp dword [ecx+0x0040F1CC] ;  (1 found)
0x0000ae07: int1  ; inc eax ; add byte [ecx-0x0000877B], cl ; jmp dword [ecx+0x0040F1C8] ;  (1 found)
0x0000adfc: int1  ; inc eax ; add byte [ecx-0x00008B7B], cl ; jmp dword [ecx+0x0040F1C4] ;  (1 found)
0x0000adf1: int1  ; inc eax ; add byte [ecx-0x00008F7B], cl ; jmp dword [ecx+0x0040F1C0] ;  (1 found)
0x0000ade6: int1  ; inc eax ; add byte [ecx-0x0000937B], cl ; jmp dword [ecx+0x0040F1BC] ;  (1 found)
0x0000addb: int1  ; inc eax ; add byte [ecx-0x0000977B], cl ; jmp dword [ecx+0x0040F1B8] ;  (1 found)
0x00013f8c: int1  ; out dx, eax ; in eax, dx ; out 0xD2, al ; ret  ;  (1 found)
0x00000f7e: int3  ; add al, byte [eax] ; add byte [ebx+0x5E], bl ; pop edi ; pop ebp ; ret  ;  (1 found)
0x0001b63e: int3  ; add bh, bh ; xor edi, edi ; add bh, bh ; add byte [eax], al ; jmp dword [esi+0x33] ;  (1 found)
0x0001bf66: int3  ; add bh, bh ; xor edi, edi ; add bh, bh ; add byte [eax], al ; jmp dword [esi+0x33] ;  (1 found)
0x0001c88e: int3  ; add bh, bh ; xor edi, edi ; add bh, bh ; add byte [eax], al ; jmp dword [esi+0x33] ;  (1 found)
0x0001b566: int3  ; add byte [ecx-0x66000034], bl ; inc dword [eax] ; add byte [ecx-0x66FFCC01], bl ; jmp dword [esi+0x00] ;  (1 found)
0x0001be8e: int3  ; add byte [ecx-0x66000034], bl ; inc dword [eax] ; add byte [ecx-0x66FFCC01], bl ; jmp dword [esi+0x00] ;  (1 found)
0x0001c7b6: int3  ; add byte [ecx-0x66000034], bl ; inc dword [eax] ; add byte [ecx-0x66FFCC01], bl ; jmp dword [esi+0x00] ;  (1 found)
0x0001b4d6: int3  ; add byte [esi-0x34], ah ; inc dword [eax] ; inc word [eax] ; add byte [esi-0x01], ah ; xor eax, dword [eax] ; jmp word [esi+0x00] ;  (1 found)
0x0001bdfe: int3  ; add byte [esi-0x34], ah ; inc dword [eax] ; inc word [eax] ; add byte [esi-0x01], ah ; xor eax, dword [eax] ; jmp word [esi+0x00] ;  (1 found)
0x0001c726: int3  ; add byte [esi-0x34], ah ; inc dword [eax] ; inc word [eax] ; add byte [esi-0x01], ah ; xor eax, dword [eax] ; jmp word [esi+0x00] ;  (1 found)
0x00001730: int3  ; cwde  ; add byte [eax], al ; mov eax, 0x00474040 ; add esp, 0x1C ; ret  ;  (1 found)
0x0001b5fc: int3  ; inc dword [eax] ; add ah, cl ; push dword [ebx] ; add ah, cl ; jmp dword [esi+0x00] ;  (1 found)
0x0001b3b9: int3  ; inc dword [eax] ; add bh, bh ; add byte [eax], al ; add bh, bh ; xor esi, dword [edi+0x00] ; jmp dword [esi+0x00] ;  (1 found)
0x0001bce1: int3  ; inc dword [eax] ; add bh, bh ; add byte [eax], al ; add bh, bh ; xor esi, dword [edi+0x00] ; jmp dword [esi+0x00] ;  (1 found)
0x0001c609: int3  ; inc dword [eax] ; add bh, bh ; add byte [eax], al ; add bh, bh ; xor esi, dword [edi+0x00] ; jmp dword [esi+0x00] ;  (1 found)
0x0001b4d9: int3  ; inc dword [eax] ; inc word [eax] ; add byte [esi-0x01], ah ; xor eax, dword [eax] ; jmp word [esi+0x00] ;  (1 found)
0x0001b4d8: int3  ; inc dword [eax] ; inc word [eax] ; add byte [esi-0x01], ah ; xor eax, dword [eax] ; jmp word [esi+0x00] ;  (1 found)
0x0001be00: int3  ; inc dword [eax] ; inc word [eax] ; add byte [esi-0x01], ah ; xor eax, dword [eax] ; jmp word [esi+0x00] ;  (1 found)
0x0001be01: int3  ; inc dword [eax] ; inc word [eax] ; add byte [esi-0x01], ah ; xor eax, dword [eax] ; jmp word [esi+0x00] ;  (1 found)
0x0001c728: int3  ; inc dword [eax] ; inc word [eax] ; add byte [esi-0x01], ah ; xor eax, dword [eax] ; jmp word [esi+0x00] ;  (1 found)
0x0001c729: int3  ; inc dword [eax] ; inc word [eax] ; add byte [esi-0x01], ah ; xor eax, dword [eax] ; jmp word [esi+0x00] ;  (1 found)
0x0001b449: int3  ; inc dword [eax] ; xor edi, edi ; add byte [edi+0x33], dh ; push dword [ebx] ; fsave  [ebx] ; jmp dword [esi+0x01] ;  (1 found)
0x0001b565: int3  ; int3  ; add byte [ecx-0x66000034], bl ; inc dword [eax] ; add byte [ecx-0x66FFCC01], bl ; jmp dword [esi+0x00] ;  (1 found)
0x0001be8d: int3  ; int3  ; add byte [ecx-0x66000034], bl ; inc dword [eax] ; add byte [ecx-0x66FFCC01], bl ; jmp dword [esi+0x00] ;  (1 found)
0x0001c7b5: int3  ; int3  ; add byte [ecx-0x66000034], bl ; inc dword [eax] ; add byte [ecx-0x66FFCC01], bl ; jmp dword [esi+0x00] ;  (1 found)
0x00010cdc: int3  ; int3  ; rol byte [eax], cl ; ret  ;  (1 found)
0x0001b604: int3  ; jmp dword [esi+0x00] ;  (1 found)
0x0001bf2c: int3  ; jmp dword [esi+0x00] ;  (1 found)
0x0001c854: int3  ; jmp dword [esi+0x00] ;  (1 found)
0x0000aed5: int3  ; mov ecx, dword [eax] ; mov eax, dword [eax+0x04] ; jmp eax ;  (1 found)
0x0001b600: int3  ; push dword [ebx] ; add ah, cl ; jmp dword [esi+0x00] ;  (1 found)
0x00014d73: int3  ; rcl cl, cl ; retn 0xDAD6 ;  (1 found)
0x00012b5b: int3  ; rcl ecx, cl ; lds eax, ebx ; ret  ;  (1 found)
0x00012d30: int3  ; ret  ;  (1 found)
0x00013521: int3  ; ret  ;  (1 found)
0x000136ec: int3  ; ret  ;  (1 found)
0x00014951: int3  ; ret  ;  (1 found)
0x00014b15: int3  ; retn 0xABBF ;  (1 found)
0x00010cdd: int3  ; rol byte [eax], cl ; ret  ;  (1 found)
0x00012d2d: into  ; add byte [edi], al ; int3  ; ret  ;  (1 found)
0x0001491d: into  ; int 0xD8 ; fcmovu st0, st2 ; retn 0x0D0E ;  (1 found)
0x00012d2a: into  ; test byte [ebx], 0xFFFFFFCE ; add byte [edi], al ; int3  ; ret  ;  (1 found)
0x000053f7: jmp dword [0x0040E6DC+eax*4] ;  (1 found)
0x0000a9c0: jmp dword [0x0094D334] ;  (1 found)
0x0000a9b0: jmp dword [0x0094D338] ;  (1 found)
0x0000a9a0: jmp dword [0x0094D33C] ;  (1 found)
0x0000a9d0: jmp dword [0x0094D348] ;  (1 found)
0x0000a980: jmp dword [0x0094D354] ;  (1 found)
0x0000a990: jmp dword [0x0094D358] ;  (1 found)
0x0000b5a0: jmp dword [0x0094D364] ;  (1 found)
0x0000b530: jmp dword [0x0094D368] ;  (1 found)
0x0000b480: jmp dword [0x0094D36C] ;  (1 found)
0x0000b4b0: jmp dword [0x0094D370] ;  (1 found)
0x0000b4c0: jmp dword [0x0094D374] ;  (1 found)
0x0000b590: jmp dword [0x0094D378] ;  (1 found)
0x0000b4a0: jmp dword [0x0094D37C] ;  (1 found)
0x0000b4d0: jmp dword [0x0094D380] ;  (1 found)
0x0000b580: jmp dword [0x0094D384] ;  (1 found)
0x0000b550: jmp dword [0x0094D388] ;  (1 found)
0x0000b4e0: jmp dword [0x0094D38C] ;  (1 found)
0x0000b540: jmp dword [0x0094D390] ;  (1 found)
0x0000b490: jmp dword [0x0094D394] ;  (1 found)
0x0000b570: jmp dword [0x0094D398] ;  (1 found)
0x0000b560: jmp dword [0x0094D39C] ;  (1 found)
0x0000b4f0: jmp dword [0x0094D3A0] ;  (1 found)
0x0000b500: jmp dword [0x0094D3A4] ;  (1 found)
0x0000b510: jmp dword [0x0094D3A8] ;  (1 found)
0x0000b470: jmp dword [0x0094D3AC] ;  (1 found)
0x0000b520: jmp dword [0x0094D3B0] ;  (1 found)
0x0000aef0: jmp dword [0x0094D3BC] ;  (1 found)
0x0000aee0: jmp dword [0x0094D3C0] ;  (1 found)
0x0000af00: jmp dword [0x0094D3C4] ;  (1 found)
0x0000afb0: jmp dword [0x0094D3D0] ;  (1 found)
0x0000af60: jmp dword [0x0094D3D4] ;  (1 found)
0x0000af80: jmp dword [0x0094D3D8] ;  (1 found)
0x0000af40: jmp dword [0x0094D3DC] ;  (1 found)
0x0000afc0: jmp dword [0x0094D3E0] ;  (1 found)
0x0000af50: jmp dword [0x0094D3E4] ;  (1 found)
0x0000af90: jmp dword [0x0094D3E8] ;  (1 found)
0x0000afa0: jmp dword [0x0094D3F4] ;  (1 found)
0x0000b1c0: jmp dword [0x0094D3F8] ;  (1 found)
0x0000b1a0: jmp dword [0x0094D3FC] ;  (1 found)
0x0000b130: jmp dword [0x0094D404] ;  (1 found)
0x0000b020: jmp dword [0x0094D408] ;  (1 found)
0x0000b090: jmp dword [0x0094D40C] ;  (1 found)
0x0000b180: jmp dword [0x0094D410] ;  (1 found)
0x0000b080: jmp dword [0x0094D414] ;  (1 found)
0x0000b110: jmp dword [0x0094D418] ;  (1 found)
0x0000b120: jmp dword [0x0094D41C] ;  (1 found)
0x0000b0a0: jmp dword [0x0094D420] ;  (1 found)
0x0000b170: jmp dword [0x0094D424] ;  (1 found)
0x0000b060: jmp dword [0x0094D428] ;  (1 found)
0x0000b160: jmp dword [0x0094D42C] ;  (1 found)
0x0000b100: jmp dword [0x0094D430] ;  (1 found)
0x0000b0f0: jmp dword [0x0094D434] ;  (1 found)
0x0000b190: jmp dword [0x0094D438] ;  (1 found)
0x0000b050: jmp dword [0x0094D43C] ;  (1 found)
0x0000b140: jmp dword [0x0094D440] ;  (1 found)
0x0000b150: jmp dword [0x0094D444] ;  (1 found)
0x0000b0c0: jmp dword [0x0094D448] ;  (1 found)
0x0000b1b0: jmp dword [0x0094D44C] ;  (1 found)
0x0000af70: jmp dword [0x0094D450] ;  (1 found)
0x0000b000: jmp dword [0x0094D454] ;  (1 found)
0x0000b030: jmp dword [0x0094D458] ;  (1 found)
0x0000b070: jmp dword [0x0094D45C] ;  (1 found)
0x0000b0d0: jmp dword [0x0094D460] ;  (1 found)
0x0000b0e0: jmp dword [0x0094D464] ;  (1 found)
0x0000aff0: jmp dword [0x0094D468] ;  (1 found)
0x0000b010: jmp dword [0x0094D46C] ;  (1 found)
0x0000afe0: jmp dword [0x0094D470] ;  (1 found)
0x0000afd0: jmp dword [0x0094D474] ;  (1 found)
0x0000b040: jmp dword [0x0094D478] ;  (1 found)
0x0000b0b0: jmp dword [0x0094D47C] ;  (1 found)
0x0000b5f0: jmp dword [0x0094D488] ;  (1 found)
0x0000b5b0: jmp dword [0x0094D48C] ;  (1 found)
0x0000b5d0: jmp dword [0x0094D490] ;  (1 found)
0x0000b5c0: jmp dword [0x0094D494] ;  (1 found)
0x0000b600: jmp dword [0x0094D498] ;  (1 found)
0x0000b5e0: jmp dword [0x0094D49C] ;  (1 found)
0x0000b340: jmp dword [0x0094D4A8] ;  (1 found)
0x0000b330: jmp dword [0x0094D4AC] ;  (1 found)
0x0000b380: jmp dword [0x0094D4B0] ;  (1 found)
0x0000b270: jmp dword [0x0094D4B4] ;  (1 found)
0x0000b2b0: jmp dword [0x0094D4B8] ;  (1 found)
0x0000b430: jmp dword [0x0094D4BC] ;  (1 found)
0x0000b3e0: jmp dword [0x0094D4C0] ;  (1 found)
0x0000b1d0: jmp dword [0x0094D4C4] ;  (1 found)
0x0000b210: jmp dword [0x0094D4C8] ;  (1 found)
0x0000b310: jmp dword [0x0094D4CC] ;  (1 found)
0x0000b240: jmp dword [0x0094D4D0] ;  (1 found)
0x0000b450: jmp dword [0x0094D4D4] ;  (1 found)
0x0000b440: jmp dword [0x0094D4D8] ;  (1 found)
0x0000b3b0: jmp dword [0x0094D4DC] ;  (1 found)
0x0000b2d0: jmp dword [0x0094D4E0] ;  (1 found)
0x0000b2a0: jmp dword [0x0094D4E4] ;  (1 found)
0x0000b1f0: jmp dword [0x0094D4E8] ;  (1 found)
0x0000b2e0: jmp dword [0x0094D4EC] ;  (1 found)
0x0000b410: jmp dword [0x0094D4F0] ;  (1 found)
0x0000b260: jmp dword [0x0094D4F4] ;  (1 found)
0x0000b2c0: jmp dword [0x0094D4F8] ;  (1 found)
0x0000b390: jmp dword [0x0094D4FC] ;  (1 found)
0x0000b3f0: jmp dword [0x0094D500] ;  (1 found)
0x0000b350: jmp dword [0x0094D504] ;  (1 found)
0x0000b420: jmp dword [0x0094D508] ;  (1 found)
0x0000b220: jmp dword [0x0094D50C] ;  (1 found)
0x0000b1e0: jmp dword [0x0094D510] ;  (1 found)
0x0000b290: jmp dword [0x0094D514] ;  (1 found)
0x0000b300: jmp dword [0x0094D518] ;  (1 found)
0x0000b3d0: jmp dword [0x0094D51C] ;  (1 found)
0x0000b400: jmp dword [0x0094D520] ;  (1 found)
0x0000b230: jmp dword [0x0094D524] ;  (1 found)
0x0000b250: jmp dword [0x0094D528] ;  (1 found)
0x0000b320: jmp dword [0x0094D52C] ;  (1 found)
0x0000b460: jmp dword [0x0094D530] ;  (1 found)
0x0000b370: jmp dword [0x0094D534] ;  (1 found)
0x0000b3a0: jmp dword [0x0094D538] ;  (1 found)
0x0000b2f0: jmp dword [0x0094D53C] ;  (1 found)
0x0000b360: jmp dword [0x0094D540] ;  (1 found)
0x0000b280: jmp dword [0x0094D544] ;  (1 found)
0x0000b3c0: jmp dword [0x0094D548] ;  (1 found)
0x0000b200: jmp dword [0x0094D54C] ;  (1 found)
0x0000a960: jmp dword [0x0094D558] ;  (1 found)
0x0000a910: jmp dword [0x0094D55C] ;  (1 found)
0x0000a8d0: jmp dword [0x0094D560] ;  (1 found)
0x0000a940: jmp dword [0x0094D564] ;  (1 found)
0x0000a900: jmp dword [0x0094D568] ;  (1 found)
0x0000a8e0: jmp dword [0x0094D56C] ;  (1 found)
0x0000a8b0: jmp dword [0x0094D570] ;  (1 found)
0x0000a8a0: jmp dword [0x0094D574] ;  (1 found)
0x0000a930: jmp dword [0x0094D578] ;  (1 found)
0x0000a8c0: jmp dword [0x0094D57C] ;  (1 found)
0x0000a950: jmp dword [0x0094D580] ;  (1 found)
0x0000a970: jmp dword [0x0094D584] ;  (1 found)
0x0000a890: jmp dword [0x0094D588] ;  (1 found)
0x0000a8f0: jmp dword [0x0094D58C] ;  (1 found)
0x0000a920: jmp dword [0x0094D590] ;  (1 found)
0x00003c8b: jmp dword [ebx+0x00943338] ;  (1 found)
0x0000a20d: jmp dword [ebx+0x0F] ;  (1 found)
0x0000a7f8: jmp dword [ecx+0x0040D6A0] ;  (1 found)
0x0000a7b3: jmp dword [ecx+0x0040D6A0] ;  (1 found)
0x0000ade3: jmp dword [ecx+0x0040F1B8] ;  (1 found)
0x0000adee: jmp dword [ecx+0x0040F1BC] ;  (1 found)
0x0000adf9: jmp dword [ecx+0x0040F1C0] ;  (1 found)
0x0000ae04: jmp dword [ecx+0x0040F1C4] ;  (1 found)
0x0000ae0f: jmp dword [ecx+0x0040F1C8] ;  (1 found)
0x0000ae1a: jmp dword [ecx+0x0040F1CC] ;  (1 found)
0x00002b24: jmp dword [ecx+0x0094334C] ;  (1 found)
0x00002dda: jmp dword [ecx+0x0094334C] ;  (1 found)
0x00007864: jmp dword [ecx+0x0094334C] ;  (1 found)
0x00005674: jmp dword [ecx+0x009437E4] ;  (1 found)
0x0000613a: jmp dword [ecx+0x009437E4] ;  (1 found)
0x00006aca: jmp dword [ecx+0x009437E4] ;  (1 found)
0x000013d8: jmp dword [ecx+0x00945E00] ;  (1 found)
0x0001b575: jmp dword [esi+0x00] ;  (1 found)
0x0001b605: jmp dword [esi+0x00] ;  (1 found)
0x0001b4e5: jmp dword [esi+0x00] ;  (1 found)
0x0001b644: jmp dword [esi+0x00] ;  (1 found)
0x0001b695: jmp dword [esi+0x00] ;  (1 found)
0x0001bced: jmp dword [esi+0x00] ;  (1 found)
0x0001be9d: jmp dword [esi+0x00] ;  (1 found)
0x0001be0d: jmp dword [esi+0x00] ;  (1 found)
0x0001bf2d: jmp dword [esi+0x00] ;  (1 found)
0x0001bf6c: jmp dword [esi+0x00] ;  (1 found)
0x0001bfbd: jmp dword [esi+0x00] ;  (1 found)
0x0001c735: jmp dword [esi+0x00] ;  (1 found)
0x0001c615: jmp dword [esi+0x00] ;  (1 found)
0x0001c894: jmp dword [esi+0x00] ;  (1 found)
0x0001c7c5: jmp dword [esi+0x00] ;  (1 found)
0x0001c855: jmp dword [esi+0x00] ;  (1 found)
0x0001c8e5: jmp dword [esi+0x00] ;  (1 found)
0x0001b3c5: jmp dword [esi+0x00] ;  (1 found)
0x0001bd7d: jmp dword [esi+0x01] ;  (1 found)
0x0001c6a5: jmp dword [esi+0x01] ;  (1 found)
0x0001b455: jmp dword [esi+0x01] ;  (1 found)
0x0001b648: jmp dword [esi+0x33] ;  (1 found)
0x0001bf70: jmp dword [esi+0x33] ;  (1 found)
0x0001c898: jmp dword [esi+0x33] ;  (1 found)
0x0001b64c: jmp dword [esi+0x66] ;  (1 found)
0x0001bf74: jmp dword [esi+0x66] ;  (1 found)
0x0001c89c: jmp dword [esi+0x66] ;  (1 found)
0x0001b658: jmp dword [esi-0x01] ;  (1 found)
0x0001bf80: jmp dword [esi-0x01] ;  (1 found)
0x0001c8a8: jmp dword [esi-0x01] ;  (1 found)
0x0001b654: jmp dword [esi-0x34] ;  (1 found)
0x0001bf7c: jmp dword [esi-0x34] ;  (1 found)
0x0001c8a4: jmp dword [esi-0x34] ;  (1 found)
0x0001b650: jmp dword [esi-0x67] ;  (1 found)
0x0001bf78: jmp dword [esi-0x67] ;  (1 found)
0x0001c8a0: jmp dword [esi-0x67] ;  (1 found)
0x0000464d: jmp dword [esi-0x7F] ;  (1 found)
0x00005491: jmp dword [esi-0x7F] ;  (1 found)
0x0000aedb: jmp eax ;  (1 found)
0x0000ac0c: jmp ecx ;  (1 found)
0x0000f9f0: jmp edi ;  (1 found)
0x0001965c: jmp edi ;  (1 found)
0x0001b4e4: jmp word [esi+0x00] ;  (1 found)
0x0001be0c: jmp word [esi+0x00] ;  (1 found)
0x0001c734: jmp word [esi+0x00] ;  (1 found)
0x000010a4: lahf  ; add byte [eax], al ; add esp, 0x24 ; pop ebx ; pop edi ; ret  ;  (1 found)
0x000085a4: lahf  ; ret  ;  (1 found)
0x00012b5e: lds eax, ebx ; ret  ;  (1 found)
0x00012b67: lds eax, ebx ; ret  ;  (1 found)
0x00012d32: lds eax, edi ; mov bl, 0xFFFFFFC0 ; add byte [ebx], al ; rol byte [eax], 0x00000015 ; ret  ;  (1 found)
0x00014490: lds eax, edx ; retn 0x505C ;  (1 found)
0x000158b9: lds edx, esi ; ret  ;  (1 found)
0x00014d3b: lds edx, esi ; retn 0x1456 ;  (1 found)
0x00016e8d: lds esp, ecx ; xlatb  ; retn 0x39A8 ;  (1 found)
0x00007e0b: lea ebx, dword [edx+0x01] ; mov byte [edx], 0x0000003D ; mov byte [ebx], 0x00000000 ; pop ebx ; pop esi ; pop edi ; ret  ;  (1 found)
0x00006bf9: lea edi, dword [edi+0x00000000] ; add esp, 0x18 ; pop ebx ; retn 0x0010 ;  (1 found)
0x00000549: lea edi, dword [edi+0x00000000] ; call eax ;  (1 found)
0x0000a559: lea edi, dword [edi+0x00000000] ; mov eax, 0x00000001 ; mov ebx, dword [esp+0x000000C0] ; mov esi, dword [esp+0x000000C4] ; mov edi, dword [esp+0x000000C8] ; add esp, 0x000000CC ; retn 0x0010 ;  (1 found)
0x0000a2da: lea edi, dword [edi+0x00000000] ; mov ebx, dword [esp+0x0000022C] ; mov esi, dword [esp+0x00000230] ; mov edi, dword [esp+0x00000234] ; mov ebp, dword [esp+0x00000238] ; add esp, 0x0000023C ; retn 0x0010 ;  (1 found)
0x00001629: lea edi, dword [edi+0x00000000] ; mov ebx, dword [esp+0x20] ; mov esi, dword [esp+0x24] ; mov edi, dword [esp+0x28] ; add esp, 0x2C ; ret  ;  (1 found)
0x00000699: lea edi, dword [edi+0x00000000] ; push ebp ; mov ebp, esp ; sub esp, 0x08 ; mov eax, dword [ebp+0x08] ; mov dword [esp], eax ; call dword [0x0094D3F0] ;  (1 found)
0x00006bf3: lea esi, dword [esi+0x00000000] ; lea edi, dword [edi+0x00000000] ; add esp, 0x18 ; pop ebx ; retn 0x0010 ;  (1 found)
0x00000542: lea esi, dword [esi+0x00000000] ; lea edi, dword [edi+0x00000000] ; call eax ;  (1 found)
0x0000a70a: lea esi, dword [esi+0x00000000] ; mov eax, 0x00000001 ; mov ebx, dword [esp+0x20] ; mov esi, dword [esp+0x24] ; mov edi, dword [esp+0x28] ; add esp, 0x2C ; retn 0x0010 ;  (1 found)
0x0000abac: lea esi, dword [esi+0x00] ; call dword [0x0040C220+ebx*4] ;  (1 found)
0x0000063c: lea esi, dword [esi+0x00] ; push ebp ; mov ebp, esp ; sub esp, 0x08 ; mov dword [esp], 0x00000001 ; call dword [0x0094D3DC] ;  (1 found)
0x0000967c: lea esp, dword [ebp-0x0C] ; mov eax, ecx ; pop ebx ; pop esi ; pop edi ; pop ebp ; ret  ;  (1 found)
0x00001d8f: lea esp, dword [ebp-0x0C] ; pop ebx ; pop esi ; pop edi ; pop ebp ; ret  ;  (1 found)
0x00008eea: lea esp, dword [ebp-0x0C] ; pop ebx ; pop esi ; pop edi ; pop ebp ; ret  ;  (1 found)
0x0000ae87: lea esp, dword [ebp-0x0C] ; pop ebx ; pop esi ; pop edi ; pop ebp ; ret  ;  (1 found)
0x0000ac86: lea esp, dword [ebp-0x0C] ; pop ebx ; pop esi ; pop edi ; pop ebp ; ret  ;  (1 found)
0x00008ed7: lea esp, dword [ebp-0x0C] ; xor eax, eax ; pop ebx ; pop esi ; pop edi ; pop ebp ; ret  ;  (1 found)
0x000152ba: leave  ; leave  ; ret  ;  (1 found)
0x00017703: leave  ; les eax, esp ; rol ebx, 0xFFFFFFC2 ; ret  ;  (1 found)
0x0000966b: leave  ; mov eax, ecx ; pop ebx ; pop esi ; pop edi ; pop ebp ; ret  ;  (1 found)
0x0000aa81: leave  ; ret  ;  (1 found)
0x0000ac64: leave  ; ret  ;  (1 found)
0x00017a7b: leave  ; ret  ;  (1 found)
0x000152bb: leave  ; ret  ;  (1 found)
0x0000a56f: les eax,  [eax] ; add byte [eax], al ; mov edi, dword [esp+0x000000C8] ; add esp, 0x000000CC ; retn 0x0010 ;  (1 found)
0x0000a52a: les eax,  [eax] ; add byte [eax], al ; mov edi, dword [esp+0x000000C8] ; add esp, 0x000000CC ; retn 0x0010 ;  (1 found)
0x0001a625: les eax,  [eax] ; add byte [esi], bl ; xor eax, dword [eax] ; add byte [edi], bl ; cmp al, byte [eax] ; add byte [0x1B0000FF], ah ; retn 0x0000 ;  (1 found)
0x00010c6a: les eax,  [eax] ; wait  ; wait  ; ret  ;  (1 found)
0x0000473d: les eax,  [ebx+ebx*2+0x5E] ; ret  ;  (1 found)
0x0000126a: les eax,  [ecx+ecx*4-0x30] ; pop ebx ; pop esi ; retn 0x0010 ;  (1 found)
0x0000079d: les eax,  [esp+eax] ; add byte [eax], al ; pop ebx ; pop esi ; ret  ;  (1 found)
0x00017705: les eax, ecx ; ret  ;  (1 found)
0x00017534: les eax, esi ; mov ecx, 0x10C1C7C0 ; add eax, ecx ; add byte [eax], cl ; ret  ;  (1 found)
0x00017533: les eax, esp ; mov bh, 0xFFFFFFC1 ; rol bh, 0xFFFFFFC1 ; adc byte [ebx], al ; rol dword [eax], 0x08 ; ret  ;  (1 found)
0x00017704: les eax, esp ; rol ebx, 0xFFFFFFC2 ; ret  ;  (1 found)
0x00009f75: les ebp,  [eax+0x0C] ; add byte [eax], al ; pop ebx ; ret  ;  (1 found)
0x00009ea2: les ebp,  [eax+0x0C] ; add byte [eax], al ; pop ebx ; ret  ;  (1 found)
0x000034ec: les ebp,  [ebx+eax] ; add byte [eax], al ; pop ebx ; pop esi ; pop edi ; pop ebp ; ret  ;  (1 found)
0x00003102: les ebp,  [edx+eax+0x00] ; add byte [ebx+0x5E], bl ; pop edi ; pop ebp ; ret  ;  (1 found)
0x000032b2: les ebp,  [edx+eax+0x00] ; add byte [ebx+0x5E], bl ; pop edi ; pop ebp ; ret  ;  (1 found)
0x00004271: les ebp,  [edx+ecx+0x5E5B0000] ; pop edi ; pop ebp ; ret  ;  (1 found)
0x00003c74: les ebp,  [edx+ecx+0x5E5B0000] ; pop edi ; pop ebp ; ret  ;  (1 found)
0x000022ad: les ebp,  [esp+ecx+0x5E5B0000] ; pop edi ; pop ebp ; ret  ;  (1 found)
0x00004c7c: les ebx,  [eax+ecx+0x00] ; add byte [ebx+0x5E], bl ; pop edi ; pop ebp ; ret  ;  (1 found)
0x00006c01: les ebx,  [eax] ; pop ebx ; retn 0x0010 ;  (1 found)
0x00006bcf: les ebx,  [eax] ; xor eax, eax ; pop ebx ; retn 0x0010 ;  (1 found)
0x000092c9: les ebx,  [ebx+0x00] ; add byte [eax+0x00000001], bh ; pop ebx ; pop esi ; pop edi ; pop ebp ; ret  ;  (1 found)
0x0000930e: les ebx,  [ebx+0x00] ; add byte [ecx], dh ; rcr byte [ebx+0x5E], 0x0000005F ; pop ebp ; ret  ;  (1 found)
0x00005111: les ebx,  [ebx+ebx*2] ; pop esi ; pop edi ; pop ebp ; ret  ;  (1 found)
0x00001eea: les ebx,  [edx+eax+0x00] ; add byte [ebx+0x5E], bl ; pop edi ; pop ebp ; ret  ;  (1 found)
0x00002590: les ebx,  [edx+eax+0x00] ; add byte [ebx+0x5E], bl ; pop edi ; pop ebp ; ret  ;  (1 found)
0x00002e8d: les ebx,  [edx+eax+0x00] ; add byte [ebx+0x5E], bl ; pop edi ; pop ebp ; ret  ;  (1 found)
0x00002f4d: les ebx,  [edx+eax+0x00] ; add byte [ebx+0x5E], bl ; pop edi ; pop ebp ; ret  ;  (1 found)
0x000078cc: les ebx,  [esp+eax+0x00] ; add byte [ebx+0x5E], bl ; pop edi ; pop ebp ; ret  ;  (1 found)
0x00007ab5: les ebx,  [esp+eax+0x00] ; add byte [ebx+0x5E], bl ; pop edi ; pop ebp ; ret  ;  (1 found)
0x00007ccc: les ebx, esp ; and al, byte [eax] ; add byte [ebx+0x5E], bl ; pop edi ; pop ebp ; ret  ;  (1 found)
0x00002dbc: les ecx,  [0x5E5B0000+edi] ; pop edi ; pop ebp ; ret  ;  (1 found)
0x000008c5: les ecx,  [eax+0x5E5B0000] ; pop edi ; pop ebp ; ret  ;  (1 found)
0x00006e83: les ecx,  [eax+eax+0x5E5B0000] ; pop edi ; pop ebp ; ret  ;  (1 found)
0x000075e5: les ecx,  [eax+eax+0x5E5B0000] ; pop edi ; pop ebp ; ret  ;  (1 found)
0x00007fe0: les ecx,  [eax] ; mov eax, ebx ; pop ebx ; ret  ;  (1 found)
0x0000119f: les ecx,  [eax] ; pop ebx ; ret  ;  (1 found)
0x000016f6: les ecx,  [eax] ; pop ebx ; ret  ;  (1 found)
0x00004e93: les ecx,  [ebp+edx+0x5E5B0000] ; pop edi ; pop ebp ; ret  ;  (1 found)
0x00004eb5: les ecx,  [ebp+edx+0x5E5B0000] ; pop edi ; pop ebp ; ret  ;  (1 found)
0x00007666: les ecx,  [ebx+ebx*2] ; pop esi ; pop edi ; pop ebp ; ret  ;  (1 found)
0x00008037: les ecx,  [ebx+ebx*2] ; pop esi ; pop edi ; pop ebp ; ret  ;  (1 found)
0x00003c56: les ecx,  [ecx+eax+0x5E5B0000] ; pop edi ; pop ebp ; ret  ;  (1 found)
0x0000330f: les ecx,  [ecx+ecx*4] ; pop ebx ; pop esi ; pop edi ; pop ebp ; ret  ;  (1 found)
0x0000a216: les ecx,  [ecx+esi] ; rcr byte [ebx+0x5E], 0x0000005F ; pop ebp ; ret  ;  (1 found)
0x00000f7d: les ecx, esp ; add al, byte [eax] ; add byte [ebx+0x5E], bl ; pop edi ; pop ebp ; ret  ;  (1 found)
0x00004485: les edi,  [ebx+ebx*2+0x5E] ; pop edi ; pop ebp ; ret  ;  (1 found)
0x00008316: les edi,  [ebx+ebx*2+0x5E] ; pop edi ; pop ebp ; ret  ;  (1 found)
0x0000a2ac: les edi,  [edx+eax] ; add byte [eax], al ; retn 0x0010 ;  (1 found)
0x0000a2fd: les edi,  [edx+eax] ; add byte [eax], al ; retn 0x0010 ;  (1 found)
0x000156d2: les edi,  [esi-0x5B474745] ; mov dword [0xA4A2A2A4], eax ; mov al, byte [0xB9BCBEBB] ; ret  ;  (1 found)
0x0000908b: les edi,  [esp] ; add byte [eax], al ; ret  ;  (1 found)
0x0000ae84: les edx,  [eax+eax+0x5BF4658D] ; pop esi ; pop edi ; pop ebp ; ret  ;  (1 found)
0x00009ff4: les edx,  [eax+edi*4] ; add dword [eax], eax ; add byte [eax], al ; pop ebx ; pop esi ; ret  ;  (1 found)
0x00004f49: les edx,  [eax] ; add byte [edx], al ; add byte [ebx+0x5E], bl ; pop edi ; ret  ;  (1 found)
0x0000a106: les edx,  [eax] ; add dword [eax], eax ; add byte [ebx+0x5E], bl ; pop edi ; ret  ;  (1 found)
0x00008106: les edx,  [eax] ; mov eax, ebx ; pop ebx ; pop esi ; pop edi ; ret  ;  (1 found)
0x000083b2: les edx,  [eax] ; pop ebx ; pop esi ; pop edi ; ret  ;  (1 found)
0x0000147f: les edx,  [ebx+ebx*2] ; pop esi ; ret  ;  (1 found)
0x00001514: les edx,  [ebx+ebx*2] ; pop esi ; ret  ;  (1 found)
0x0000988e: les edx,  [ebx+ebx*2] ; pop esi ; ret  ;  (1 found)
0x00000c0d: les esi,  [ecx+eax] ; add byte [eax], al ; pop ebx ; pop esi ; ret  ;  (1 found)
0x0000ae06: les esi, ecx ; inc eax ; add byte [ecx-0x0000877B], cl ; jmp dword [ecx+0x0040F1C8] ;  (1 found)
0x000010a8: les esp,  [ebx+ebx*2] ; pop edi ; ret  ;  (1 found)
0x000010e8: les esp,  [ebx+ebx*2] ; pop edi ; ret  ;  (1 found)
0x00006df9: les esp,  [ebx+ebx*2] ; pop esi ; ret  ;  (1 found)
0x00018542: lodsb  ; lodsb  ; mov cl, 0xC0 ; ret  ;  (1 found)
0x000144df: lodsb  ; lodsd  ; ret  ;  (1 found)
0x00018543: lodsb  ; mov cl, 0xC0 ; ret  ;  (1 found)
0x000022ae: lodsb  ; or al, 0x00 ; add byte [ebx+0x5E], bl ; pop edi ; pop ebp ; ret  ;  (1 found)
0x00004272: lodsb  ; or al, byte [eax] ; add byte [ebx+0x5E], bl ; pop edi ; pop ebp ; ret  ;  (1 found)
0x00003c75: lodsb  ; or al, byte [eax] ; add byte [ebx+0x5E], bl ; pop edi ; pop ebp ; ret  ;  (1 found)
0x0000b472: lodsb  ; rcl dword [eax+eax+0x00009090], cl ; add byte [eax], al ; add byte [eax], al ; add byte [eax], al ; jmp dword [0x0094D36C] ;  (1 found)
0x00016a72: lodsb  ; ret  ;  (1 found)
0x0001730b: lodsd  ; add byte [0xC0BF9EAB], ah ; mov cl, 0xB0 ; ret  ;  (1 found)
0x00017351: lodsd  ; add dword [esi-0x43FE41FB], ebp ; add ch, byte [esi-0x46FD43FA] ; add edi, dword [eax+eax-0x434F4EF2] ; mov esi, 0xC2C3C1C1 ; ret  ;  (1 found)
0x000144e0: lodsd  ; ret  ;  (1 found)
0x000136a7: lsl ecx, word [edi] ; add dword [edi], esp ; add ch, byte [eax] ; add byte [edi+ebp], bl ; xor dword [esi+edi*2+0x7E], edi ; test dword [edx-0x3D35767E], eax ; ret  ;  (1 found)
0x00013319: ltr word [0x2F28272A] ; xor al, byte [eax+0x6A818280] ; mov edi, dword [ebx-0x4A] ; retn 0xC3C2 ;  (1 found)
0x000134db: ltr word [esi] ; daa  ; sub byte [edi], ch ; xor dword [ebp+0x7E], edi ; test byte [ebx-0x48737375], al ; retn 0xC3C3 ;  (1 found)
0x00001944: mov ah, 0x24 ; add dword [fs:eax], eax ; add byte [ebx+0x016824BC], cl ; add byte [eax], al ; add esp, 0x0000016C ; ret  ;  (1 found)
0x0000196a: mov ah, 0x24 ; add dword [fs:eax], eax ; add byte [ebx+0x016824BC], cl ; add byte [eax], al ; add esp, 0x0000016C ; ret  ;  (1 found)
0x0000a56d: mov ah, 0x24 ; les eax,  [eax] ; add byte [eax], al ; mov edi, dword [esp+0x000000C8] ; add esp, 0x000000CC ; retn 0x0010 ;  (1 found)
0x0000a528: mov ah, 0x24 ; les eax,  [eax] ; add byte [eax], al ; mov edi, dword [esp+0x000000C8] ; add esp, 0x000000CC ; retn 0x0010 ;  (1 found)
0x00004812: mov ah, 0x24 ; push esp ; add dword [eax], eax ; add byte [ebx+0x015824BC], cl ; add byte [eax], al ; add esp, 0x0000015C ; ret  ;  (1 found)
0x00004869: mov ah, 0x24 ; push esp ; add dword [eax], eax ; add byte [ebx+0x015824BC], cl ; add byte [eax], al ; add esp, 0x0000015C ; ret  ;  (1 found)
0x00001b9b: mov ah, 0x24 ; xchg eax, esp ; add dword [eax], eax ; add byte [ebx+0x019824BC], cl ; add byte [eax], al ; add esp, 0x0000019C ; ret  ;  (1 found)
0x00009076: mov ah, 0x24 ; xor byte [eax+eax], ah ; add byte [ebx+0x243424BC], cl ; add byte [eax], al ; mov ebp, dword [esp+0x00002438] ; add esp, 0x0000243C ; ret  ;  (1 found)
0x0000a297: mov ah, 0x24 ; xor byte [edx], al ; add byte [eax], al ; mov edi, dword [esp+0x00000234] ; mov ebp, dword [esp+0x00000238] ; add esp, 0x0000023C ; retn 0x0010 ;  (1 found)
0x0000a2e8: mov ah, 0x24 ; xor byte [edx], al ; add byte [eax], al ; mov edi, dword [esp+0x00000234] ; mov ebp, dword [esp+0x00000238] ; add esp, 0x0000023C ; retn 0x0010 ;  (1 found)
0x00000543: mov ah, 0x26 ; add byte [eax], al ; add byte [eax], al ; lea edi, dword [edi+0x00000000] ; call eax ;  (1 found)
0x00010c58: mov ah, 0xB4 ; mov edx, 0xBAB8B600 ; add byte [ecx-0x78FF4245], bh ; xchg esi, eax ; add byte [esp+edx*4-0x6464FF3C], dl ; ret  ;  (1 found)
0x00017077: mov ah, 0xC3 ; retn 0xD2C2 ;  (1 found)
0x00015ebc: mov ah, 0xD2 ; retn 0x72B3 ;  (1 found)
0x0000adda: mov ah, 0xF1 ; inc eax ; add byte [ecx-0x0000977B], cl ; jmp dword [ecx+0x0040F1B8] ;  (1 found)
0x00017532: mov ah, 0xFFFFFFC4 ; mov bh, 0xFFFFFFC1 ; rol bh, 0xFFFFFFC1 ; adc byte [ebx], al ; rol dword [eax], 0x08 ; ret  ;  (1 found)
0x00017387: mov al, 0xB1 ; ret  ;  (1 found)
0x00012b58: mov al, 0xB3 ; mov bl, 0xCC ; rcl ecx, cl ; lds eax, ebx ; ret  ;  (1 found)
0x00017363: mov al, 0xBC ; mov esi, 0xC2C3C1C1 ; ret  ;  (1 found)
0x0000253d: mov al, byte [0x81004802] ; ret  ;  (1 found)
0x00002efa: mov al, byte [0x81004802] ; ret  ;  (1 found)
0x000029bc: mov al, byte [0x81004802] ; ret  ;  (1 found)
0x0000268c: mov al, byte [0x81004802] ; ret  ;  (1 found)
0x0000b4f2: mov al, byte [0x900094D3] ; nop  ; add byte [eax], al ; add byte [eax], al ; add byte [eax], al ; add byte [eax], al ; jmp dword [0x0094D3A4] ;  (1 found)
0x000156dd: mov al, byte [0xB9BCBEBB] ; ret  ;  (1 found)
0x000158b5: mov al, byte [0xC5C0AE99] ; salc  ; ret  ;  (1 found)
0x000174c4: mov al, byte [0xD6C1A3A2] ; ret  ;  (1 found)
0x000010e1: mov al, byte [0xEC830000] ; adc byte [ebx+0x5F5B24C4], al ; ret  ;  (1 found)
0x0000258c: mov al, byte [eax] ; add byte [ecx+0x00025CC4], al ; add byte [ebx+0x5E], bl ; pop edi ; pop ebp ; ret  ;  (1 found)
0x000130cf: mov bh, 0x00 ; push ss ; retn 0xD2C3 ;  (1 found)
0x000130cd: mov bh, 0x02 ; mov bh, 0x00 ; push ss ; retn 0xD2C3 ;  (1 found)
0x00013283: mov bh, 0x02 ; mov ch, 0x02 ; retn 0x0E00 ;  (1 found)
0x0000ab9d: mov bh, 0x40 ; add al, ch ; fistp dword [edx-0x01] ; dec dword [ebx-0x137603A3] ; pop ebp ; ret  ;  (1 found)
0x00013280: mov bh, 0x4D ; add al, 0xB7 ; add dh, byte [ebp+0x0E00C202] ; ret  ;  (1 found)
0x000152d1: mov bh, 0xB7 ; ret  ;  (1 found)
0x000155dd: mov bh, 0xB7 ; retn 0xA9BA ;  (1 found)
0x000134ea: mov bh, 0xC2 ; ret  ;  (1 found)
0x000149aa: mov bh, 0xD6 ; ret  ;  (1 found)
0x00017535: mov bh, 0xFFFFFFC1 ; rol bh, 0xFFFFFFC1 ; adc byte [ebx], al ; rol dword [eax], 0x08 ; ret  ;  (1 found)
0x00014153: mov bl, 0x78 ; mov word [esi+ecx*4+0x0CD0CFCF], cs ; add dl, al ; add edi, ebx ; add ah, al ; add byte [0xDAEAEEF0], cl ; retn 0xB5B5 ;  (1 found)
0x00012b59: mov bl, 0xB3 ; int3  ; rcl ecx, cl ; lds eax, ebx ; ret  ;  (1 found)
0x00010c94: mov bl, 0xB3 ; ret  ;  (1 found)
0x00015411: mov bl, 0xB4 ; ret  ;  (1 found)
0x00013b9c: mov bl, 0xB5 ; mov edx, 0xE8E8E7D8 ; out 0xE8, eax ; ret  ;  (1 found)
0x00013d71: mov bl, 0xB5 ; ret  ;  (1 found)
0x000156fb: mov bl, 0xB6 ; retn 0x78B3 ;  (1 found)
0x0001327f: mov bl, 0xB7 ; dec ebp ; add al, 0xB7 ; add dh, byte [ebp+0x0E00C202] ; ret  ;  (1 found)
0x00015303: mov bl, 0xB7 ; retn 0xC202 ;  (1 found)
0x000157b4: mov bl, 0xC2 ; retn 0xC2C5 ;  (1 found)
0x00012b5a: mov bl, 0xCC ; rcl ecx, cl ; lds eax, ebx ; ret  ;  (1 found)
0x00015982: mov bl, 0xD2 ; retn 0xD8DA ;  (1 found)
0x00012d34: mov bl, 0xFFFFFFC0 ; add byte [ebx], al ; rol byte [eax], 0x00000015 ; ret  ;  (1 found)
0x000172f6: mov byte [0xA7B9B9BC], al ; ret  ;  (1 found)
0x00014615: mov byte [0xC7C1BCB8], al ; xlatb  ; xlatb  ; ret  ;  (1 found)
0x00010c66: mov byte [eax], 0xFFFFFF94 ; xchg eax, esp ; les eax,  [eax] ; wait  ; wait  ; ret  ;  (1 found)
0x00013755: mov byte [ebx-0x283D3436], cl ; wait  ; add dl, bh ; add byte [esi+edx*8], dl ; retn 0x0F38 ;  (1 found)
0x00004807: mov byte [ebx], 0x00000000 ; mov ebx, dword [esp+0x00000150] ; mov esi, dword [esp+0x00000154] ; mov edi, dword [esp+0x00000158] ; add esp, 0x0000015C ; ret  ;  (1 found)
0x00007e11: mov byte [ebx], 0x00000000 ; pop ebx ; pop esi ; pop edi ; ret  ;  (1 found)
0x00007e0e: mov byte [edx], 0x0000003D ; mov byte [ebx], 0x00000000 ; pop ebx ; pop esi ; pop edi ; ret  ;  (1 found)
0x00010c56: mov ch, 0x00 ; mov ah, 0xB4 ; mov edx, 0xBAB8B600 ; add byte [ecx-0x78FF4245], bh ; xchg esi, eax ; add byte [esp+edx*4-0x6464FF3C], dl ; ret  ;  (1 found)
0x00013285: mov ch, 0x02 ; retn 0x0E00 ;  (1 found)
0x00001479: mov ch, 0x20 ; inc eax ; inc edi ; add byte [ebx+0x5E5B14C4], al ; ret  ;  (1 found)
0x0000150e: mov ch, 0x20 ; inc eax ; inc edi ; add byte [ebx+0x5E5B14C4], al ; ret  ;  (1 found)
0x000155c5: mov ch, 0xD6 ; xlatb  ; ret  ;  (1 found)
0x00018541: mov cl, 0xAC ; lodsb  ; mov cl, 0xC0 ; ret  ;  (1 found)
0x00017362: mov cl, 0xB0 ; mov esp, 0xC3C1C1BE ; retn 0xD1C3 ;  (1 found)
0x00017312: mov cl, 0xB0 ; ret  ;  (1 found)
0x00012b56: mov cl, 0xB9 ; mov al, 0xB3 ; mov bl, 0xCC ; rcl ecx, cl ; lds eax, ebx ; ret  ;  (1 found)
0x00018544: mov cl, 0xC0 ; ret  ;  (1 found)
0x0001546a: mov cl, 0xC0 ; ret  ;  (1 found)
0x00013141: mov cs, di ; shl al, 1  ; rcl bl, 1  ; retn 0x50A6 ;  (1 found)
0x00007895: mov dh, 0x00 ; add byte [eax], al ; add byte [ebp+0x000000BF], cl ; add byte [esi+0x0F], cl ; xchg eax, esp ; retn 0x7C81 ;  (1 found)
0x00006bf4: mov dh, 0x00 ; add byte [eax], al ; add byte [ebp+0x000027BC], cl ; add byte [eax], al ; add esp, 0x18 ; pop ebx ; retn 0x0010 ;  (1 found)
0x00014ea5: mov dh, 0xB7 ; retn 0xBAD1 ;  (1 found)
0x00014cda: mov dh, 0xC2 ; rcl cl, cl ; retn 0xABBA ;  (1 found)
0x00013328: mov dh, 0xC2 ; retn 0xB5C3 ;  (1 found)
0x00014b12: mov dh, 0xD1 ; ror ah, cl ; retn 0xABBF ;  (1 found)
0x000131a8: mov dl, 0x8C ; retn 0xB9B9 ;  (1 found)
0x00015301: mov dl, 0xA8 ; mov bl, 0xB7 ; retn 0xC202 ;  (1 found)
0x000155db: mov dl, 0xB3 ; mov bh, 0xB7 ; retn 0xA9BA ;  (1 found)
0x000157b3: mov dl, 0xB3 ; retn 0xC5C2 ;  (1 found)
0x000154d8: mov dl, 0xB3 ; retn 0xD2D1 ;  (1 found)
0x00015c4e: mov dl, 0xB3 ; retn 0xDAD2 ;  (1 found)
0x0001330d: mov dl, 0xB4 ; retn 0xC3C0 ;  (1 found)
0x00014cd9: mov dl, 0xB6 ; retn 0xD1D2 ;  (1 found)
0x00013174: mov dl, 0xBA ; retn 0xAFB5 ;  (1 found)
0x00014afa: mov dl, 0xD1 ; fstp1 st2 ; retn 0x0D42 ;  (1 found)
0x0001510c: mov dl, 0xD1 ; retn 0xD2B7 ;  (1 found)
0x00001500: mov dword [0x0040D010], esi ; mov esi, dword [0x0040D010] ; mov eax, dword [0x00474020+esi*4] ; add esp, 0x14 ; pop ebx ; pop esi ; ret  ;  (1 found)
0x00000f76: mov dword [0x00943340], ebp ; add esp, 0x000002CC ; pop ebx ; pop esi ; pop edi ; pop ebp ; ret  ;  (1 found)
0x0000ae82: mov dword [0x0094C400], eax ; lea esp, dword [ebp-0x0C] ; pop ebx ; pop esi ; pop edi ; pop ebp ; ret  ;  (1 found)
0x000156d8: mov dword [0xA4A2A2A4], eax ; mov al, byte [0xB9BCBEBB] ; ret  ;  (1 found)
0x00000c09: mov dword [0xC4810000], eax ; xor al, 0x01 ; add byte [eax], al ; pop ebx ; pop esi ; ret  ;  (1 found)
0x000004b1: mov dword [eax], edx ; mov esp, ebp ; pop ebp ; ret  ;  (1 found)
0x00009fec: mov dword [ebx+0x00945F10], eax ; add esp, 0x14 ; mov eax, 0x00000001 ; pop ebx ; pop esi ; ret  ;  (1 found)
0x00009fed: mov dword [ebx+0x00945F10], eax ; add esp, 0x14 ; mov eax, 0x00000001 ; pop ebx ; pop esi ; ret  ;  (1 found)
0x00013663: mov dword [edi-0x2F306F71], ecx ; fcmovnbe st0, st5 ; fcomp3 st2 ; retn 0x40B2 ;  (1 found)
0x00013d13: mov dword [edx+ecx*8-0x3C323436], ecx ; fcmovb st0, st2 ; retn 0x395B ;  (1 found)
0x0001313f: mov dword [esi-0x1F2F3072], ecx ; rcl bl, 1  ; retn 0x50A6 ;  (1 found)
0x00004845: mov dword [esp+0x04], edi ; mov dword [esp], eax ; call dword [ebx+0x14] ;  (1 found)
0x00000646: mov dword [esp], 0x00000001 ; call dword [0x0094D3DC] ;  (1 found)
0x00000666: mov dword [esp], 0x00000002 ; call dword [0x0094D3DC] ;  (1 found)
0x0000053b: mov dword [esp], 0x0000000B ; lea esi, dword [esi+0x00000000] ; lea edi, dword [edi+0x00000000] ; call eax ;  (1 found)
0x000006a9: mov dword [esp], eax ; call dword [0x0094D3F0] ;  (1 found)
0x00000689: mov dword [esp], eax ; call dword [0x0094D400] ;  (1 found)
0x00004849: mov dword [esp], eax ; call dword [ebx+0x14] ;  (1 found)
0x0000af26: mov dword [esp], eax ; fldcw word [esp] ; frndint  ; fldcw word [esp+0x02] ; pop eax ; ret  ;  (1 found)
0x00004858: mov dword [esp], ecx ; call dword [edx+0x08] ;  (1 found)
0x0001351e: mov dx, cs ; mov sp, cs ; ret  ;  (1 found)
0x000136e9: mov dx, cs ; mov sp, cs ; ret  ;  (1 found)
0x0001354e: mov dx, ds ; retn 0x3873 ;  (1 found)
0x000075df: mov eax, 0x00000001 ; add esp, 0x0000008C ; pop ebx ; pop esi ; pop edi ; pop ebp ; ret  ;  (1 found)
0x0000a100: mov eax, 0x00000001 ; add esp, 0x00000110 ; pop ebx ; pop esi ; pop edi ; ret  ;  (1 found)
0x000022a7: mov eax, 0x00000001 ; add esp, 0x00000CAC ; pop ebx ; pop esi ; pop edi ; pop ebp ; ret  ;  (1 found)
0x00001199: mov eax, 0x00000001 ; add esp, 0x08 ; pop ebx ; ret  ;  (1 found)
0x000083ac: mov eax, 0x00000001 ; add esp, 0x10 ; pop ebx ; pop esi ; pop edi ; ret  ;  (1 found)
0x00008310: mov eax, 0x00000001 ; add esp, 0x7C ; pop ebx ; pop esi ; pop edi ; pop ebp ; ret  ;  (1 found)
0x00006bee: mov eax, 0x00000001 ; lea esi, dword [esi+0x00000000] ; lea edi, dword [edi+0x00000000] ; add esp, 0x18 ; pop ebx ; retn 0x0010 ;  (1 found)
0x0000a560: mov eax, 0x00000001 ; mov ebx, dword [esp+0x000000C0] ; mov esi, dword [esp+0x000000C4] ; mov edi, dword [esp+0x000000C8] ; add esp, 0x000000CC ; retn 0x0010 ;  (1 found)
0x00001791: mov eax, 0x00000001 ; mov ebx, dword [esp+0x20] ; mov esi, dword [esp+0x24] ; mov edi, dword [esp+0x28] ; add esp, 0x2C ; retn 0x0010 ;  (1 found)
0x0000a710: mov eax, 0x00000001 ; mov ebx, dword [esp+0x20] ; mov esi, dword [esp+0x24] ; mov edi, dword [esp+0x28] ; add esp, 0x2C ; retn 0x0010 ;  (1 found)
0x00009070: mov eax, 0x00000001 ; mov esi, dword [esp+0x00002430] ; mov edi, dword [esp+0x00002434] ; mov ebp, dword [esp+0x00002438] ; add esp, 0x0000243C ; ret  ;  (1 found)
0x00002a1e: mov eax, 0x00000001 ; pop ebx ; pop esi ; pop edi ; pop ebp ; ret  ;  (1 found)
0x000092ce: mov eax, 0x00000001 ; pop ebx ; pop esi ; pop edi ; pop ebp ; ret  ;  (1 found)
0x0000a1db: mov eax, 0x00000001 ; pop ebx ; pop esi ; pop edi ; pop ebp ; ret  ;  (1 found)
0x00009ff6: mov eax, 0x00000001 ; pop ebx ; pop esi ; ret  ;  (1 found)
0x00001734: mov eax, 0x00474040 ; add esp, 0x1C ; ret  ;  (1 found)
0x00001aa6: mov eax, 0x00940338 ; pop ebx ; pop esi ; pop edi ; pop ebp ; ret  ;  (1 found)
0x0000abda: mov eax, 0x26748D90 ; add byte [ebp-0x5F], dl ; in al, 0xD6 ; inc eax ; add byte [ecx+0x74C085E5], cl ; add al, 0x5D ; ret  ;  (1 found)
0x0000ade5: mov eax, 0x890040F1 ; test dword [edi+edi*8-0x01], ebp ; jmp dword [ecx+0x0040F1BC] ;  (1 found)
0x0000b2b2: mov eax, 0x900094D4 ; nop  ; add byte [eax], al ; add byte [eax], al ; add byte [eax], al ; add byte [eax], al ; jmp dword [0x0094D4F8] ;  (1 found)
0x00010c5d: mov eax, 0xBBB900BA ; mov ebp, 0xC6878700 ; add byte [esp+edx*4-0x6464FF3C], dl ; ret  ;  (1 found)
0x0000ad66: mov eax, 0xC0A10040 ; ret  ;  (1 found)
0x000156cd: mov eax, 0xC6C8E1C6 ; les edi,  [esi-0x5B474745] ; mov dword [0xA4A2A2A4], eax ; mov al, byte [0xB9BCBEBB] ; ret  ;  (1 found)
0x00014616: mov eax, 0xD7C7C1BC ; xlatb  ; ret  ;  (1 found)
0x00003304: mov eax, 0xFFFFFFFF ; pop ebx ; pop esi ; pop edi ; pop ebp ; ret  ;  (1 found)
0x00001477: mov eax, dword [0x00474020+esi*4] ; add esp, 0x14 ; pop ebx ; pop esi ; ret  ;  (1 found)
0x0000150c: mov eax, dword [0x00474020+esi*4] ; add esp, 0x14 ; pop ebx ; pop esi ; ret  ;  (1 found)
0x0000ac01: mov eax, dword [0x0094C3F0] ; mov ebp, esp ; pop ebp ; mov ecx, dword [eax+0x04] ; jmp ecx ;  (1 found)
0x0000ae6b: mov eax, dword [0x89FFFFFD] ; ret  ;  (1 found)
0x0000aed8: mov eax, dword [eax+0x04] ; jmp eax ;  (1 found)
0x0000243f: mov eax, dword [eax] ; add byte [ebx+0x0470249C], cl ; add byte [eax], al ; mov esi, dword [esp+0x00000474] ; mov edi, dword [esp+0x00000478] ; add esp, 0x0000047C ; ret  ;  (1 found)
0x000024a6: mov eax, dword [eax] ; add byte [ebx+0x0470249C], cl ; add byte [eax], al ; mov esi, dword [esp+0x00000474] ; mov edi, dword [esp+0x00000478] ; add esp, 0x0000047C ; ret  ;  (1 found)
0x000006a6: mov eax, dword [ebp+0x08] ; mov dword [esp], eax ; call dword [0x0094D3F0] ;  (1 found)
0x00000686: mov eax, dword [ebp+0x08] ; mov dword [esp], eax ; call dword [0x0094D400] ;  (1 found)
0x0000483f: mov eax, dword [esp+0x1C] ; mov ebx, dword [eax] ; mov dword [esp+0x04], edi ; mov dword [esp], eax ; call dword [ebx+0x14] ;  (1 found)
0x000078c7: mov eax, dword [esp+0x30] ; add esp, 0x0000045C ; pop ebx ; pop esi ; pop edi ; pop ebp ; ret  ;  (1 found)
0x00007ab0: mov eax, dword [esp+0x30] ; add esp, 0x0000045C ; pop ebx ; pop esi ; pop edi ; pop ebp ; ret  ;  (1 found)
0x00006df6: mov eax, ebx ; add esp, 0x24 ; pop ebx ; pop esi ; ret  ;  (1 found)
0x0000ac5f: mov eax, ebx ; mov ebx, dword [ebp-0x04] ; leave  ; ret  ;  (1 found)
0x00000510: mov eax, ebx ; mov esi, dword [ebp-0x04] ; mov ebx, dword [ebp-0x08] ; mov esp, ebp ; pop ebp ; retn 0x0004 ;  (1 found)
0x00008108: mov eax, ebx ; pop ebx ; pop esi ; pop edi ; ret  ;  (1 found)
0x00007fe2: mov eax, ebx ; pop ebx ; ret  ;  (1 found)
0x0000966c: mov eax, ecx ; pop ebx ; pop esi ; pop edi ; pop ebp ; ret  ;  (1 found)
0x0000967f: mov eax, ecx ; pop ebx ; pop esi ; pop edi ; pop ebp ; ret  ;  (1 found)
0x0000968e: mov eax, ecx ; pop ebx ; pop esi ; pop edi ; pop ebp ; ret  ;  (1 found)
0x0000193a: mov eax, edi ; mov ebx, dword [esp+0x00000160] ; mov esi, dword [esp+0x00000164] ; mov edi, dword [esp+0x00000168] ; add esp, 0x0000016C ; ret  ;  (1 found)
0x00001960: mov eax, edi ; mov ebx, dword [esp+0x00000160] ; mov esi, dword [esp+0x00000164] ; mov edi, dword [esp+0x00000168] ; add esp, 0x0000016C ; ret  ;  (1 found)
0x00007e47: mov eax, edx ; mov esi, dword [esp+0x20] ; mov edi, dword [esp+0x24] ; mov ebp, dword [esp+0x28] ; add esp, 0x2C ; ret  ;  (1 found)
0x0000126c: mov eax, edx ; pop ebx ; pop esi ; retn 0x0010 ;  (1 found)
0x00006d48: mov eax, edx ; pop ebx ; ret  ;  (1 found)
0x00006d8b: mov eax, edx ; pop ebx ; ret  ;  (1 found)
0x00008034: mov eax, esi ; add esp, 0x0C ; pop ebx ; pop esi ; pop edi ; pop ebp ; ret  ;  (1 found)
0x000018b2: mov eax, esi ; mov edx, edi ; mov ebx, dword [esp+0x10] ; mov esi, dword [esp+0x14] ; mov edi, dword [esp+0x18] ; add esp, 0x1C ; ret  ;  (1 found)
0x00003311: mov eax, esi ; pop ebx ; pop esi ; pop edi ; pop ebp ; ret  ;  (1 found)
0x0000aed2: mov eax, esp ; mov esp, ecx ; mov ecx, dword [eax] ; mov eax, dword [eax+0x04] ; jmp eax ;  (1 found)
0x0000ad5a: mov ebp, 0x01B90040 ; add byte [eax], al ; add bh, al ; inc ebx ; or byte [eax], al ; mov eax, 0xC0A10040 ; ret  ;  (1 found)
0x00010c62: mov ebp, 0xC6878700 ; add byte [esp+edx*4-0x6464FF3C], dl ; ret  ;  (1 found)
0x000152b7: mov ebp, 0xC9C9C8C6 ; ret  ;  (1 found)
0x0000453e: mov ebp, dword [esp+0x00000098] ; add esp, 0x0000009C ; retn 0x0010 ;  (1 found)
0x0000a2a4: mov ebp, dword [esp+0x00000238] ; add esp, 0x0000023C ; retn 0x0010 ;  (1 found)
0x0000a2f5: mov ebp, dword [esp+0x00000238] ; add esp, 0x0000023C ; retn 0x0010 ;  (1 found)
0x00009083: mov ebp, dword [esp+0x00002438] ; add esp, 0x0000243C ; ret  ;  (1 found)
0x0000531d: mov ebp, dword [esp+0x000470E8] ; add esp, 0x000470EC ; retn 0x0010 ;  (1 found)
0x00007e51: mov ebp, dword [esp+0x28] ; add esp, 0x2C ; ret  ;  (1 found)
0x0000ab41: mov ebp, esp ; fninit  ; pop ebp ; ret  ;  (1 found)
0x0000ac06: mov ebp, esp ; pop ebp ; mov ecx, dword [eax+0x04] ; jmp ecx ;  (1 found)
0x00000641: mov ebp, esp ; sub esp, 0x08 ; mov dword [esp], 0x00000001 ; call dword [0x0094D3DC] ;  (1 found)
0x00000661: mov ebp, esp ; sub esp, 0x08 ; mov dword [esp], 0x00000002 ; call dword [0x0094D3DC] ;  (1 found)
0x000006a1: mov ebp, esp ; sub esp, 0x08 ; mov eax, dword [ebp+0x08] ; mov dword [esp], eax ; call dword [0x0094D3F0] ;  (1 found)
0x00000681: mov ebp, esp ; sub esp, 0x08 ; mov eax, dword [ebp+0x08] ; mov dword [esp], eax ; call dword [0x0094D400] ;  (1 found)
0x00008100: mov ebx, 0x00000001 ; add esp, 0x10 ; mov eax, ebx ; pop ebx ; pop esi ; pop edi ; ret  ;  (1 found)
0x00010c61: mov ebx, 0x878700BD ; mov byte [eax], 0xFFFFFF94 ; xchg eax, esp ; les eax,  [eax] ; wait  ; wait  ; ret  ;  (1 found)
0x000063d1: mov ebx, 0x8900004F ; ret  ;  (1 found)
0x0001443f: mov ebx, 0xC7C9C8BE ; ret  ;  (1 found)
0x00004843: mov ebx, dword [eax] ; mov dword [esp+0x04], edi ; mov dword [esp], eax ; call dword [ebx+0x14] ;  (1 found)
0x0000ac61: mov ebx, dword [ebp-0x04] ; leave  ; ret  ;  (1 found)
0x0000aba5: mov ebx, dword [ebp-0x04] ; mov esp, ebp ; pop ebp ; ret  ;  (1 found)
0x0000aa7b: mov ebx, dword [ebp-0x04] ; sub esp, 0x10 ; leave  ; ret  ;  (1 found)
0x00000515: mov ebx, dword [ebp-0x08] ; mov esp, ebp ; pop ebp ; retn 0x0004 ;  (1 found)
0x00004529: mov ebx, dword [esp+0x0000008C] ; mov esi, dword [esp+0x00000090] ; mov edi, dword [esp+0x00000094] ; mov ebp, dword [esp+0x00000098] ; add esp, 0x0000009C ; retn 0x0010 ;  (1 found)
0x0000a565: mov ebx, dword [esp+0x000000C0] ; mov esi, dword [esp+0x000000C4] ; mov edi, dword [esp+0x000000C8] ; add esp, 0x000000CC ; retn 0x0010 ;  (1 found)
0x0000a51e: mov ebx, dword [esp+0x000000C0] ; xor eax, eax ; mov esi, dword [esp+0x000000C4] ; mov edi, dword [esp+0x000000C8] ; add esp, 0x000000CC ; retn 0x0010 ;  (1 found)
0x0000a51d: mov ebx, dword [esp+0x000000C0] ; xor eax, eax ; mov esi, dword [esp+0x000000C4] ; mov edi, dword [esp+0x000000C8] ; add esp, 0x000000CC ; retn 0x0010 ;  (1 found)
0x0000480a: mov ebx, dword [esp+0x00000150] ; mov esi, dword [esp+0x00000154] ; mov edi, dword [esp+0x00000158] ; add esp, 0x0000015C ; ret  ;  (1 found)
0x00004861: mov ebx, dword [esp+0x00000150] ; mov esi, dword [esp+0x00000154] ; mov edi, dword [esp+0x00000158] ; add esp, 0x0000015C ; ret  ;  (1 found)
0x00001962: mov ebx, dword [esp+0x00000160] ; mov esi, dword [esp+0x00000164] ; mov edi, dword [esp+0x00000168] ; add esp, 0x0000016C ; ret  ;  (1 found)
0x0000193c: mov ebx, dword [esp+0x00000160] ; mov esi, dword [esp+0x00000164] ; mov edi, dword [esp+0x00000168] ; add esp, 0x0000016C ; ret  ;  (1 found)
0x00001b93: mov ebx, dword [esp+0x00000190] ; mov esi, dword [esp+0x00000194] ; mov edi, dword [esp+0x00000198] ; add esp, 0x0000019C ; ret  ;  (1 found)
0x0000a2e0: mov ebx, dword [esp+0x0000022C] ; mov esi, dword [esp+0x00000230] ; mov edi, dword [esp+0x00000234] ; mov ebp, dword [esp+0x00000238] ; add esp, 0x0000023C ; retn 0x0010 ;  (1 found)
0x0000a28d: mov ebx, dword [esp+0x0000022C] ; xor eax, eax ; mov esi, dword [esp+0x00000230] ; mov edi, dword [esp+0x00000234] ; mov ebp, dword [esp+0x00000238] ; add esp, 0x0000023C ; retn 0x0010 ;  (1 found)
0x00002442: mov ebx, dword [esp+0x00000470] ; mov esi, dword [esp+0x00000474] ; mov edi, dword [esp+0x00000478] ; add esp, 0x0000047C ; ret  ;  (1 found)
0x000024a9: mov ebx, dword [esp+0x00000470] ; mov esi, dword [esp+0x00000474] ; mov edi, dword [esp+0x00000478] ; add esp, 0x0000047C ; ret  ;  (1 found)
0x00009069: mov ebx, dword [esp+0x0000242C] ; mov eax, 0x00000001 ; mov esi, dword [esp+0x00002430] ; mov edi, dword [esp+0x00002434] ; mov ebp, dword [esp+0x00002438] ; add esp, 0x0000243C ; ret  ;  (1 found)
0x00005308: mov ebx, dword [esp+0x000470DC] ; mov esi, dword [esp+0x000470E0] ; mov edi, dword [esp+0x000470E4] ; mov ebp, dword [esp+0x000470E8] ; add esp, 0x000470EC ; retn 0x0010 ;  (1 found)
0x000018b6: mov ebx, dword [esp+0x10] ; mov esi, dword [esp+0x14] ; mov edi, dword [esp+0x18] ; add esp, 0x1C ; ret  ;  (1 found)
0x00000719: mov ebx, dword [esp+0x14] ; mov esi, dword [esp+0x18] ; add esp, 0x1C ; ret  ;  (1 found)
0x00007e43: mov ebx, dword [esp+0x1C] ; mov eax, edx ; mov esi, dword [esp+0x20] ; mov edi, dword [esp+0x24] ; mov ebp, dword [esp+0x28] ; add esp, 0x2C ; ret  ;  (1 found)
0x00001630: mov ebx, dword [esp+0x20] ; mov esi, dword [esp+0x24] ; mov edi, dword [esp+0x28] ; add esp, 0x2C ; ret  ;  (1 found)
0x00001796: mov ebx, dword [esp+0x20] ; mov esi, dword [esp+0x24] ; mov edi, dword [esp+0x28] ; add esp, 0x2C ; retn 0x0010 ;  (1 found)
0x0000a715: mov ebx, dword [esp+0x20] ; mov esi, dword [esp+0x24] ; mov edi, dword [esp+0x28] ; add esp, 0x2C ; retn 0x0010 ;  (1 found)
0x00001769: mov ebx, dword [esp+0x20] ; xor eax, eax ; mov esi, dword [esp+0x24] ; mov edi, dword [esp+0x28] ; add esp, 0x2C ; retn 0x0010 ;  (1 found)
0x0000a661: mov ebx, dword [esp+0x20] ; xor eax, eax ; mov esi, dword [esp+0x24] ; mov edi, dword [esp+0x28] ; add esp, 0x2C ; retn 0x0010 ;  (1 found)
0x00009689: mov ecx, 0x0000019D ; mov eax, ecx ; pop ebx ; pop esi ; pop edi ; pop ebp ; ret  ;  (1 found)
0x00017539: mov ecx, 0x00C10310 ; or bl, al ; retn 0xC3C3 ;  (1 found)
0x00017306: mov ecx, 0x02ADAEAE ; lodsd  ; add byte [0xC0BF9EAB], ah ; mov cl, 0xB0 ; ret  ;  (1 found)
0x0001735d: mov ecx, 0x0E00BC03 ; mov cl, 0xB0 ; mov esp, 0xC3C1C1BE ; retn 0xD1C3 ;  (1 found)
0x00017536: mov ecx, 0x10C1C7C0 ; add eax, ecx ; add byte [eax], cl ; ret  ;  (1 found)
0x00010c60: mov ecx, 0x8700BDBB ; xchg esi, eax ; add byte [esp+edx*4-0x6464FF3C], dl ; ret  ;  (1 found)
0x00012b55: mov ecx, 0xB3B0B9B1 ; mov bl, 0xCC ; rcl ecx, cl ; lds eax, ebx ; ret  ;  (1 found)
0x00012b57: mov ecx, 0xCCB3B3B0 ; rcl ecx, cl ; lds eax, ebx ; ret  ;  (1 found)
0x0000ac09: mov ecx, dword [eax+0x04] ; jmp ecx ;  (1 found)
0x0000aed6: mov ecx, dword [eax] ; mov eax, dword [eax+0x04] ; jmp eax ;  (1 found)
0x00004852: mov ecx, dword [esp+0x1C] ; mov edx, dword [ecx] ; mov dword [esp], ecx ; call dword [edx+0x08] ;  (1 found)
0x000136e7: mov ecx, dword [esp+ecx*4-0x3C337336] ; retn 0x0E58 ;  (1 found)
0x00014ac6: mov ecx, ebx ; rol edx, 1  ; retn 0x4757 ;  (1 found)
0x00014ac7: mov ecx, ebx ; rol edx, 1  ; retn 0x4757 ;  (1 found)
0x0001491a: mov ecx, edx ; int 0xCE ; int 0xD8 ; fcmovu st0, st2 ; retn 0x0D0E ;  (1 found)
0x0000a2db: mov edi, 0x00000000 ; mov ebx, dword [esp+0x0000022C] ; mov esi, dword [esp+0x00000230] ; mov edi, dword [esp+0x00000234] ; mov ebp, dword [esp+0x00000238] ; add esp, 0x0000023C ; retn 0x0010 ;  (1 found)
0x000150f9: mov edi, 0x105B5BA6 ; or cl, byte [edx] ; or dword [ebx+eax+0x000B0309], ebx ; adc esp, dword [esi] ; sub eax, 0xD1B26E70 ; retn 0xD2B7 ;  (1 found)
0x00012b52: mov edi, 0xB1B9BCBF ; mov ecx, 0xCCB3B3B0 ; rcl ecx, cl ; lds eax, ebx ; ret  ;  (1 found)
0x00012b53: mov edi, 0xB9B1B9BC ; mov al, 0xB3 ; mov bl, 0xCC ; rcl ecx, cl ; lds eax, ebx ; ret  ;  (1 found)
0x00013326: mov edi, dword [ebx-0x4A] ; retn 0xC3C2 ;  (1 found)
0x00004537: mov edi, dword [esp+0x00000094] ; mov ebp, dword [esp+0x00000098] ; add esp, 0x0000009C ; retn 0x0010 ;  (1 found)
0x0000a52e: mov edi, dword [esp+0x000000C8] ; add esp, 0x000000CC ; retn 0x0010 ;  (1 found)
0x0000a573: mov edi, dword [esp+0x000000C8] ; add esp, 0x000000CC ; retn 0x0010 ;  (1 found)
0x00004818: mov edi, dword [esp+0x00000158] ; add esp, 0x0000015C ; ret  ;  (1 found)
0x0000486f: mov edi, dword [esp+0x00000158] ; add esp, 0x0000015C ; ret  ;  (1 found)
0x0000194a: mov edi, dword [esp+0x00000168] ; add esp, 0x0000016C ; ret  ;  (1 found)
0x00001970: mov edi, dword [esp+0x00000168] ; add esp, 0x0000016C ; ret  ;  (1 found)
0x00001ba1: mov edi, dword [esp+0x00000198] ; add esp, 0x0000019C ; ret  ;  (1 found)
0x0000a29d: mov edi, dword [esp+0x00000234] ; mov ebp, dword [esp+0x00000238] ; add esp, 0x0000023C ; retn 0x0010 ;  (1 found)
0x0000a2ee: mov edi, dword [esp+0x00000234] ; mov ebp, dword [esp+0x00000238] ; add esp, 0x0000023C ; retn 0x0010 ;  (1 found)
0x00002450: mov edi, dword [esp+0x00000478] ; add esp, 0x0000047C ; ret  ;  (1 found)
0x000024b7: mov edi, dword [esp+0x00000478] ; add esp, 0x0000047C ; ret  ;  (1 found)
0x0000907c: mov edi, dword [esp+0x00002434] ; mov ebp, dword [esp+0x00002438] ; add esp, 0x0000243C ; ret  ;  (1 found)
0x00005316: mov edi, dword [esp+0x000470E4] ; mov ebp, dword [esp+0x000470E8] ; add esp, 0x000470EC ; retn 0x0010 ;  (1 found)
0x000018be: mov edi, dword [esp+0x18] ; add esp, 0x1C ; ret  ;  (1 found)
0x00007e4d: mov edi, dword [esp+0x24] ; mov ebp, dword [esp+0x28] ; add esp, 0x2C ; ret  ;  (1 found)
0x00001638: mov edi, dword [esp+0x28] ; add esp, 0x2C ; ret  ;  (1 found)
0x00001773: mov edi, dword [esp+0x28] ; add esp, 0x2C ; retn 0x0010 ;  (1 found)
0x0000179e: mov edi, dword [esp+0x28] ; add esp, 0x2C ; retn 0x0010 ;  (1 found)
0x0000a66b: mov edi, dword [esp+0x28] ; add esp, 0x2C ; retn 0x0010 ;  (1 found)
0x0000a71d: mov edi, dword [esp+0x28] ; add esp, 0x2C ; retn 0x0010 ;  (1 found)
0x00010c5a: mov edx, 0xBAB8B600 ; add byte [ecx-0x78FF4245], bh ; xchg esi, eax ; add byte [esp+edx*4-0x6464FF3C], dl ; ret  ;  (1 found)
0x00010c5e: mov edx, 0xBDBBB900 ; add byte [edi-0x6BFF3979], al ; xchg eax, esp ; les eax,  [eax] ; wait  ; wait  ; ret  ;  (1 found)
0x00013b9e: mov edx, 0xE8E8E7D8 ; out 0xE8, eax ; ret  ;  (1 found)
0x000004ab: mov edx, dword [0x0040D6D0] ; mov dword [eax], edx ; mov esp, ebp ; pop ebp ; ret  ;  (1 found)
0x00004856: mov edx, dword [ecx] ; mov dword [esp], ecx ; call dword [edx+0x08] ;  (1 found)
0x000136b8: mov edx, ecx ; retn 0xC5C3 ;  (1 found)
0x000018b3: mov edx, edi ; mov ebx, dword [esp+0x10] ; mov esi, dword [esp+0x14] ; mov edi, dword [esp+0x18] ; add esp, 0x1C ; ret  ;  (1 found)
0x000018b4: mov edx, edi ; mov ebx, dword [esp+0x10] ; mov esi, dword [esp+0x14] ; mov edi, dword [esp+0x18] ; add esp, 0x1C ; ret  ;  (1 found)
0x00004483: mov es, word [ebx+0x5E5B7CC4] ; pop edi ; pop ebp ; ret  ;  (1 found)
0x00012d33: mov esi, 0x0300C0C3 ; rol byte [eax], 0x00000015 ; ret  ;  (1 found)
0x0001734a: mov esi, 0x10ADBCC4 ; add ebp, dword [ebp-0x41FA51FF] ; add dword [edx+eax+0x02BC06AE], edi ; mov ecx, 0x0E00BC03 ; mov cl, 0xB0 ; mov esp, 0xC3C1C1BE ; retn 0xD1C3 ;  (1 found)
0x000156d3: mov esi, 0xA4B8B8BB ; mov dword [0xA4A2A2A4], eax ; mov al, byte [0xB9BCBEBB] ; ret  ;  (1 found)
0x00017355: mov esi, 0xAE02BC01 ; push es ; mov esp, 0xBC03B902 ; add byte [esi], cl ; mov cl, 0xB0 ; mov esp, 0xC3C1C1BE ; retn 0xD1C3 ;  (1 found)
0x00017301: mov esi, 0xBDBEC1C1 ; mov ecx, 0x02ADAEAE ; lodsd  ; add byte [0xC0BF9EAB], ah ; mov cl, 0xB0 ; ret  ;  (1 found)
0x00012b4f: mov esi, 0xBFBFC0C1 ; mov esp, 0xB0B9B1B9 ; mov bl, 0xB3 ; int3  ; rcl ecx, cl ; lds eax, ebx ; ret  ;  (1 found)
0x00017365: mov esi, 0xC2C3C1C1 ; ret  ;  (1 found)
0x0001752d: mov esi, 0xC8C60B00 ; mov ah, 0xFFFFFFC4 ; mov bh, 0xFFFFFFC1 ; rol bh, 0xFFFFFFC1 ; adc byte [ebx], al ; rol dword [eax], 0x08 ; ret  ;  (1 found)
0x000150f4: mov esi, 0xC8C9C9C8 ; mov edi, 0x105B5BA6 ; or cl, byte [edx] ; or dword [ebx+eax+0x000B0309], ebx ; adc esp, dword [esi] ; sub eax, 0xD1B26E70 ; retn 0xD2B7 ;  (1 found)
0x00001506: mov esi, dword [0x0040D010] ; mov eax, dword [0x00474020+esi*4] ; add esp, 0x14 ; pop ebx ; pop esi ; ret  ;  (1 found)
0x0000146e: mov esi, dword [0x0040D010] ; sub esp, 0x10 ; mov eax, dword [0x00474020+esi*4] ; add esp, 0x14 ; pop ebx ; pop esi ; ret  ;  (1 found)
0x00000512: mov esi, dword [ebp-0x04] ; mov ebx, dword [ebp-0x08] ; mov esp, ebp ; pop ebp ; retn 0x0004 ;  (1 found)
0x00004530: mov esi, dword [esp+0x00000090] ; mov edi, dword [esp+0x00000094] ; mov ebp, dword [esp+0x00000098] ; add esp, 0x0000009C ; retn 0x0010 ;  (1 found)
0x0000a527: mov esi, dword [esp+0x000000C4] ; mov edi, dword [esp+0x000000C8] ; add esp, 0x000000CC ; retn 0x0010 ;  (1 found)
0x0000a56c: mov esi, dword [esp+0x000000C4] ; mov edi, dword [esp+0x000000C8] ; add esp, 0x000000CC ; retn 0x0010 ;  (1 found)
0x00004811: mov esi, dword [esp+0x00000154] ; mov edi, dword [esp+0x00000158] ; add esp, 0x0000015C ; ret  ;  (1 found)
0x00004868: mov esi, dword [esp+0x00000154] ; mov edi, dword [esp+0x00000158] ; add esp, 0x0000015C ; ret  ;  (1 found)
0x00001943: mov esi, dword [esp+0x00000164] ; mov edi, dword [esp+0x00000168] ; add esp, 0x0000016C ; ret  ;  (1 found)
0x00001969: mov esi, dword [esp+0x00000164] ; mov edi, dword [esp+0x00000168] ; add esp, 0x0000016C ; ret  ;  (1 found)
0x00001b9a: mov esi, dword [esp+0x00000194] ; mov edi, dword [esp+0x00000198] ; add esp, 0x0000019C ; ret  ;  (1 found)
0x0000a296: mov esi, dword [esp+0x00000230] ; mov edi, dword [esp+0x00000234] ; mov ebp, dword [esp+0x00000238] ; add esp, 0x0000023C ; retn 0x0010 ;  (1 found)
0x0000a2e7: mov esi, dword [esp+0x00000230] ; mov edi, dword [esp+0x00000234] ; mov ebp, dword [esp+0x00000238] ; add esp, 0x0000023C ; retn 0x0010 ;  (1 found)
0x00002449: mov esi, dword [esp+0x00000474] ; mov edi, dword [esp+0x00000478] ; add esp, 0x0000047C ; ret  ;  (1 found)
0x000024b0: mov esi, dword [esp+0x00000474] ; mov edi, dword [esp+0x00000478] ; add esp, 0x0000047C ; ret  ;  (1 found)
0x00009075: mov esi, dword [esp+0x00002430] ; mov edi, dword [esp+0x00002434] ; mov ebp, dword [esp+0x00002438] ; add esp, 0x0000243C ; ret  ;  (1 found)
0x0000530f: mov esi, dword [esp+0x000470E0] ; mov edi, dword [esp+0x000470E4] ; mov ebp, dword [esp+0x000470E8] ; add esp, 0x000470EC ; retn 0x0010 ;  (1 found)
0x000018ba: mov esi, dword [esp+0x14] ; mov edi, dword [esp+0x18] ; add esp, 0x1C ; ret  ;  (1 found)
0x0000071d: mov esi, dword [esp+0x18] ; add esp, 0x1C ; ret  ;  (1 found)
0x00007e49: mov esi, dword [esp+0x20] ; mov edi, dword [esp+0x24] ; mov ebp, dword [esp+0x28] ; add esp, 0x2C ; ret  ;  (1 found)
0x00001634: mov esi, dword [esp+0x24] ; mov edi, dword [esp+0x28] ; add esp, 0x2C ; ret  ;  (1 found)
0x0000176f: mov esi, dword [esp+0x24] ; mov edi, dword [esp+0x28] ; add esp, 0x2C ; retn 0x0010 ;  (1 found)
0x0000179a: mov esi, dword [esp+0x24] ; mov edi, dword [esp+0x28] ; add esp, 0x2C ; retn 0x0010 ;  (1 found)
0x0000a667: mov esi, dword [esp+0x24] ; mov edi, dword [esp+0x28] ; add esp, 0x2C ; retn 0x0010 ;  (1 found)
0x0000a719: mov esi, dword [esp+0x24] ; mov edi, dword [esp+0x28] ; add esp, 0x2C ; retn 0x0010 ;  (1 found)
0x00001627: mov esi, esi ; lea edi, dword [edi+0x00000000] ; mov ebx, dword [esp+0x20] ; mov esi, dword [esp+0x24] ; mov edi, dword [esp+0x28] ; add esp, 0x2C ; ret  ;  (1 found)
0x0000065e: mov esi, esi ; push ebp ; mov ebp, esp ; sub esp, 0x08 ; mov dword [esp], 0x00000002 ; call dword [0x0094D3DC] ;  (1 found)
0x0000067e: mov esi, esi ; push ebp ; mov ebp, esp ; sub esp, 0x08 ; mov eax, dword [ebp+0x08] ; mov dword [esp], eax ; call dword [0x0094D400] ;  (1 found)
0x0000a55a: mov esp, 0x00000027 ; add byte [eax+0x00000001], bh ; mov ebx, dword [esp+0x000000C0] ; mov esi, dword [esp+0x000000C4] ; mov edi, dword [esp+0x000000C8] ; add esp, 0x000000CC ; retn 0x0010 ;  (1 found)
0x00004538: mov esp, 0x00009424 ; add byte [ebx+0x009824AC], cl ; add byte [eax], al ; add esp, 0x0000009C ; retn 0x0010 ;  (1 found)
0x0000a29e: mov esp, 0x00023424 ; add byte [ebx+0x023824AC], cl ; add byte [eax], al ; add esp, 0x0000023C ; retn 0x0010 ;  (1 found)
0x0000a2ef: mov esp, 0x00023424 ; add byte [ebx+0x023824AC], cl ; add byte [eax], al ; add esp, 0x0000023C ; retn 0x0010 ;  (1 found)
0x0000907d: mov esp, 0x00243424 ; add byte [ebx+0x243824AC], cl ; add byte [eax], al ; add esp, 0x0000243C ; ret  ;  (1 found)
0x00005317: mov esp, 0x0470E424 ; add byte [ebx+0x70E824AC], cl ; add al, 0x00 ; add esp, 0x000470EC ; retn 0x0010 ;  (1 found)
0x0000aef2: mov esp, 0x900094D3 ; nop  ; add byte [eax], al ; add byte [eax], al ; add byte [eax], al ; add byte [eax], al ; jmp dword [0x0094D3C4] ;  (1 found)
0x0000b432: mov esp, 0x900094D4 ; nop  ; add byte [eax], al ; add byte [eax], al ; add byte [eax], al ; add byte [eax], al ; jmp dword [0x0094D4D8] ;  (1 found)
0x0001734d: mov esp, 0xAD0310AD ; add dword [esi-0x43FE41FB], ebp ; add ch, byte [esi-0x46FD43FA] ; add edi, dword [eax+eax-0x434F4EF2] ; mov esi, 0xC2C3C1C1 ; ret  ;  (1 found)
0x0001735f: mov esp, 0xB0B10E00 ; mov esp, 0xC3C1C1BE ; retn 0xD1C3 ;  (1 found)
0x00012b54: mov esp, 0xB0B9B1B9 ; mov bl, 0xB3 ; int3  ; rcl ecx, cl ; lds eax, ebx ; ret  ;  (1 found)
0x0001735b: mov esp, 0xBC03B902 ; add byte [esi], cl ; mov cl, 0xB0 ; mov esp, 0xC3C1C1BE ; retn 0xD1C3 ;  (1 found)
0x00017357: mov esp, 0xBC06AE02 ; add bh, byte [ecx+0x0E00BC03] ; mov cl, 0xB0 ; mov esp, 0xC3C1C1BE ; retn 0xD1C3 ;  (1 found)
0x00012b4e: mov esp, 0xBFC0C1BE ; mov edi, 0xB9B1B9BC ; mov al, 0xB3 ; mov bl, 0xCC ; rcl ecx, cl ; lds eax, ebx ; ret  ;  (1 found)
0x00017364: mov esp, 0xC3C1C1BE ; retn 0xD1C3 ;  (1 found)
0x00017191: mov esp, 0xC3C3C1BE ; retn 0xD1D1 ;  (1 found)
0x00014617: mov esp, 0xD7D7C7C1 ; ret  ;  (1 found)
0x0000956f: mov esp, 0xFF9DD89D ; inc dword [ebx-0x7B] ; ror byte [edi], cl ; xchg eax, ebp ; retn 0xFB83 ;  (1 found)
0x00002535: mov esp, dword [edx+eax-0x74B9FFB8] ; xchg eax, ebx ; mov al, byte [0x81004802] ; ret  ;  (1 found)
0x00002ef2: mov esp, dword [edx+eax-0x74B9FFB8] ; xchg eax, ebx ; mov al, byte [0x81004802] ; ret  ;  (1 found)
0x00002684: mov esp, dword [edx+eax-0x74B9FFB8] ; xchg eax, ebx ; mov al, byte [0x81004802] ; ret  ;  (1 found)
0x00000438: mov esp, ebp ; pop ebp ; ret  ;  (1 found)
0x00000692: mov esp, ebp ; pop ebp ; ret  ;  (1 found)
0x000006b2: mov esp, ebp ; pop ebp ; ret  ;  (1 found)
0x000004b3: mov esp, ebp ; pop ebp ; ret  ;  (1 found)
0x0000ab32: mov esp, ebp ; pop ebp ; ret  ;  (1 found)
0x0000ab61: mov esp, ebp ; pop ebp ; ret  ;  (1 found)
0x0000aba8: mov esp, ebp ; pop ebp ; ret  ;  (1 found)
0x00000518: mov esp, ebp ; pop ebp ; retn 0x0004 ;  (1 found)
0x00000658: mov esp, ebp ; xor eax, eax ; pop ebp ; ret  ;  (1 found)
0x00000678: mov esp, ebp ; xor eax, eax ; pop ebp ; ret  ;  (1 found)
0x0000aed4: mov esp, ecx ; mov ecx, dword [eax] ; mov eax, dword [eax+0x04] ; jmp eax ;  (1 found)
0x00008ee8: mov esp, edi ; lea esp, dword [ebp-0x0C] ; pop ebx ; pop esi ; pop edi ; pop ebp ; ret  ;  (1 found)
0x00000714: mov seg?, word [esi+eax] ; add byte [eax], al ; mov ebx, dword [esp+0x14] ; mov esi, dword [esp+0x18] ; add esp, 0x1C ; ret  ;  (1 found)
0x00013520: mov sp, cs ; ret  ;  (1 found)
0x000136eb: mov sp, cs ; ret  ;  (1 found)
0x000025cd: mov ss, word [eax] ; add dword [eax], eax ; add byte [ecx+0x0006DCC4], al ; add byte [ebx+0x5E], bl ; pop edi ; pop ebp ; ret  ;  (1 found)
0x00004eb6: mov word [0x5E5B0000], ss ; pop edi ; pop ebp ; ret  ;  (1 found)
0x00004e94: mov word [0x5E5B0000], ss ; pop edi ; pop ebp ; ret  ;  (1 found)
0x0000788f: mov word [0x8DFFFFFF], seg? ; mov dh, 0x00 ; add byte [eax], al ; add byte [ebp+0x000000BF], cl ; add byte [esi+0x0F], cl ; xchg eax, esp ; retn 0x7C81 ;  (1 found)
0x0000452c: mov word [eax], es ; add byte [eax], al ; mov esi, dword [esp+0x00000090] ; mov edi, dword [esp+0x00000094] ; mov ebp, dword [esp+0x00000098] ; add esp, 0x0000009C ; retn 0x0010 ;  (1 found)
0x00006e84: mov word [eax], es ; add byte [eax], al ; pop ebx ; pop esi ; pop edi ; pop ebp ; ret  ;  (1 found)
0x000075e6: mov word [eax], es ; add byte [eax], al ; pop ebx ; pop esi ; pop edi ; pop ebp ; ret  ;  (1 found)
0x000008c6: mov word [eax], fs ; add byte [eax], al ; pop ebx ; pop esi ; pop edi ; pop ebp ; ret  ;  (1 found)
0x000030fc: mov word [ecx-0x7E000002], gs ; les ebp,  [edx+eax+0x00] ; add byte [ebx+0x5E], bl ; pop edi ; pop ebp ; ret  ;  (1 found)
0x000032ac: mov word [ecx-0x7E000002], gs ; les ebp,  [edx+eax+0x00] ; add byte [ebx+0x5E], bl ; pop edi ; pop ebp ; ret  ;  (1 found)
0x00003c57: mov word [ecx], es ; add byte [eax], al ; pop ebx ; pop esi ; pop edi ; pop ebp ; ret  ;  (1 found)
0x00014156: mov word [esi+0x0CD0CFCF], cs ; add dl, al ; add edi, ebx ; add ah, al ; add byte [0xDAEAEEF0], cl ; retn 0xB5B5 ;  (1 found)
0x00014155: mov word [esi+ecx*4+0x0CD0CFCF], cs ; add dl, al ; add edi, ebx ; add ah, al ; add byte [0xDAEAEEF0], cl ; retn 0xB5B5 ;  (1 found)
0x0000af25: mov word [esp], ax ; fldcw word [esp] ; frndint  ; fldcw word [esp+0x02] ; pop eax ; ret  ;  (1 found)
0x00004481: movd dword [esi+0x5B7CC483], mm1 ; pop esi ; pop edi ; pop ebp ; ret  ;  (1 found)
0x000156dc: movsb  ; mov al, byte [0xB9BCBEBB] ; ret  ;  (1 found)
0x000172f5: movsb  ; mov byte [0xA7B9B9BC], al ; ret  ;  (1 found)
0x000156d7: movsb  ; mov dword [0xA4A2A2A4], eax ; mov al, byte [0xB9BCBEBB] ; ret  ;  (1 found)
0x000152b6: movsb  ; mov ebp, 0xC9C9C8C6 ; ret  ;  (1 found)
0x00010c80: movsb  ; movsb  ; ret  ;  (1 found)
0x0000b502: movsb  ; rcl dword [eax+eax+0x00009090], cl ; add byte [eax], al ; add byte [eax], al ; add byte [eax], al ; jmp dword [0x0094D3A8] ;  (1 found)
0x00010c81: movsb  ; ret  ;  (1 found)
0x00013b8f: movups xmm5,  [eax+edi] ; cmp eax, dword [edx+0x74] ; test al, 0x29 ; add ebp, dword [eax-0x4A4CF700] ; mov edx, 0xE8E8E7D8 ; out 0xE8, eax ; ret  ;  (1 found)
0x000162f5: movups xmm7,  [eax] ; push esp ; retn 0xD2D1 ;  (1 found)
0x000029ab: nop  ; add al, byte [eax] ; add byte [ecx-0x74EBDBAC], cl ; and dword [edx+eax-0x74B9FFB8], 0xFFFFFF93 ; mov al, byte [0x81004802] ; ret  ;  (1 found)
0x0000267b: nop  ; add al, byte [eax] ; add byte [ecx-0x74EBDBAC], cl ; mov esp, dword [edx+eax-0x74B9FFB8] ; xchg eax, ebx ; mov al, byte [0x81004802] ; ret  ;  (1 found)
0x0000a9b7: nop  ; add byte [eax], al ; add byte [eax], al ; add byte [eax], al ; add byte [eax], al ; jmp dword [0x0094D334] ;  (1 found)
0x0000a9a7: nop  ; add byte [eax], al ; add byte [eax], al ; add byte [eax], al ; add byte [eax], al ; jmp dword [0x0094D338] ;  (1 found)
0x0000a997: nop  ; add byte [eax], al ; add byte [eax], al ; add byte [eax], al ; add byte [eax], al ; jmp dword [0x0094D33C] ;  (1 found)
0x0000a9c7: nop  ; add byte [eax], al ; add byte [eax], al ; add byte [eax], al ; add byte [eax], al ; jmp dword [0x0094D348] ;  (1 found)
0x0000a977: nop  ; add byte [eax], al ; add byte [eax], al ; add byte [eax], al ; add byte [eax], al ; jmp dword [0x0094D354] ;  (1 found)
0x0000a987: nop  ; add byte [eax], al ; add byte [eax], al ; add byte [eax], al ; add byte [eax], al ; jmp dword [0x0094D358] ;  (1 found)
0x0000b597: nop  ; add byte [eax], al ; add byte [eax], al ; add byte [eax], al ; add byte [eax], al ; jmp dword [0x0094D364] ;  (1 found)
0x0000b527: nop  ; add byte [eax], al ; add byte [eax], al ; add byte [eax], al ; add byte [eax], al ; jmp dword [0x0094D368] ;  (1 found)
0x0000b477: nop  ; add byte [eax], al ; add byte [eax], al ; add byte [eax], al ; add byte [eax], al ; jmp dword [0x0094D36C] ;  (1 found)
0x0000b4a7: nop  ; add byte [eax], al ; add byte [eax], al ; add byte [eax], al ; add byte [eax], al ; jmp dword [0x0094D370] ;  (1 found)
0x0000b4b7: nop  ; add byte [eax], al ; add byte [eax], al ; add byte [eax], al ; add byte [eax], al ; jmp dword [0x0094D374] ;  (1 found)
0x0000b587: nop  ; add byte [eax], al ; add byte [eax], al ; add byte [eax], al ; add byte [eax], al ; jmp dword [0x0094D378] ;  (1 found)
0x0000b497: nop  ; add byte [eax], al ; add byte [eax], al ; add byte [eax], al ; add byte [eax], al ; jmp dword [0x0094D37C] ;  (1 found)
0x0000b4c7: nop  ; add byte [eax], al ; add byte [eax], al ; add byte [eax], al ; add byte [eax], al ; jmp dword [0x0094D380] ;  (1 found)
0x0000b577: nop  ; add byte [eax], al ; add byte [eax], al ; add byte [eax], al ; add byte [eax], al ; jmp dword [0x0094D384] ;  (1 found)
0x0000b547: nop  ; add byte [eax], al ; add byte [eax], al ; add byte [eax], al ; add byte [eax], al ; jmp dword [0x0094D388] ;  (1 found)
0x0000b4d7: nop  ; add byte [eax], al ; add byte [eax], al ; add byte [eax], al ; add byte [eax], al ; jmp dword [0x0094D38C] ;  (1 found)
0x0000b537: nop  ; add byte [eax], al ; add byte [eax], al ; add byte [eax], al ; add byte [eax], al ; jmp dword [0x0094D390] ;  (1 found)
0x0000b487: nop  ; add byte [eax], al ; add byte [eax], al ; add byte [eax], al ; add byte [eax], al ; jmp dword [0x0094D394] ;  (1 found)
0x0000b567: nop  ; add byte [eax], al ; add byte [eax], al ; add byte [eax], al ; add byte [eax], al ; jmp dword [0x0094D398] ;  (1 found)
0x0000b557: nop  ; add byte [eax], al ; add byte [eax], al ; add byte [eax], al ; add byte [eax], al ; jmp dword [0x0094D39C] ;  (1 found)
0x0000b4e7: nop  ; add byte [eax], al ; add byte [eax], al ; add byte [eax], al ; add byte [eax], al ; jmp dword [0x0094D3A0] ;  (1 found)
0x0000b4f7: nop  ; add byte [eax], al ; add byte [eax], al ; add byte [eax], al ; add byte [eax], al ; jmp dword [0x0094D3A4] ;  (1 found)
0x0000b507: nop  ; add byte [eax], al ; add byte [eax], al ; add byte [eax], al ; add byte [eax], al ; jmp dword [0x0094D3A8] ;  (1 found)
0x0000b467: nop  ; add byte [eax], al ; add byte [eax], al ; add byte [eax], al ; add byte [eax], al ; jmp dword [0x0094D3AC] ;  (1 found)
0x0000b517: nop  ; add byte [eax], al ; add byte [eax], al ; add byte [eax], al ; add byte [eax], al ; jmp dword [0x0094D3B0] ;  (1 found)
0x0000aee7: nop  ; add byte [eax], al ; add byte [eax], al ; add byte [eax], al ; add byte [eax], al ; jmp dword [0x0094D3BC] ;  (1 found)
0x0000aef7: nop  ; add byte [eax], al ; add byte [eax], al ; add byte [eax], al ; add byte [eax], al ; jmp dword [0x0094D3C4] ;  (1 found)
0x0000afa7: nop  ; add byte [eax], al ; add byte [eax], al ; add byte [eax], al ; add byte [eax], al ; jmp dword [0x0094D3D0] ;  (1 found)
0x0000af57: nop  ; add byte [eax], al ; add byte [eax], al ; add byte [eax], al ; add byte [eax], al ; jmp dword [0x0094D3D4] ;  (1 found)
0x0000af77: nop  ; add byte [eax], al ; add byte [eax], al ; add byte [eax], al ; add byte [eax], al ; jmp dword [0x0094D3D8] ;  (1 found)
0x0000afb7: nop  ; add byte [eax], al ; add byte [eax], al ; add byte [eax], al ; add byte [eax], al ; jmp dword [0x0094D3E0] ;  (1 found)
0x0000af47: nop  ; add byte [eax], al ; add byte [eax], al ; add byte [eax], al ; add byte [eax], al ; jmp dword [0x0094D3E4] ;  (1 found)
0x0000af87: nop  ; add byte [eax], al ; add byte [eax], al ; add byte [eax], al ; add byte [eax], al ; jmp dword [0x0094D3E8] ;  (1 found)
0x0000af97: nop  ; add byte [eax], al ; add byte [eax], al ; add byte [eax], al ; add byte [eax], al ; jmp dword [0x0094D3F4] ;  (1 found)
0x0000b1b7: nop  ; add byte [eax], al ; add byte [eax], al ; add byte [eax], al ; add byte [eax], al ; jmp dword [0x0094D3F8] ;  (1 found)
0x0000b197: nop  ; add byte [eax], al ; add byte [eax], al ; add byte [eax], al ; add byte [eax], al ; jmp dword [0x0094D3FC] ;  (1 found)
0x0000b127: nop  ; add byte [eax], al ; add byte [eax], al ; add byte [eax], al ; add byte [eax], al ; jmp dword [0x0094D404] ;  (1 found)
0x0000b017: nop  ; add byte [eax], al ; add byte [eax], al ; add byte [eax], al ; add byte [eax], al ; jmp dword [0x0094D408] ;  (1 found)
0x0000b087: nop  ; add byte [eax], al ; add byte [eax], al ; add byte [eax], al ; add byte [eax], al ; jmp dword [0x0094D40C] ;  (1 found)
0x0000b177: nop  ; add byte [eax], al ; add byte [eax], al ; add byte [eax], al ; add byte [eax], al ; jmp dword [0x0094D410] ;  (1 found)
0x0000b077: nop  ; add byte [eax], al ; add byte [eax], al ; add byte [eax], al ; add byte [eax], al ; jmp dword [0x0094D414] ;  (1 found)
0x0000b107: nop  ; add byte [eax], al ; add byte [eax], al ; add byte [eax], al ; add byte [eax], al ; jmp dword [0x0094D418] ;  (1 found)
0x0000b117: nop  ; add byte [eax], al ; add byte [eax], al ; add byte [eax], al ; add byte [eax], al ; jmp dword [0x0094D41C] ;  (1 found)
0x0000b097: nop  ; add byte [eax], al ; add byte [eax], al ; add byte [eax], al ; add byte [eax], al ; jmp dword [0x0094D420] ;  (1 found)
0x0000b167: nop  ; add byte [eax], al ; add byte [eax], al ; add byte [eax], al ; add byte [eax], al ; jmp dword [0x0094D424] ;  (1 found)
0x0000b057: nop  ; add byte [eax], al ; add byte [eax], al ; add byte [eax], al ; add byte [eax], al ; jmp dword [0x0094D428] ;  (1 found)
0x0000b157: nop  ; add byte [eax], al ; add byte [eax], al ; add byte [eax], al ; add byte [eax], al ; jmp dword [0x0094D42C] ;  (1 found)
0x0000b0f7: nop  ; add byte [eax], al ; add byte [eax], al ; add byte [eax], al ; add byte [eax], al ; jmp dword [0x0094D430] ;  (1 found)
0x0000b0e7: nop  ; add byte [eax], al ; add byte [eax], al ; add byte [eax], al ; add byte [eax], al ; jmp dword [0x0094D434] ;  (1 found)
0x0000b187: nop  ; add byte [eax], al ; add byte [eax], al ; add byte [eax], al ; add byte [eax], al ; jmp dword [0x0094D438] ;  (1 found)
0x0000b047: nop  ; add byte [eax], al ; add byte [eax], al ; add byte [eax], al ; add byte [eax], al ; jmp dword [0x0094D43C] ;  (1 found)
0x0000b137: nop  ; add byte [eax], al ; add byte [eax], al ; add byte [eax], al ; add byte [eax], al ; jmp dword [0x0094D440] ;  (1 found)
0x0000b147: nop  ; add byte [eax], al ; add byte [eax], al ; add byte [eax], al ; add byte [eax], al ; jmp dword [0x0094D444] ;  (1 found)
0x0000b0b7: nop  ; add byte [eax], al ; add byte [eax], al ; add byte [eax], al ; add byte [eax], al ; jmp dword [0x0094D448] ;  (1 found)
0x0000b1a7: nop  ; add byte [eax], al ; add byte [eax], al ; add byte [eax], al ; add byte [eax], al ; jmp dword [0x0094D44C] ;  (1 found)
0x0000af67: nop  ; add byte [eax], al ; add byte [eax], al ; add byte [eax], al ; add byte [eax], al ; jmp dword [0x0094D450] ;  (1 found)
0x0000aff7: nop  ; add byte [eax], al ; add byte [eax], al ; add byte [eax], al ; add byte [eax], al ; jmp dword [0x0094D454] ;  (1 found)
0x0000b027: nop  ; add byte [eax], al ; add byte [eax], al ; add byte [eax], al ; add byte [eax], al ; jmp dword [0x0094D458] ;  (1 found)
0x0000b067: nop  ; add byte [eax], al ; add byte [eax], al ; add byte [eax], al ; add byte [eax], al ; jmp dword [0x0094D45C] ;  (1 found)
0x0000b0c7: nop  ; add byte [eax], al ; add byte [eax], al ; add byte [eax], al ; add byte [eax], al ; jmp dword [0x0094D460] ;  (1 found)
0x0000b0d7: nop  ; add byte [eax], al ; add byte [eax], al ; add byte [eax], al ; add byte [eax], al ; jmp dword [0x0094D464] ;  (1 found)
0x0000afe7: nop  ; add byte [eax], al ; add byte [eax], al ; add byte [eax], al ; add byte [eax], al ; jmp dword [0x0094D468] ;  (1 found)
0x0000b007: nop  ; add byte [eax], al ; add byte [eax], al ; add byte [eax], al ; add byte [eax], al ; jmp dword [0x0094D46C] ;  (1 found)
0x0000afd7: nop  ; add byte [eax], al ; add byte [eax], al ; add byte [eax], al ; add byte [eax], al ; jmp dword [0x0094D470] ;  (1 found)
0x0000afc7: nop  ; add byte [eax], al ; add byte [eax], al ; add byte [eax], al ; add byte [eax], al ; jmp dword [0x0094D474] ;  (1 found)
0x0000b037: nop  ; add byte [eax], al ; add byte [eax], al ; add byte [eax], al ; add byte [eax], al ; jmp dword [0x0094D478] ;  (1 found)
0x0000b0a7: nop  ; add byte [eax], al ; add byte [eax], al ; add byte [eax], al ; add byte [eax], al ; jmp dword [0x0094D47C] ;  (1 found)
0x0000b5e7: nop  ; add byte [eax], al ; add byte [eax], al ; add byte [eax], al ; add byte [eax], al ; jmp dword [0x0094D488] ;  (1 found)
0x0000b5a7: nop  ; add byte [eax], al ; add byte [eax], al ; add byte [eax], al ; add byte [eax], al ; jmp dword [0x0094D48C] ;  (1 found)
0x0000b5c7: nop  ; add byte [eax], al ; add byte [eax], al ; add byte [eax], al ; add byte [eax], al ; jmp dword [0x0094D490] ;  (1 found)
0x0000b5b7: nop  ; add byte [eax], al ; add byte [eax], al ; add byte [eax], al ; add byte [eax], al ; jmp dword [0x0094D494] ;  (1 found)
0x0000b5f7: nop  ; add byte [eax], al ; add byte [eax], al ; add byte [eax], al ; add byte [eax], al ; jmp dword [0x0094D498] ;  (1 found)
0x0000b5d7: nop  ; add byte [eax], al ; add byte [eax], al ; add byte [eax], al ; add byte [eax], al ; jmp dword [0x0094D49C] ;  (1 found)
0x0000b337: nop  ; add byte [eax], al ; add byte [eax], al ; add byte [eax], al ; add byte [eax], al ; jmp dword [0x0094D4A8] ;  (1 found)
0x0000b327: nop  ; add byte [eax], al ; add byte [eax], al ; add byte [eax], al ; add byte [eax], al ; jmp dword [0x0094D4AC] ;  (1 found)
0x0000b377: nop  ; add byte [eax], al ; add byte [eax], al ; add byte [eax], al ; add byte [eax], al ; jmp dword [0x0094D4B0] ;  (1 found)
0x0000b267: nop  ; add byte [eax], al ; add byte [eax], al ; add byte [eax], al ; add byte [eax], al ; jmp dword [0x0094D4B4] ;  (1 found)
0x0000b2a7: nop  ; add byte [eax], al ; add byte [eax], al ; add byte [eax], al ; add byte [eax], al ; jmp dword [0x0094D4B8] ;  (1 found)
0x0000b427: nop  ; add byte [eax], al ; add byte [eax], al ; add byte [eax], al ; add byte [eax], al ; jmp dword [0x0094D4BC] ;  (1 found)
0x0000b3d7: nop  ; add byte [eax], al ; add byte [eax], al ; add byte [eax], al ; add byte [eax], al ; jmp dword [0x0094D4C0] ;  (1 found)
0x0000b1c7: nop  ; add byte [eax], al ; add byte [eax], al ; add byte [eax], al ; add byte [eax], al ; jmp dword [0x0094D4C4] ;  (1 found)
0x0000b207: nop  ; add byte [eax], al ; add byte [eax], al ; add byte [eax], al ; add byte [eax], al ; jmp dword [0x0094D4C8] ;  (1 found)
0x0000b307: nop  ; add byte [eax], al ; add byte [eax], al ; add byte [eax], al ; add byte [eax], al ; jmp dword [0x0094D4CC] ;  (1 found)
0x0000b237: nop  ; add byte [eax], al ; add byte [eax], al ; add byte [eax], al ; add byte [eax], al ; jmp dword [0x0094D4D0] ;  (1 found)
0x0000b447: nop  ; add byte [eax], al ; add byte [eax], al ; add byte [eax], al ; add byte [eax], al ; jmp dword [0x0094D4D4] ;  (1 found)
0x0000b437: nop  ; add byte [eax], al ; add byte [eax], al ; add byte [eax], al ; add byte [eax], al ; jmp dword [0x0094D4D8] ;  (1 found)
0x0000b3a7: nop  ; add byte [eax], al ; add byte [eax], al ; add byte [eax], al ; add byte [eax], al ; jmp dword [0x0094D4DC] ;  (1 found)
0x0000b2c7: nop  ; add byte [eax], al ; add byte [eax], al ; add byte [eax], al ; add byte [eax], al ; jmp dword [0x0094D4E0] ;  (1 found)
0x0000b297: nop  ; add byte [eax], al ; add byte [eax], al ; add byte [eax], al ; add byte [eax], al ; jmp dword [0x0094D4E4] ;  (1 found)
0x0000b1e7: nop  ; add byte [eax], al ; add byte [eax], al ; add byte [eax], al ; add byte [eax], al ; jmp dword [0x0094D4E8] ;  (1 found)
0x0000b2d7: nop  ; add byte [eax], al ; add byte [eax], al ; add byte [eax], al ; add byte [eax], al ; jmp dword [0x0094D4EC] ;  (1 found)
0x0000b407: nop  ; add byte [eax], al ; add byte [eax], al ; add byte [eax], al ; add byte [eax], al ; jmp dword [0x0094D4F0] ;  (1 found)
0x0000b257: nop  ; add byte [eax], al ; add byte [eax], al ; add byte [eax], al ; add byte [eax], al ; jmp dword [0x0094D4F4] ;  (1 found)
0x0000b2b7: nop  ; add byte [eax], al ; add byte [eax], al ; add byte [eax], al ; add byte [eax], al ; jmp dword [0x0094D4F8] ;  (1 found)
0x0000b387: nop  ; add byte [eax], al ; add byte [eax], al ; add byte [eax], al ; add byte [eax], al ; jmp dword [0x0094D4FC] ;  (1 found)
0x0000b3e7: nop  ; add byte [eax], al ; add byte [eax], al ; add byte [eax], al ; add byte [eax], al ; jmp dword [0x0094D500] ;  (1 found)
0x0000b347: nop  ; add byte [eax], al ; add byte [eax], al ; add byte [eax], al ; add byte [eax], al ; jmp dword [0x0094D504] ;  (1 found)
0x0000b417: nop  ; add byte [eax], al ; add byte [eax], al ; add byte [eax], al ; add byte [eax], al ; jmp dword [0x0094D508] ;  (1 found)
0x0000b217: nop  ; add byte [eax], al ; add byte [eax], al ; add byte [eax], al ; add byte [eax], al ; jmp dword [0x0094D50C] ;  (1 found)
0x0000b1d7: nop  ; add byte [eax], al ; add byte [eax], al ; add byte [eax], al ; add byte [eax], al ; jmp dword [0x0094D510] ;  (1 found)
0x0000b287: nop  ; add byte [eax], al ; add byte [eax], al ; add byte [eax], al ; add byte [eax], al ; jmp dword [0x0094D514] ;  (1 found)
0x0000b2f7: nop  ; add byte [eax], al ; add byte [eax], al ; add byte [eax], al ; add byte [eax], al ; jmp dword [0x0094D518] ;  (1 found)
0x0000b3c7: nop  ; add byte [eax], al ; add byte [eax], al ; add byte [eax], al ; add byte [eax], al ; jmp dword [0x0094D51C] ;  (1 found)
0x0000b3f7: nop  ; add byte [eax], al ; add byte [eax], al ; add byte [eax], al ; add byte [eax], al ; jmp dword [0x0094D520] ;  (1 found)
0x0000b227: nop  ; add byte [eax], al ; add byte [eax], al ; add byte [eax], al ; add byte [eax], al ; jmp dword [0x0094D524] ;  (1 found)
0x0000b247: nop  ; add byte [eax], al ; add byte [eax], al ; add byte [eax], al ; add byte [eax], al ; jmp dword [0x0094D528] ;  (1 found)
0x0000b317: nop  ; add byte [eax], al ; add byte [eax], al ; add byte [eax], al ; add byte [eax], al ; jmp dword [0x0094D52C] ;  (1 found)
0x0000b457: nop  ; add byte [eax], al ; add byte [eax], al ; add byte [eax], al ; add byte [eax], al ; jmp dword [0x0094D530] ;  (1 found)
0x0000b367: nop  ; add byte [eax], al ; add byte [eax], al ; add byte [eax], al ; add byte [eax], al ; jmp dword [0x0094D534] ;  (1 found)
0x0000b397: nop  ; add byte [eax], al ; add byte [eax], al ; add byte [eax], al ; add byte [eax], al ; jmp dword [0x0094D538] ;  (1 found)
0x0000b2e7: nop  ; add byte [eax], al ; add byte [eax], al ; add byte [eax], al ; add byte [eax], al ; jmp dword [0x0094D53C] ;  (1 found)
0x0000b357: nop  ; add byte [eax], al ; add byte [eax], al ; add byte [eax], al ; add byte [eax], al ; jmp dword [0x0094D540] ;  (1 found)
0x0000b277: nop  ; add byte [eax], al ; add byte [eax], al ; add byte [eax], al ; add byte [eax], al ; jmp dword [0x0094D544] ;  (1 found)
0x0000b3b7: nop  ; add byte [eax], al ; add byte [eax], al ; add byte [eax], al ; add byte [eax], al ; jmp dword [0x0094D548] ;  (1 found)
0x0000b1f7: nop  ; add byte [eax], al ; add byte [eax], al ; add byte [eax], al ; add byte [eax], al ; jmp dword [0x0094D54C] ;  (1 found)
0x0000a957: nop  ; add byte [eax], al ; add byte [eax], al ; add byte [eax], al ; add byte [eax], al ; jmp dword [0x0094D558] ;  (1 found)
0x0000a907: nop  ; add byte [eax], al ; add byte [eax], al ; add byte [eax], al ; add byte [eax], al ; jmp dword [0x0094D55C] ;  (1 found)
0x0000a8c7: nop  ; add byte [eax], al ; add byte [eax], al ; add byte [eax], al ; add byte [eax], al ; jmp dword [0x0094D560] ;  (1 found)
0x0000a937: nop  ; add byte [eax], al ; add byte [eax], al ; add byte [eax], al ; add byte [eax], al ; jmp dword [0x0094D564] ;  (1 found)
0x0000a8f7: nop  ; add byte [eax], al ; add byte [eax], al ; add byte [eax], al ; add byte [eax], al ; jmp dword [0x0094D568] ;  (1 found)
0x0000a8d7: nop  ; add byte [eax], al ; add byte [eax], al ; add byte [eax], al ; add byte [eax], al ; jmp dword [0x0094D56C] ;  (1 found)
0x0000a8a7: nop  ; add byte [eax], al ; add byte [eax], al ; add byte [eax], al ; add byte [eax], al ; jmp dword [0x0094D570] ;  (1 found)
0x0000a897: nop  ; add byte [eax], al ; add byte [eax], al ; add byte [eax], al ; add byte [eax], al ; jmp dword [0x0094D574] ;  (1 found)
0x0000a927: nop  ; add byte [eax], al ; add byte [eax], al ; add byte [eax], al ; add byte [eax], al ; jmp dword [0x0094D578] ;  (1 found)
0x0000a8b7: nop  ; add byte [eax], al ; add byte [eax], al ; add byte [eax], al ; add byte [eax], al ; jmp dword [0x0094D57C] ;  (1 found)
0x0000a947: nop  ; add byte [eax], al ; add byte [eax], al ; add byte [eax], al ; add byte [eax], al ; jmp dword [0x0094D580] ;  (1 found)
0x0000a967: nop  ; add byte [eax], al ; add byte [eax], al ; add byte [eax], al ; add byte [eax], al ; jmp dword [0x0094D584] ;  (1 found)
0x0000a8e7: nop  ; add byte [eax], al ; add byte [eax], al ; add byte [eax], al ; add byte [eax], al ; jmp dword [0x0094D58C] ;  (1 found)
0x0000a917: nop  ; add byte [eax], al ; add byte [eax], al ; add byte [eax], al ; add byte [eax], al ; jmp dword [0x0094D590] ;  (1 found)
0x00004533: nop  ; add byte [eax], al ; add byte [ebx+0x009424BC], cl ; add byte [eax], al ; mov ebp, dword [esp+0x00000098] ; add esp, 0x0000009C ; retn 0x0010 ;  (1 found)
0x00001b96: nop  ; add dword [eax], eax ; add byte [ebx+0x019424B4], cl ; add byte [eax], al ; mov edi, dword [esp+0x00000198] ; add esp, 0x0000019C ; ret  ;  (1 found)
0x0000aedf: nop  ; jmp dword [0x0094D3C0] ;  (1 found)
0x0000af3f: nop  ; jmp dword [0x0094D3DC] ;  (1 found)
0x0000a9b6: nop  ; nop  ; add byte [eax], al ; add byte [eax], al ; add byte [eax], al ; add byte [eax], al ; jmp dword [0x0094D334] ;  (1 found)
0x0000a9a6: nop  ; nop  ; add byte [eax], al ; add byte [eax], al ; add byte [eax], al ; add byte [eax], al ; jmp dword [0x0094D338] ;  (1 found)
0x0000a996: nop  ; nop  ; add byte [eax], al ; add byte [eax], al ; add byte [eax], al ; add byte [eax], al ; jmp dword [0x0094D33C] ;  (1 found)
0x0000a9c6: nop  ; nop  ; add byte [eax], al ; add byte [eax], al ; add byte [eax], al ; add byte [eax], al ; jmp dword [0x0094D348] ;  (1 found)
0x0000a976: nop  ; nop  ; add byte [eax], al ; add byte [eax], al ; add byte [eax], al ; add byte [eax], al ; jmp dword [0x0094D354] ;  (1 found)
0x0000a986: nop  ; nop  ; add byte [eax], al ; add byte [eax], al ; add byte [eax], al ; add byte [eax], al ; jmp dword [0x0094D358] ;  (1 found)
0x0000b596: nop  ; nop  ; add byte [eax], al ; add byte [eax], al ; add byte [eax], al ; add byte [eax], al ; jmp dword [0x0094D364] ;  (1 found)
0x0000b526: nop  ; nop  ; add byte [eax], al ; add byte [eax], al ; add byte [eax], al ; add byte [eax], al ; jmp dword [0x0094D368] ;  (1 found)
0x0000b476: nop  ; nop  ; add byte [eax], al ; add byte [eax], al ; add byte [eax], al ; add byte [eax], al ; jmp dword [0x0094D36C] ;  (1 found)
0x0000b4a6: nop  ; nop  ; add byte [eax], al ; add byte [eax], al ; add byte [eax], al ; add byte [eax], al ; jmp dword [0x0094D370] ;  (1 found)
0x0000b4b6: nop  ; nop  ; add byte [eax], al ; add byte [eax], al ; add byte [eax], al ; add byte [eax], al ; jmp dword [0x0094D374] ;  (1 found)
0x0000b586: nop  ; nop  ; add byte [eax], al ; add byte [eax], al ; add byte [eax], al ; add byte [eax], al ; jmp dword [0x0094D378] ;  (1 found)
0x0000b496: nop  ; nop  ; add byte [eax], al ; add byte [eax], al ; add byte [eax], al ; add byte [eax], al ; jmp dword [0x0094D37C] ;  (1 found)
0x0000b4c6: nop  ; nop  ; add byte [eax], al ; add byte [eax], al ; add byte [eax], al ; add byte [eax], al ; jmp dword [0x0094D380] ;  (1 found)
0x0000b576: nop  ; nop  ; add byte [eax], al ; add byte [eax], al ; add byte [eax], al ; add byte [eax], al ; jmp dword [0x0094D384] ;  (1 found)
0x0000b546: nop  ; nop  ; add byte [eax], al ; add byte [eax], al ; add byte [eax], al ; add byte [eax], al ; jmp dword [0x0094D388] ;  (1 found)
0x0000b4d6: nop  ; nop  ; add byte [eax], al ; add byte [eax], al ; add byte [eax], al ; add byte [eax], al ; jmp dword [0x0094D38C] ;  (1 found)
0x0000b536: nop  ; nop  ; add byte [eax], al ; add byte [eax], al ; add byte [eax], al ; add byte [eax], al ; jmp dword [0x0094D390] ;  (1 found)
0x0000b486: nop  ; nop  ; add byte [eax], al ; add byte [eax], al ; add byte [eax], al ; add byte [eax], al ; jmp dword [0x0094D394] ;  (1 found)
0x0000b566: nop  ; nop  ; add byte [eax], al ; add byte [eax], al ; add byte [eax], al ; add byte [eax], al ; jmp dword [0x0094D398] ;  (1 found)
0x0000b556: nop  ; nop  ; add byte [eax], al ; add byte [eax], al ; add byte [eax], al ; add byte [eax], al ; jmp dword [0x0094D39C] ;  (1 found)
0x0000b4e6: nop  ; nop  ; add byte [eax], al ; add byte [eax], al ; add byte [eax], al ; add byte [eax], al ; jmp dword [0x0094D3A0] ;  (1 found)
0x0000b4f6: nop  ; nop  ; add byte [eax], al ; add byte [eax], al ; add byte [eax], al ; add byte [eax], al ; jmp dword [0x0094D3A4] ;  (1 found)
0x0000b506: nop  ; nop  ; add byte [eax], al ; add byte [eax], al ; add byte [eax], al ; add byte [eax], al ; jmp dword [0x0094D3A8] ;  (1 found)
0x0000b466: nop  ; nop  ; add byte [eax], al ; add byte [eax], al ; add byte [eax], al ; add byte [eax], al ; jmp dword [0x0094D3AC] ;  (1 found)
0x0000b516: nop  ; nop  ; add byte [eax], al ; add byte [eax], al ; add byte [eax], al ; add byte [eax], al ; jmp dword [0x0094D3B0] ;  (1 found)
0x0000aee6: nop  ; nop  ; add byte [eax], al ; add byte [eax], al ; add byte [eax], al ; add byte [eax], al ; jmp dword [0x0094D3BC] ;  (1 found)
0x0000aef6: nop  ; nop  ; add byte [eax], al ; add byte [eax], al ; add byte [eax], al ; add byte [eax], al ; jmp dword [0x0094D3C4] ;  (1 found)
0x0000afa6: nop  ; nop  ; add byte [eax], al ; add byte [eax], al ; add byte [eax], al ; add byte [eax], al ; jmp dword [0x0094D3D0] ;  (1 found)
0x0000af56: nop  ; nop  ; add byte [eax], al ; add byte [eax], al ; add byte [eax], al ; add byte [eax], al ; jmp dword [0x0094D3D4] ;  (1 found)
0x0000af76: nop  ; nop  ; add byte [eax], al ; add byte [eax], al ; add byte [eax], al ; add byte [eax], al ; jmp dword [0x0094D3D8] ;  (1 found)
0x0000afb6: nop  ; nop  ; add byte [eax], al ; add byte [eax], al ; add byte [eax], al ; add byte [eax], al ; jmp dword [0x0094D3E0] ;  (1 found)
0x0000af46: nop  ; nop  ; add byte [eax], al ; add byte [eax], al ; add byte [eax], al ; add byte [eax], al ; jmp dword [0x0094D3E4] ;  (1 found)
0x0000af86: nop  ; nop  ; add byte [eax], al ; add byte [eax], al ; add byte [eax], al ; add byte [eax], al ; jmp dword [0x0094D3E8] ;  (1 found)
0x0000af96: nop  ; nop  ; add byte [eax], al ; add byte [eax], al ; add byte [eax], al ; add byte [eax], al ; jmp dword [0x0094D3F4] ;  (1 found)
0x0000b1b6: nop  ; nop  ; add byte [eax], al ; add byte [eax], al ; add byte [eax], al ; add byte [eax], al ; jmp dword [0x0094D3F8] ;  (1 found)
0x0000b196: nop  ; nop  ; add byte [eax], al ; add byte [eax], al ; add byte [eax], al ; add byte [eax], al ; jmp dword [0x0094D3FC] ;  (1 found)
0x0000b126: nop  ; nop  ; add byte [eax], al ; add byte [eax], al ; add byte [eax], al ; add byte [eax], al ; jmp dword [0x0094D404] ;  (1 found)
0x0000b016: nop  ; nop  ; add byte [eax], al ; add byte [eax], al ; add byte [eax], al ; add byte [eax], al ; jmp dword [0x0094D408] ;  (1 found)
0x0000b086: nop  ; nop  ; add byte [eax], al ; add byte [eax], al ; add byte [eax], al ; add byte [eax], al ; jmp dword [0x0094D40C] ;  (1 found)
0x0000b176: nop  ; nop  ; add byte [eax], al ; add byte [eax], al ; add byte [eax], al ; add byte [eax], al ; jmp dword [0x0094D410] ;  (1 found)
0x0000b076: nop  ; nop  ; add byte [eax], al ; add byte [eax], al ; add byte [eax], al ; add byte [eax], al ; jmp dword [0x0094D414] ;  (1 found)
0x0000b106: nop  ; nop  ; add byte [eax], al ; add byte [eax], al ; add byte [eax], al ; add byte [eax], al ; jmp dword [0x0094D418] ;  (1 found)
0x0000b116: nop  ; nop  ; add byte [eax], al ; add byte [eax], al ; add byte [eax], al ; add byte [eax], al ; jmp dword [0x0094D41C] ;  (1 found)
0x0000b096: nop  ; nop  ; add byte [eax], al ; add byte [eax], al ; add byte [eax], al ; add byte [eax], al ; jmp dword [0x0094D420] ;  (1 found)
0x0000b166: nop  ; nop  ; add byte [eax], al ; add byte [eax], al ; add byte [eax], al ; add byte [eax], al ; jmp dword [0x0094D424] ;  (1 found)
0x0000b056: nop  ; nop  ; add byte [eax], al ; add byte [eax], al ; add byte [eax], al ; add byte [eax], al ; jmp dword [0x0094D428] ;  (1 found)
0x0000b156: nop  ; nop  ; add byte [eax], al ; add byte [eax], al ; add byte [eax], al ; add byte [eax], al ; jmp dword [0x0094D42C] ;  (1 found)
0x0000b0f6: nop  ; nop  ; add byte [eax], al ; add byte [eax], al ; add byte [eax], al ; add byte [eax], al ; jmp dword [0x0094D430] ;  (1 found)
0x0000b0e6: nop  ; nop  ; add byte [eax], al ; add byte [eax], al ; add byte [eax], al ; add byte [eax], al ; jmp dword [0x0094D434] ;  (1 found)
0x0000b186: nop  ; nop  ; add byte [eax], al ; add byte [eax], al ; add byte [eax], al ; add byte [eax], al ; jmp dword [0x0094D438] ;  (1 found)
0x0000b046: nop  ; nop  ; add byte [eax], al ; add byte [eax], al ; add byte [eax], al ; add byte [eax], al ; jmp dword [0x0094D43C] ;  (1 found)
0x0000b136: nop  ; nop  ; add byte [eax], al ; add byte [eax], al ; add byte [eax], al ; add byte [eax], al ; jmp dword [0x0094D440] ;  (1 found)
0x0000b146: nop  ; nop  ; add byte [eax], al ; add byte [eax], al ; add byte [eax], al ; add byte [eax], al ; jmp dword [0x0094D444] ;  (1 found)
0x0000b0b6: nop  ; nop  ; add byte [eax], al ; add byte [eax], al ; add byte [eax], al ; add byte [eax], al ; jmp dword [0x0094D448] ;  (1 found)
0x0000b1a6: nop  ; nop  ; add byte [eax], al ; add byte [eax], al ; add byte [eax], al ; add byte [eax], al ; jmp dword [0x0094D44C] ;  (1 found)
0x0000af66: nop  ; nop  ; add byte [eax], al ; add byte [eax], al ; add byte [eax], al ; add byte [eax], al ; jmp dword [0x0094D450] ;  (1 found)
0x0000aff6: nop  ; nop  ; add byte [eax], al ; add byte [eax], al ; add byte [eax], al ; add byte [eax], al ; jmp dword [0x0094D454] ;  (1 found)
0x0000b026: nop  ; nop  ; add byte [eax], al ; add byte [eax], al ; add byte [eax], al ; add byte [eax], al ; jmp dword [0x0094D458] ;  (1 found)
0x0000b066: nop  ; nop  ; add byte [eax], al ; add byte [eax], al ; add byte [eax], al ; add byte [eax], al ; jmp dword [0x0094D45C] ;  (1 found)
0x0000b0c6: nop  ; nop  ; add byte [eax], al ; add byte [eax], al ; add byte [eax], al ; add byte [eax], al ; jmp dword [0x0094D460] ;  (1 found)
0x0000b0d6: nop  ; nop  ; add byte [eax], al ; add byte [eax], al ; add byte [eax], al ; add byte [eax], al ; jmp dword [0x0094D464] ;  (1 found)
0x0000afe6: nop  ; nop  ; add byte [eax], al ; add byte [eax], al ; add byte [eax], al ; add byte [eax], al ; jmp dword [0x0094D468] ;  (1 found)
0x0000b006: nop  ; nop  ; add byte [eax], al ; add byte [eax], al ; add byte [eax], al ; add byte [eax], al ; jmp dword [0x0094D46C] ;  (1 found)
0x0000afd6: nop  ; nop  ; add byte [eax], al ; add byte [eax], al ; add byte [eax], al ; add byte [eax], al ; jmp dword [0x0094D470] ;  (1 found)
0x0000afc6: nop  ; nop  ; add byte [eax], al ; add byte [eax], al ; add byte [eax], al ; add byte [eax], al ; jmp dword [0x0094D474] ;  (1 found)
0x0000b036: nop  ; nop  ; add byte [eax], al ; add byte [eax], al ; add byte [eax], al ; add byte [eax], al ; jmp dword [0x0094D478] ;  (1 found)
0x0000b0a6: nop  ; nop  ; add byte [eax], al ; add byte [eax], al ; add byte [eax], al ; add byte [eax], al ; jmp dword [0x0094D47C] ;  (1 found)
0x0000b5e6: nop  ; nop  ; add byte [eax], al ; add byte [eax], al ; add byte [eax], al ; add byte [eax], al ; jmp dword [0x0094D488] ;  (1 found)
0x0000b5a6: nop  ; nop  ; add byte [eax], al ; add byte [eax], al ; add byte [eax], al ; add byte [eax], al ; jmp dword [0x0094D48C] ;  (1 found)
0x0000b5c6: nop  ; nop  ; add byte [eax], al ; add byte [eax], al ; add byte [eax], al ; add byte [eax], al ; jmp dword [0x0094D490] ;  (1 found)
0x0000b5b6: nop  ; nop  ; add byte [eax], al ; add byte [eax], al ; add byte [eax], al ; add byte [eax], al ; jmp dword [0x0094D494] ;  (1 found)
0x0000b5f6: nop  ; nop  ; add byte [eax], al ; add byte [eax], al ; add byte [eax], al ; add byte [eax], al ; jmp dword [0x0094D498] ;  (1 found)
0x0000b5d6: nop  ; nop  ; add byte [eax], al ; add byte [eax], al ; add byte [eax], al ; add byte [eax], al ; jmp dword [0x0094D49C] ;  (1 found)
0x0000b336: nop  ; nop  ; add byte [eax], al ; add byte [eax], al ; add byte [eax], al ; add byte [eax], al ; jmp dword [0x0094D4A8] ;  (1 found)
0x0000b326: nop  ; nop  ; add byte [eax], al ; add byte [eax], al ; add byte [eax], al ; add byte [eax], al ; jmp dword [0x0094D4AC] ;  (1 found)
0x0000b376: nop  ; nop  ; add byte [eax], al ; add byte [eax], al ; add byte [eax], al ; add byte [eax], al ; jmp dword [0x0094D4B0] ;  (1 found)
0x0000b266: nop  ; nop  ; add byte [eax], al ; add byte [eax], al ; add byte [eax], al ; add byte [eax], al ; jmp dword [0x0094D4B4] ;  (1 found)
0x0000b2a6: nop  ; nop  ; add byte [eax], al ; add byte [eax], al ; add byte [eax], al ; add byte [eax], al ; jmp dword [0x0094D4B8] ;  (1 found)
0x0000b426: nop  ; nop  ; add byte [eax], al ; add byte [eax], al ; add byte [eax], al ; add byte [eax], al ; jmp dword [0x0094D4BC] ;  (1 found)
0x0000b3d6: nop  ; nop  ; add byte [eax], al ; add byte [eax], al ; add byte [eax], al ; add byte [eax], al ; jmp dword [0x0094D4C0] ;  (1 found)
0x0000b1c6: nop  ; nop  ; add byte [eax], al ; add byte [eax], al ; add byte [eax], al ; add byte [eax], al ; jmp dword [0x0094D4C4] ;  (1 found)
0x0000b206: nop  ; nop  ; add byte [eax], al ; add byte [eax], al ; add byte [eax], al ; add byte [eax], al ; jmp dword [0x0094D4C8] ;  (1 found)
0x0000b306: nop  ; nop  ; add byte [eax], al ; add byte [eax], al ; add byte [eax], al ; add byte [eax], al ; jmp dword [0x0094D4CC] ;  (1 found)
0x0000b236: nop  ; nop  ; add byte [eax], al ; add byte [eax], al ; add byte [eax], al ; add byte [eax], al ; jmp dword [0x0094D4D0] ;  (1 found)
0x0000b446: nop  ; nop  ; add byte [eax], al ; add byte [eax], al ; add byte [eax], al ; add byte [eax], al ; jmp dword [0x0094D4D4] ;  (1 found)
0x0000b436: nop  ; nop  ; add byte [eax], al ; add byte [eax], al ; add byte [eax], al ; add byte [eax], al ; jmp dword [0x0094D4D8] ;  (1 found)
0x0000b3a6: nop  ; nop  ; add byte [eax], al ; add byte [eax], al ; add byte [eax], al ; add byte [eax], al ; jmp dword [0x0094D4DC] ;  (1 found)
0x0000b2c6: nop  ; nop  ; add byte [eax], al ; add byte [eax], al ; add byte [eax], al ; add byte [eax], al ; jmp dword [0x0094D4E0] ;  (1 found)
0x0000b296: nop  ; nop  ; add byte [eax], al ; add byte [eax], al ; add byte [eax], al ; add byte [eax], al ; jmp dword [0x0094D4E4] ;  (1 found)
0x0000b1e6: nop  ; nop  ; add byte [eax], al ; add byte [eax], al ; add byte [eax], al ; add byte [eax], al ; jmp dword [0x0094D4E8] ;  (1 found)
0x0000b2d6: nop  ; nop  ; add byte [eax], al ; add byte [eax], al ; add byte [eax], al ; add byte [eax], al ; jmp dword [0x0094D4EC] ;  (1 found)
0x0000b406: nop  ; nop  ; add byte [eax], al ; add byte [eax], al ; add byte [eax], al ; add byte [eax], al ; jmp dword [0x0094D4F0] ;  (1 found)
0x0000b256: nop  ; nop  ; add byte [eax], al ; add byte [eax], al ; add byte [eax], al ; add byte [eax], al ; jmp dword [0x0094D4F4] ;  (1 found)
0x0000b2b6: nop  ; nop  ; add byte [eax], al ; add byte [eax], al ; add byte [eax], al ; add byte [eax], al ; jmp dword [0x0094D4F8] ;  (1 found)
0x0000b386: nop  ; nop  ; add byte [eax], al ; add byte [eax], al ; add byte [eax], al ; add byte [eax], al ; jmp dword [0x0094D4FC] ;  (1 found)
0x0000b3e6: nop  ; nop  ; add byte [eax], al ; add byte [eax], al ; add byte [eax], al ; add byte [eax], al ; jmp dword [0x0094D500] ;  (1 found)
0x0000b346: nop  ; nop  ; add byte [eax], al ; add byte [eax], al ; add byte [eax], al ; add byte [eax], al ; jmp dword [0x0094D504] ;  (1 found)
0x0000b416: nop  ; nop  ; add byte [eax], al ; add byte [eax], al ; add byte [eax], al ; add byte [eax], al ; jmp dword [0x0094D508] ;  (1 found)
0x0000b216: nop  ; nop  ; add byte [eax], al ; add byte [eax], al ; add byte [eax], al ; add byte [eax], al ; jmp dword [0x0094D50C] ;  (1 found)
0x0000b1d6: nop  ; nop  ; add byte [eax], al ; add byte [eax], al ; add byte [eax], al ; add byte [eax], al ; jmp dword [0x0094D510] ;  (1 found)
0x0000b286: nop  ; nop  ; add byte [eax], al ; add byte [eax], al ; add byte [eax], al ; add byte [eax], al ; jmp dword [0x0094D514] ;  (1 found)
0x0000b2f6: nop  ; nop  ; add byte [eax], al ; add byte [eax], al ; add byte [eax], al ; add byte [eax], al ; jmp dword [0x0094D518] ;  (1 found)
0x0000b3c6: nop  ; nop  ; add byte [eax], al ; add byte [eax], al ; add byte [eax], al ; add byte [eax], al ; jmp dword [0x0094D51C] ;  (1 found)
0x0000b3f6: nop  ; nop  ; add byte [eax], al ; add byte [eax], al ; add byte [eax], al ; add byte [eax], al ; jmp dword [0x0094D520] ;  (1 found)
0x0000b226: nop  ; nop  ; add byte [eax], al ; add byte [eax], al ; add byte [eax], al ; add byte [eax], al ; jmp dword [0x0094D524] ;  (1 found)
0x0000b246: nop  ; nop  ; add byte [eax], al ; add byte [eax], al ; add byte [eax], al ; add byte [eax], al ; jmp dword [0x0094D528] ;  (1 found)
0x0000b316: nop  ; nop  ; add byte [eax], al ; add byte [eax], al ; add byte [eax], al ; add byte [eax], al ; jmp dword [0x0094D52C] ;  (1 found)
0x0000b456: nop  ; nop  ; add byte [eax], al ; add byte [eax], al ; add byte [eax], al ; add byte [eax], al ; jmp dword [0x0094D530] ;  (1 found)
0x0000b366: nop  ; nop  ; add byte [eax], al ; add byte [eax], al ; add byte [eax], al ; add byte [eax], al ; jmp dword [0x0094D534] ;  (1 found)
0x0000b396: nop  ; nop  ; add byte [eax], al ; add byte [eax], al ; add byte [eax], al ; add byte [eax], al ; jmp dword [0x0094D538] ;  (1 found)
0x0000b2e6: nop  ; nop  ; add byte [eax], al ; add byte [eax], al ; add byte [eax], al ; add byte [eax], al ; jmp dword [0x0094D53C] ;  (1 found)
0x0000b356: nop  ; nop  ; add byte [eax], al ; add byte [eax], al ; add byte [eax], al ; add byte [eax], al ; jmp dword [0x0094D540] ;  (1 found)
0x0000b276: nop  ; nop  ; add byte [eax], al ; add byte [eax], al ; add byte [eax], al ; add byte [eax], al ; jmp dword [0x0094D544] ;  (1 found)
0x0000b3b6: nop  ; nop  ; add byte [eax], al ; add byte [eax], al ; add byte [eax], al ; add byte [eax], al ; jmp dword [0x0094D548] ;  (1 found)
0x0000b1f6: nop  ; nop  ; add byte [eax], al ; add byte [eax], al ; add byte [eax], al ; add byte [eax], al ; jmp dword [0x0094D54C] ;  (1 found)
0x0000a956: nop  ; nop  ; add byte [eax], al ; add byte [eax], al ; add byte [eax], al ; add byte [eax], al ; jmp dword [0x0094D558] ;  (1 found)
0x0000a906: nop  ; nop  ; add byte [eax], al ; add byte [eax], al ; add byte [eax], al ; add byte [eax], al ; jmp dword [0x0094D55C] ;  (1 found)
0x0000a8c6: nop  ; nop  ; add byte [eax], al ; add byte [eax], al ; add byte [eax], al ; add byte [eax], al ; jmp dword [0x0094D560] ;  (1 found)
0x0000a936: nop  ; nop  ; add byte [eax], al ; add byte [eax], al ; add byte [eax], al ; add byte [eax], al ; jmp dword [0x0094D564] ;  (1 found)
0x0000a8f6: nop  ; nop  ; add byte [eax], al ; add byte [eax], al ; add byte [eax], al ; add byte [eax], al ; jmp dword [0x0094D568] ;  (1 found)
0x0000a8d6: nop  ; nop  ; add byte [eax], al ; add byte [eax], al ; add byte [eax], al ; add byte [eax], al ; jmp dword [0x0094D56C] ;  (1 found)
0x0000a8a6: nop  ; nop  ; add byte [eax], al ; add byte [eax], al ; add byte [eax], al ; add byte [eax], al ; jmp dword [0x0094D570] ;  (1 found)
0x0000a896: nop  ; nop  ; add byte [eax], al ; add byte [eax], al ; add byte [eax], al ; add byte [eax], al ; jmp dword [0x0094D574] ;  (1 found)
0x0000a926: nop  ; nop  ; add byte [eax], al ; add byte [eax], al ; add byte [eax], al ; add byte [eax], al ; jmp dword [0x0094D578] ;  (1 found)
0x0000a8b6: nop  ; nop  ; add byte [eax], al ; add byte [eax], al ; add byte [eax], al ; add byte [eax], al ; jmp dword [0x0094D57C] ;  (1 found)
0x0000a946: nop  ; nop  ; add byte [eax], al ; add byte [eax], al ; add byte [eax], al ; add byte [eax], al ; jmp dword [0x0094D580] ;  (1 found)
0x0000a966: nop  ; nop  ; add byte [eax], al ; add byte [eax], al ; add byte [eax], al ; add byte [eax], al ; jmp dword [0x0094D584] ;  (1 found)
0x0000a8e6: nop  ; nop  ; add byte [eax], al ; add byte [eax], al ; add byte [eax], al ; add byte [eax], al ; jmp dword [0x0094D58C] ;  (1 found)
0x0000a916: nop  ; nop  ; add byte [eax], al ; add byte [eax], al ; add byte [eax], al ; add byte [eax], al ; jmp dword [0x0094D590] ;  (1 found)
0x0000aede: nop  ; nop  ; jmp dword [0x0094D3C0] ;  (1 found)
0x0000af3e: nop  ; nop  ; jmp dword [0x0094D3DC] ;  (1 found)
0x0000aedd: nop  ; nop  ; nop  ; jmp dword [0x0094D3C0] ;  (1 found)
0x0000af3d: nop  ; nop  ; nop  ; jmp dword [0x0094D3DC] ;  (1 found)
0x0000af3c: nop  ; nop  ; nop  ; nop  ; jmp dword [0x0094D3DC] ;  (1 found)
0x0000af3b: nop  ; nop  ; nop  ; nop  ; nop  ; jmp dword [0x0094D3DC] ;  (1 found)
0x0000af3a: nop  ; nop  ; nop  ; nop  ; nop  ; nop  ; jmp dword [0x0094D3DC] ;  (1 found)
0x0000ab3e: nop  ; nop  ; push ebp ; mov ebp, esp ; fninit  ; pop ebp ; ret  ;  (1 found)
0x0000abff: nop  ; push ebp ; mov eax, dword [0x0094C3F0] ; mov ebp, esp ; pop ebp ; mov ecx, dword [eax+0x04] ; jmp ecx ;  (1 found)
0x0000ab3f: nop  ; push ebp ; mov ebp, esp ; fninit  ; pop ebp ; ret  ;  (1 found)
0x0000b542: nop  ; rcl dword [eax+eax+0x00009090], cl ; add byte [eax], al ; add byte [eax], al ; add byte [eax], al ; jmp dword [0x0094D388] ;  (1 found)
0x0000ab7f: not byte [ebp-0x77] ; in eax, 0x83 ; in al, dx ; or byte [ecx+0x20A1FC5D], cl ; retn 0x0040 ;  (1 found)
0x000152fb: or ah, byte [esi] ; sub dword [0xA8B27763], ebp ; mov bl, 0xB7 ; retn 0xC202 ;  (1 found)
0x000022af: or al, 0x00 ; add byte [ebx+0x5E], bl ; pop edi ; pop ebp ; ret  ;  (1 found)
0x00009e94: or al, 0x00 ; add byte [ebx-0x6BA1FFEB], cl ; add byte [ebp-0x7EF08A2E], al ; les ebp,  [eax+0x0C] ; add byte [eax], al ; pop ebx ; ret  ;  (1 found)
0x000162f1: or al, 0x00 ; push cs ; adc byte [edi], cl ; adc byte [eax], bh ; push esp ; retn 0xD2D1 ;  (1 found)
0x00003deb: or al, 0x01 ; ret  ;  (1 found)
0x00014b71: or al, 0x05 ; pop es ; push cs ; inc ecx ; push ecx ; ret  ;  (1 found)
0x000141f0: or al, 0x0B ; sub byte [eax], ch ; das  ; das  ; xor dword [ecx], esi ; xor al, byte [edi-0x73357575] ; retn 0x9FC0 ;  (1 found)
0x00009f70: or al, 0x12 ; add byte [eax], al ; add esp, 0x00000C68 ; pop ebx ; ret  ;  (1 found)
0x00015460: or al, 0x12 ; add byte [ebx], dl ; push ss ; sbb al, byte [ebp+ecx*2+0x49] ; sahf  ; mov cl, 0xC0 ; ret  ;  (1 found)
0x00004859: or al, 0x24 ; call dword [edx+0x08] ;  (1 found)
0x0000a217: or al, 0x31 ; rcr byte [ebx+0x5E], 0x0000005F ; pop ebp ; ret  ;  (1 found)
0x00002dbd: or al, 0x3D ; add byte [eax], al ; pop ebx ; pop esi ; pop edi ; pop ebp ; ret  ;  (1 found)
0x00008038: or al, 0x5B ; pop esi ; pop edi ; pop ebp ; ret  ;  (1 found)
0x00007667: or al, 0x5B ; pop esi ; pop edi ; pop ebp ; ret  ;  (1 found)
0x00003310: or al, 0x89 ; pop ebx ; pop esi ; pop edi ; pop ebp ; ret  ;  (1 found)
0x00006de8: or al, 0x89 ; ret  ;  (1 found)
0x000072c3: or al, 0x89 ; ret  ;  (1 found)
0x00007328: or al, 0x89 ; ret  ;  (1 found)
0x0000738d: or al, 0x89 ; ret  ;  (1 found)
0x00016d35: or al, 0xDA ; rol dl, cl ; retn 0xC2B7 ;  (1 found)
0x00017293: or al, 0xDA ; salc  ; ret  ;  (1 found)
0x00013be5: or al, 0xDF ; out dx, eax ; out dx, eax ; out dx, al ; fcmovbe st0, st6 ; rol bl, cl ; retn 0x8CB2 ;  (1 found)
0x000061d8: or al, 0xE8 ; retn 0x0051 ;  (1 found)
0x0001690b: or al, byte [0x05080401+eax] ; add al, 0x07 ; add byte [ecx], dl ; sbb dword [edi-0x55], edx ; ret  ;  (1 found)
0x00014ccd: or al, byte [0x0B090404] ; sub byte [edi], ch ; sub byte [edi], ch ; das  ; pop edi ; mov dl, 0xB6 ; retn 0xD1D2 ;  (1 found)
0x00004273: or al, byte [eax] ; add byte [ebx+0x5E], bl ; pop edi ; pop ebp ; ret  ;  (1 found)
0x00003c76: or al, byte [eax] ; add byte [ebx+0x5E], bl ; pop edi ; pop ebp ; ret  ;  (1 found)
0x00016afb: or al, byte [eax] ; or eax, 0xC3A6510F ; salc  ; salc  ; retn 0xA8A6 ;  (1 found)
0x00001268: or al, byte [ebx-0x2F76BB3C] ; pop ebx ; pop esi ; retn 0x0010 ;  (1 found)
0x00016907: or al, byte [ecx+ecx] ; or cl, byte [edx] ; add al, 0x05 ; add dword [eax+ecx], eax ; add eax, 0x11000704 ; sbb dword [edi-0x55], edx ; ret  ;  (1 found)
0x000167ac: or al, byte [edx+ecx] ; retn 0x0A02 ;  (1 found)
0x00000665: or bh, al ; add al, 0x24 ; add al, byte [eax] ; add byte [eax], al ; call dword [0x0094D3DC] ;  (1 found)
0x00000645: or bh, al ; add al, 0x24 ; add dword [eax], eax ; add byte [eax], al ; call dword [0x0094D3DC] ;  (1 found)
0x0001753f: or bl, al ; retn 0xC3C3 ;  (1 found)
0x0000af1f: or byte [0x00000C00], cl ; mov word [esp], ax ; fldcw word [esp] ; frndint  ; fldcw word [esp+0x02] ; pop eax ; ret  ;  (1 found)
0x00016910: or byte [0x11000704], al ; sbb dword [edi-0x55], edx ; ret  ;  (1 found)
0x00004c7e: or byte [eax], al ; add byte [ebx+0x5E], bl ; pop edi ; pop ebp ; ret  ;  (1 found)
0x0000ad64: or byte [eax], al ; mov eax, 0xC0A10040 ; ret  ;  (1 found)
0x0001aa31: or byte [ebp+0x45], al ; ret  ;  (1 found)
0x0000ac85: or byte [ebp+0x5E5BF465], cl ; pop edi ; pop ebp ; ret  ;  (1 found)
0x00004802: or byte [ebp-0x39E08A40], al ; add eax, dword [eax] ; mov ebx, dword [esp+0x00000150] ; mov esi, dword [esp+0x00000154] ; mov edi, dword [esp+0x00000158] ; add esp, 0x0000015C ; ret  ;  (1 found)
0x0000ab5c: or byte [ebp-0x76FB8A37], al ; in al, dx ; pop ebp ; ret  ;  (1 found)
0x0000ae81: or byte [ebx+0x0094C400], ah ; lea esp, dword [ebp-0x0C] ; pop ebx ; pop esi ; pop edi ; pop ebp ; ret  ;  (1 found)
0x000006a5: or byte [ebx+0x04890845], cl ; and al, 0xFF ; adc eax, 0x0094D3F0 ; mov esp, ebp ; pop ebp ; ret  ;  (1 found)
0x00000685: or byte [ebx+0x04890845], cl ; and al, 0xFF ; adc eax, 0x0094D400 ; mov esp, ebp ; pop ebp ; ret  ;  (1 found)
0x0000aed7: or byte [ebx-0x1F00FBC0], cl ; nop  ; nop  ; nop  ; jmp dword [0x0094D3C0] ;  (1 found)
0x00004eb3: or byte [ecx+0x00158CC4], al ; add byte [ebx+0x5E], bl ; pop edi ; pop ebp ; ret  ;  (1 found)
0x00004e91: or byte [ecx+0x00158CC4], al ; add byte [ebx+0x5E], bl ; pop edi ; pop ebp ; ret  ;  (1 found)
0x0000ab85: or byte [ecx+0x20A1FC5D], cl ; retn 0x0040 ;  (1 found)
0x000061d4: or byte [ecx-0x17F3DBBC], cl ; retn 0x0051 ;  (1 found)
0x0001313e: or byte [ecx-0x2F307172], 0xFFFFFFE0 ; rcl bl, 1  ; retn 0x50A6 ;  (1 found)
0x00013d12: or byte [ecx-0x34353574], 0xFFFFFFCD ; ret  ;  (1 found)
0x0000643b: or byte [ecx-0x76FBDBAC], cl ; ret  ;  (1 found)
0x0000aafb: or byte [ecx], al ; add bh, byte [ecx] ; fstenv  [edx-0x12] ; pop ebx ; pop esi ; pop ebp ; ret  ;  (1 found)
0x00014f01: or byte [edx], al ; pop es ; add eax, dword [0x0E000702] ; adc bl, byte [edx] ; sahf  ; retn 0xC3C5 ;  (1 found)
0x000150ff: or cl, byte [ecx] ; pushfd  ; add ecx, dword [ecx] ; add ecx, dword [ebx] ; add byte [ebx], dl ; sub eax, 0xD1B26E70 ; retn 0xD2B7 ;  (1 found)
0x00015b69: or cl, byte [ecx] ; ret  ;  (1 found)
0x00013b19: or cl, byte [ecx] ; retn 0x0902 ;  (1 found)
0x0001690a: or cl, byte [edx] ; add al, 0x05 ; add dword [eax+ecx], eax ; add eax, 0x11000704 ; sbb dword [edi-0x55], edx ; ret  ;  (1 found)
0x000150fe: or cl, byte [edx] ; or dword [ebx+eax+0x000B0309], ebx ; adc esp, dword [esi] ; sub eax, 0xD1B26E70 ; retn 0xD2B7 ;  (1 found)
0x00014efe: or cl, dl ; add cl, byte [eax] ; add al, byte [edi] ; add eax, dword [0x0E000702] ; adc bl, byte [edx] ; sahf  ; retn 0xC3C5 ;  (1 found)
0x00007662: or dh, byte [ecx] ; rol byte [ebx+0x5E5B0CC4], 0x0000005F ; pop ebp ; ret  ;  (1 found)
0x000167ed: or dword [0x1004000A], eax ; push esp ; scasd  ; rol byte [edx], cl ; rol byte [eax], cl ; push es ; retn 0xA8B7 ;  (1 found)
0x0000aed0: or dword [eax], eax ; mov eax, esp ; mov esp, ecx ; mov ecx, dword [eax] ; mov eax, dword [eax+0x04] ; jmp eax ;  (1 found)
0x00015100: or dword [ebx+eax+0x000B0309], ebx ; adc esp, dword [esi] ; sub eax, 0xD1B26E70 ; retn 0xD2B7 ;  (1 found)
0x000152f7: or dword [ebx+ecx], eax ; add byte [edx], cl ; sub dword [0xA8B27763], ebp ; mov bl, 0xB7 ; retn 0xC202 ;  (1 found)
0x00016a61: or dword [ebx+edx*8], eax ; add eax, dword [edx+eax] ; add eax, 0x05041200 ; or eax, 0x15160E0E ; dec eax ; lodsb  ; ret  ;  (1 found)
0x000134e6: or dword [ebx-0x3D487374], 0xFFFFFFC3 ; ret  ;  (1 found)
0x00009309: or dword [ebx], 0x00000000 ; add byte [ecx+0x00235CC4], al ; add byte [ecx], dh ; rcr byte [ebx+0x5E], 0x0000005F ; pop ebp ; ret  ;  (1 found)
0x00015103: or dword [ebx], eax ; or eax, dword [eax] ; adc esp, dword [esi] ; sub eax, 0xD1B26E70 ; retn 0xD2B7 ;  (1 found)
0x0001569e: or dword [ebx], ecx ; add ecx, dword [ebx] ; add byte [edi], dl ; sub ch, byte [ebx] ; cmp ch, byte [edi-0x58] ; test al, 0xB2 ; retn 0xD2D1 ;  (1 found)
0x00014944: or dword [ebx], ecx ; sub byte [edi], ch ; add al, 0x2F ; add byte [esi], cl ; xor eax, 0xD2D1CB7B ; int3  ; ret  ;  (1 found)
0x00014cd1: or dword [ebx], ecx ; sub byte [edi], ch ; sub byte [edi], ch ; das  ; pop edi ; mov dl, 0xB6 ; retn 0xD1D2 ;  (1 found)
0x0000aecf: or dword [ecx], 0x00000000 ; mov eax, esp ; mov esp, ecx ; mov ecx, dword [eax] ; mov eax, dword [eax+0x04] ; jmp eax ;  (1 found)
0x000162ef: or dword [edx], eax ; or al, 0x00 ; push cs ; adc byte [edi], cl ; adc byte [eax], bh ; push esp ; retn 0xD2D1 ;  (1 found)
0x00016909: or dword [edx], ecx ; or al, byte [0x05080401+eax] ; add al, 0x07 ; add byte [ecx], dl ; sbb dword [edi-0x55], edx ; ret  ;  (1 found)
0x0000af20: or eax, 0x00000C00 ; mov word [esp], ax ; fldcw word [esp] ; frndint  ; fldcw word [esp+0x02] ; pop eax ; ret  ;  (1 found)
0x000152f1: or eax, 0x0402040F ; add cl, byte [ecx] ; add al, 0x0B ; add byte [edx], cl ; sub dword [0xA8B27763], ebp ; mov bl, 0xB7 ; retn 0xC202 ;  (1 found)
0x00014d2a: or eax, 0x07100205 ; add al, byte [ecx] ; add al, 0x02 ; add eax, 0x0E000702 ; inc ecx ; pop esp ; ret  ;  (1 found)
0x00016a6c: or eax, 0x15160E0E ; dec eax ; lodsb  ; ret  ;  (1 found)
0x00016afd: or eax, 0xC3A6510F ; salc  ; salc  ; retn 0xA8A6 ;  (1 found)
0x000149a7: or eax, 0xD6B74514 ; ret  ;  (1 found)
0x00014163: or eax, 0xDAEAEEF0 ; retn 0xB5B5 ;  (1 found)
0x000156a1: or eax, dword [eax] ; adc al, 0x27 ; sub ch, byte [ebx] ; cmp ch, byte [edi-0x58] ; test al, 0xB2 ; retn 0xD2D1 ;  (1 found)
0x00015105: or eax, dword [eax] ; adc esp, dword [esi] ; sub eax, 0xD1B26E70 ; retn 0xD2B7 ;  (1 found)
0x0000053e: or eax, dword [eax] ; add byte [eax], al ; lea esi, dword [esi+0x00000000] ; lea edi, dword [edi+0x00000000] ; call eax ;  (1 found)
0x0000930a: or eax, dword [eax] ; add byte [ecx+0x00235CC4], al ; add byte [ecx], dh ; rcr byte [ebx+0x5E], 0x0000005F ; pop ebp ; ret  ;  (1 found)
0x000152f9: or eax, dword [eax] ; or ah, byte [esi] ; sub dword [0xA8B27763], ebp ; mov bl, 0xB7 ; retn 0xC202 ;  (1 found)
0x0001495f: or eax, dword [eax] ; push ss ; sub byte [edi], ch ; xor dword [ecx], esi ; xor byte [esi], dh ; imul ebx, esp, 0xDAD2EAEA ; retn 0x1441 ;  (1 found)
0x00006d44: or eax, dword [ebx-0x2F76B73C] ; pop ebx ; ret  ;  (1 found)
0x0001569f: or eax, dword [ebx] ; or eax, dword [eax] ; adc al, 0x27 ; sub ch, byte [ebx] ; cmp ch, byte [edi-0x58] ; test al, 0xB2 ; retn 0xD2D1 ;  (1 found)
0x00002e8b: or eax, dword [ecx+0x00025CC4] ; add byte [ebx+0x5E], bl ; pop edi ; pop ebp ; ret  ;  (1 found)
0x00003c72: or eax, dword [ecx+0x000AACC4] ; add byte [ebx+0x5E], bl ; pop edi ; pop ebp ; ret  ;  (1 found)
0x00015979: or eax, dword [edx] ; add byte [ecx], dl ; daa  ; cmp ch, byte [ebp-0x58] ; mov bl, 0xD2 ; retn 0xD8DA ;  (1 found)
0x00014e9d: or eax, dword [edx] ; sub byte [eax], al ; adc ebp, dword [edi] ; xor al, 0x7B ; mov dh, 0xB7 ; retn 0xBAD1 ;  (1 found)
0x00001131: or eax, dword [esi-0x7F] ; ret  ;  (1 found)
0x00015977: or eax, dword [esi] ; or eax, dword [edx] ; add byte [ecx], dl ; daa  ; cmp ch, byte [ebp-0x58] ; mov bl, 0xD2 ; retn 0xD8DA ;  (1 found)
0x0001752f: or eax, esi ; enter 0xC4C6, 0xC4 ; mov bh, 0xFFFFFFC1 ; rol bh, 0xFFFFFFC1 ; adc byte [ebx], al ; rol dword [eax], 0x08 ; ret  ;  (1 found)
0x00014945: or ebp, dword [eax] ; das  ; add al, 0x2F ; add byte [esi], cl ; xor eax, 0xD2D1CB7B ; int3  ; ret  ;  (1 found)
0x00014cd2: or ebp, dword [eax] ; das  ; sub byte [edi], ch ; das  ; pop edi ; mov dl, 0xB6 ; retn 0xD1D2 ;  (1 found)
0x0000956a: or ecx, dword [ebp-0x4376FE88] ; popfd  ; fcomp dword [ebp-0x7ABC0001] ; ror byte [edi], cl ; xchg eax, ebp ; retn 0xFB83 ;  (1 found)
0x000185c5: or esi, edi ; hlt  ; out dx, eax ; out dx, al ; retn 0xA7EB ;  (1 found)
0x000174c3: or esp, dword [eax-0x293E5C5E] ; ret  ;  (1 found)
0x000141f1: or esp, dword [esi] ; sub byte [eax], ch ; das  ; das  ; xor dword [ecx], esi ; xor al, byte [edi-0x73357575] ; retn 0x9FC0 ;  (1 found)
0x0000add8: out 0xA1, eax ; mov ah, 0xF1 ; inc eax ; add byte [ecx-0x0000977B], cl ; jmp dword [ecx+0x0040F1B8] ;  (1 found)
0x0001853f: out 0xC3, eax ; mov cl, 0xAC ; lodsb  ; mov cl, 0xC0 ; ret  ;  (1 found)
0x00013f8f: out 0xD2, al ; ret  ;  (1 found)
0x000158d2: out 0xD8, al ; retn 0xB3B7 ;  (1 found)
0x0001470c: out 0xD9, al ; retn 0x5BAF ;  (1 found)
0x00014ab1: out 0xDA, al ; fcmovb st0, st2 ; retn 0xA6AA ;  (1 found)
0x00016a1b: out 0xDA, al ; retn 0x3DA8 ;  (1 found)
0x0001746f: out 0xE3, eax ; salc  ; salc  ; ret  ;  (1 found)
0x00013ba3: out 0xE8, eax ; ret  ;  (1 found)
0x00016a19: out 0xEA, al ; out 0xDA, al ; retn 0x3DA8 ;  (1 found)
0x00013bea: out dx, al ; fcmovbe st0, st6 ; rol bl, cl ; retn 0x8CB2 ;  (1 found)
0x00018909: out dx, al ; out dx, eax ; cmc  ; idiv ecx ; stc  ; cli  ; ret  ;  (1 found)
0x0000ab01: out dx, al ; pop ebx ; pop esi ; pop ebp ; ret  ;  (1 found)
0x000185c9: out dx, al ; retn 0xA7EB ;  (1 found)
0x0001819d: out dx, eax ; add byte [edi], al ; in al, dx ; ret  ;  (1 found)
0x0001890a: out dx, eax ; cmc  ; idiv ecx ; stc  ; cli  ; ret  ;  (1 found)
0x00013f8d: out dx, eax ; in eax, dx ; out 0xD2, al ; ret  ;  (1 found)
0x00013be9: out dx, eax ; out dx, al ; fcmovbe st0, st6 ; rol bl, cl ; retn 0x8CB2 ;  (1 found)
0x000185c8: out dx, eax ; out dx, al ; retn 0xA7EB ;  (1 found)
0x00013be7: out dx, eax ; out dx, eax ; out dx, al ; fcmovbe st0, st6 ; rol bl, cl ; retn 0x8CB2 ;  (1 found)
0x00013be8: out dx, eax ; out dx, eax ; out dx, al ; fcmovbe st0, st6 ; rol bl, cl ; retn 0x8CB2 ;  (1 found)
0x0001510b: outsb  ; mov dl, 0xD1 ; retn 0xD2B7 ;  (1 found)
0x00013316: packuswb mm0, qword [edx] ; ltr word [0x2F28272A] ; xor al, byte [eax+0x6A818280] ; mov edi, dword [ebx-0x4A] ; retn 0xC3C2 ;  (1 found)
0x0000070c: pop ds ; add dword [esi+0x00000630], eax ; adc dword [esi+0x00000634], ecx ; mov ebx, dword [esp+0x14] ; mov esi, dword [esp+0x18] ; add esp, 0x1C ; ret  ;  (1 found)
0x0001a62c: pop ds ; cmp al, byte [eax] ; add byte [0x1B0000FF], ah ; retn 0x0000 ;  (1 found)
0x00004806: pop ds ; mov byte [ebx], 0x00000000 ; mov ebx, dword [esp+0x00000150] ; mov esi, dword [esp+0x00000154] ; mov edi, dword [esp+0x00000158] ; add esp, 0x0000015C ; ret  ;  (1 found)
0x00000f73: pop dword [eax] ; add byte [ecx-0x6BCCBFD3], cl ; add byte [ecx+0x0002CCC4], al ; add byte [ebx+0x5E], bl ; pop edi ; pop ebp ; ret  ;  (1 found)
0x0000114c: pop eax ; pop ebx ; pop esi ; ret  ;  (1 found)
0x0000a992: pop eax ; rcl dword [eax+eax+0x00009090], cl ; add byte [eax], al ; add byte [eax], al ; add byte [eax], al ; jmp dword [0x0094D33C] ;  (1 found)
0x0000af32: pop eax ; ret  ;  (1 found)
0x00000516: pop ebp ; clc  ; mov esp, ebp ; pop ebp ; retn 0x0004 ;  (1 found)
0x0000ac62: pop ebp ; cld  ; leave  ; ret  ;  (1 found)
0x0000aba6: pop ebp ; cld  ; mov esp, ebp ; pop ebp ; ret  ;  (1 found)
0x0000aa7c: pop ebp ; cld  ; sub esp, 0x10 ; leave  ; ret  ;  (1 found)
0x0000ac08: pop ebp ; mov ecx, dword [eax+0x04] ; jmp ecx ;  (1 found)
0x0000043a: pop ebp ; ret  ;  (1 found)
0x0000065c: pop ebp ; ret  ;  (1 found)
0x00000694: pop ebp ; ret  ;  (1 found)
0x000006b4: pop ebp ; ret  ;  (1 found)
0x000008cd: pop ebp ; ret  ;  (1 found)
0x00000f85: pop ebp ; ret  ;  (1 found)
0x00001aae: pop ebp ; ret  ;  (1 found)
0x00001d95: pop ebp ; ret  ;  (1 found)
0x00002598: pop ebp ; ret  ;  (1 found)
0x000025db: pop ebp ; ret  ;  (1 found)
0x00001ef2: pop ebp ; ret  ;  (1 found)
0x000022b5: pop ebp ; ret  ;  (1 found)
0x00002e95: pop ebp ; ret  ;  (1 found)
0x00002a26: pop ebp ; ret  ;  (1 found)
0x00002dc4: pop ebp ; ret  ;  (1 found)
0x00004279: pop ebp ; ret  ;  (1 found)
0x0000448a: pop ebp ; ret  ;  (1 found)
0x00002f55: pop ebp ; ret  ;  (1 found)
0x0000310a: pop ebp ; ret  ;  (1 found)
0x000032ba: pop ebp ; ret  ;  (1 found)
0x0000330c: pop ebp ; ret  ;  (1 found)
0x00003316: pop ebp ; ret  ;  (1 found)
0x00003c5e: pop ebp ; ret  ;  (1 found)
0x000034f4: pop ebp ; ret  ;  (1 found)
0x00003c7c: pop ebp ; ret  ;  (1 found)
0x00005116: pop ebp ; ret  ;  (1 found)
0x00004c84: pop ebp ; ret  ;  (1 found)
0x00004e9b: pop ebp ; ret  ;  (1 found)
0x00004ebd: pop ebp ; ret  ;  (1 found)
0x000004b5: pop ebp ; ret  ;  (1 found)
0x0000067c: pop ebp ; ret  ;  (1 found)
0x00006e8b: pop ebp ; ret  ;  (1 found)
0x000075ed: pop ebp ; ret  ;  (1 found)
0x00007cd4: pop ebp ; ret  ;  (1 found)
0x0000803c: pop ebp ; ret  ;  (1 found)
0x0000766b: pop ebp ; ret  ;  (1 found)
0x000078d4: pop ebp ; ret  ;  (1 found)
0x00007abd: pop ebp ; ret  ;  (1 found)
0x00008edf: pop ebp ; ret  ;  (1 found)
0x00008ef0: pop ebp ; ret  ;  (1 found)
0x000092d6: pop ebp ; ret  ;  (1 found)
0x00009318: pop ebp ; ret  ;  (1 found)
0x00009684: pop ebp ; ret  ;  (1 found)
0x00009671: pop ebp ; ret  ;  (1 found)
0x00009693: pop ebp ; ret  ;  (1 found)
0x00009d3b: pop ebp ; ret  ;  (1 found)
0x0000a1e3: pop ebp ; ret  ;  (1 found)
0x0000a21d: pop ebp ; ret  ;  (1 found)
0x0000831b: pop ebp ; ret  ;  (1 found)
0x000088d4: pop ebp ; ret  ;  (1 found)
0x0000ab04: pop ebp ; ret  ;  (1 found)
0x0000ab34: pop ebp ; ret  ;  (1 found)
0x0000ab45: pop ebp ; ret  ;  (1 found)
0x0000ab63: pop ebp ; ret  ;  (1 found)
0x0000ae8d: pop ebp ; ret  ;  (1 found)
0x0000abaa: pop ebp ; ret  ;  (1 found)
0x0000ac8c: pop ebp ; ret  ;  (1 found)
0x0000abec: pop ebp ; ret  ;  (1 found)
0x0000051a: pop ebp ; retn 0x0004 ;  (1 found)
0x0000804d: pop ebp ; xchg eax, esp ; add byte [ecx+0x0FCF39F8], cl ; popfd  ; retn 0xE8C1 ;  (1 found)
0x000010aa: pop ebx ; pop edi ; ret  ;  (1 found)
0x000010ea: pop ebx ; pop edi ; ret  ;  (1 found)
0x0000ab02: pop ebx ; pop esi ; pop ebp ; ret  ;  (1 found)
0x00000f82: pop ebx ; pop esi ; pop edi ; pop ebp ; ret  ;  (1 found)
0x000008ca: pop ebx ; pop esi ; pop edi ; pop ebp ; ret  ;  (1 found)
0x000025d8: pop ebx ; pop esi ; pop edi ; pop ebp ; ret  ;  (1 found)
0x00001aab: pop ebx ; pop esi ; pop edi ; pop ebp ; ret  ;  (1 found)
0x00001d92: pop ebx ; pop esi ; pop edi ; pop ebp ; ret  ;  (1 found)
0x00002595: pop ebx ; pop esi ; pop edi ; pop ebp ; ret  ;  (1 found)
0x00001eef: pop ebx ; pop esi ; pop edi ; pop ebp ; ret  ;  (1 found)
0x000022b2: pop ebx ; pop esi ; pop edi ; pop ebp ; ret  ;  (1 found)
0x00002dc1: pop ebx ; pop esi ; pop edi ; pop ebp ; ret  ;  (1 found)
0x00002e92: pop ebx ; pop esi ; pop edi ; pop ebp ; ret  ;  (1 found)
0x00002a23: pop ebx ; pop esi ; pop edi ; pop ebp ; ret  ;  (1 found)
0x00004276: pop ebx ; pop esi ; pop edi ; pop ebp ; ret  ;  (1 found)
0x00004487: pop ebx ; pop esi ; pop edi ; pop ebp ; ret  ;  (1 found)
0x00002f52: pop ebx ; pop esi ; pop edi ; pop ebp ; ret  ;  (1 found)
0x00003107: pop ebx ; pop esi ; pop edi ; pop ebp ; ret  ;  (1 found)
0x000032b7: pop ebx ; pop esi ; pop edi ; pop ebp ; ret  ;  (1 found)
0x00003309: pop ebx ; pop esi ; pop edi ; pop ebp ; ret  ;  (1 found)
0x00003312: pop ebx ; pop esi ; pop edi ; pop ebp ; ret  ;  (1 found)
0x00003313: pop ebx ; pop esi ; pop edi ; pop ebp ; ret  ;  (1 found)
0x000034f1: pop ebx ; pop esi ; pop edi ; pop ebp ; ret  ;  (1 found)
0x00003c79: pop ebx ; pop esi ; pop edi ; pop ebp ; ret  ;  (1 found)
0x00003c5b: pop ebx ; pop esi ; pop edi ; pop ebp ; ret  ;  (1 found)
0x00004eba: pop ebx ; pop esi ; pop edi ; pop ebp ; ret  ;  (1 found)
0x00005113: pop ebx ; pop esi ; pop edi ; pop ebp ; ret  ;  (1 found)
0x00004c81: pop ebx ; pop esi ; pop edi ; pop ebp ; ret  ;  (1 found)
0x00004e98: pop ebx ; pop esi ; pop edi ; pop ebp ; ret  ;  (1 found)
0x00006e88: pop ebx ; pop esi ; pop edi ; pop ebp ; ret  ;  (1 found)
0x000075ea: pop ebx ; pop esi ; pop edi ; pop ebp ; ret  ;  (1 found)
0x00007cd1: pop ebx ; pop esi ; pop edi ; pop ebp ; ret  ;  (1 found)
0x00008039: pop ebx ; pop esi ; pop edi ; pop ebp ; ret  ;  (1 found)
0x00007668: pop ebx ; pop esi ; pop edi ; pop ebp ; ret  ;  (1 found)
0x000078d1: pop ebx ; pop esi ; pop edi ; pop ebp ; ret  ;  (1 found)
0x00007aba: pop ebx ; pop esi ; pop edi ; pop ebp ; ret  ;  (1 found)
0x00008edc: pop ebx ; pop esi ; pop edi ; pop ebp ; ret  ;  (1 found)
0x000088d1: pop ebx ; pop esi ; pop edi ; pop ebp ; ret  ;  (1 found)
0x00008eed: pop ebx ; pop esi ; pop edi ; pop ebp ; ret  ;  (1 found)
0x000092d3: pop ebx ; pop esi ; pop edi ; pop ebp ; ret  ;  (1 found)
0x00009315: pop ebx ; pop esi ; pop edi ; pop ebp ; ret  ;  (1 found)
0x00009681: pop ebx ; pop esi ; pop edi ; pop ebp ; ret  ;  (1 found)
0x0000966e: pop ebx ; pop esi ; pop edi ; pop ebp ; ret  ;  (1 found)
0x00009690: pop ebx ; pop esi ; pop edi ; pop ebp ; ret  ;  (1 found)
0x00009d38: pop ebx ; pop esi ; pop edi ; pop ebp ; ret  ;  (1 found)
0x0000a1e0: pop ebx ; pop esi ; pop edi ; pop ebp ; ret  ;  (1 found)
0x0000a21a: pop ebx ; pop esi ; pop edi ; pop ebp ; ret  ;  (1 found)
0x00008318: pop ebx ; pop esi ; pop edi ; pop ebp ; ret  ;  (1 found)
0x0000ae8a: pop ebx ; pop esi ; pop edi ; pop ebp ; ret  ;  (1 found)
0x0000ac89: pop ebx ; pop esi ; pop edi ; pop ebp ; ret  ;  (1 found)
0x00004f4e: pop ebx ; pop esi ; pop edi ; ret  ;  (1 found)
0x00007e14: pop ebx ; pop esi ; pop edi ; ret  ;  (1 found)
0x0000810a: pop ebx ; pop esi ; pop edi ; ret  ;  (1 found)
0x0000a10b: pop ebx ; pop esi ; pop edi ; ret  ;  (1 found)
0x000083b4: pop ebx ; pop esi ; pop edi ; ret  ;  (1 found)
0x000007a2: pop ebx ; pop esi ; ret  ;  (1 found)
0x00000c12: pop ebx ; pop esi ; ret  ;  (1 found)
0x0000114d: pop ebx ; pop esi ; ret  ;  (1 found)
0x00001481: pop ebx ; pop esi ; ret  ;  (1 found)
0x00001516: pop ebx ; pop esi ; ret  ;  (1 found)
0x0000473f: pop ebx ; pop esi ; ret  ;  (1 found)
0x00006dfb: pop ebx ; pop esi ; ret  ;  (1 found)
0x00009890: pop ebx ; pop esi ; ret  ;  (1 found)
0x00009ffb: pop ebx ; pop esi ; ret  ;  (1 found)
0x0000a003: pop ebx ; pop esi ; ret  ;  (1 found)
0x0000126e: pop ebx ; pop esi ; retn 0x0010 ;  (1 found)
0x000011a1: pop ebx ; ret  ;  (1 found)
0x000016f8: pop ebx ; ret  ;  (1 found)
0x00006d4a: pop ebx ; ret  ;  (1 found)
0x00006d8d: pop ebx ; ret  ;  (1 found)
0x00007fe4: pop ebx ; ret  ;  (1 found)
0x00009f7a: pop ebx ; ret  ;  (1 found)
0x00009ea7: pop ebx ; ret  ;  (1 found)
0x00006c03: pop ebx ; retn 0x0010 ;  (1 found)
0x00006bd3: pop ebx ; retn 0x0010 ;  (1 found)
0x000144dd: pop ecx ; stosd  ; lodsb  ; lodsd  ; ret  ;  (1 found)
0x00014cd8: pop edi ; mov dl, 0xB6 ; retn 0xD1D2 ;  (1 found)
0x000008cc: pop edi ; pop ebp ; ret  ;  (1 found)
0x00000f84: pop edi ; pop ebp ; ret  ;  (1 found)
0x00001aad: pop edi ; pop ebp ; ret  ;  (1 found)
0x00001d94: pop edi ; pop ebp ; ret  ;  (1 found)
0x00002597: pop edi ; pop ebp ; ret  ;  (1 found)
0x000025da: pop edi ; pop ebp ; ret  ;  (1 found)
0x000022b4: pop edi ; pop ebp ; ret  ;  (1 found)
0x00001ef1: pop edi ; pop ebp ; ret  ;  (1 found)
0x00002e94: pop edi ; pop ebp ; ret  ;  (1 found)
0x00002dc3: pop edi ; pop ebp ; ret  ;  (1 found)
0x00002a25: pop edi ; pop ebp ; ret  ;  (1 found)
0x00004489: pop edi ; pop ebp ; ret  ;  (1 found)
0x00004278: pop edi ; pop ebp ; ret  ;  (1 found)
0x00003109: pop edi ; pop ebp ; ret  ;  (1 found)
0x00002f54: pop edi ; pop ebp ; ret  ;  (1 found)
0x000032b9: pop edi ; pop ebp ; ret  ;  (1 found)
0x0000330b: pop edi ; pop ebp ; ret  ;  (1 found)
0x00003315: pop edi ; pop ebp ; ret  ;  (1 found)
0x00003c5d: pop edi ; pop ebp ; ret  ;  (1 found)
0x000034f3: pop edi ; pop ebp ; ret  ;  (1 found)
0x00003c7b: pop edi ; pop ebp ; ret  ;  (1 found)
0x00005115: pop edi ; pop ebp ; ret  ;  (1 found)
0x00004c83: pop edi ; pop ebp ; ret  ;  (1 found)
0x00004ebc: pop edi ; pop ebp ; ret  ;  (1 found)
0x00004e9a: pop edi ; pop ebp ; ret  ;  (1 found)
0x00006e8a: pop edi ; pop ebp ; ret  ;  (1 found)
0x000075ec: pop edi ; pop ebp ; ret  ;  (1 found)
0x00007cd3: pop edi ; pop ebp ; ret  ;  (1 found)
0x0000803b: pop edi ; pop ebp ; ret  ;  (1 found)
0x000078d3: pop edi ; pop ebp ; ret  ;  (1 found)
0x0000766a: pop edi ; pop ebp ; ret  ;  (1 found)
0x00007abc: pop edi ; pop ebp ; ret  ;  (1 found)
0x00008ede: pop edi ; pop ebp ; ret  ;  (1 found)
0x00008eef: pop edi ; pop ebp ; ret  ;  (1 found)
0x000092d5: pop edi ; pop ebp ; ret  ;  (1 found)
0x00009317: pop edi ; pop ebp ; ret  ;  (1 found)
0x00009692: pop edi ; pop ebp ; ret  ;  (1 found)
0x00009683: pop edi ; pop ebp ; ret  ;  (1 found)
0x00009670: pop edi ; pop ebp ; ret  ;  (1 found)
0x00009d3a: pop edi ; pop ebp ; ret  ;  (1 found)
0x0000a1e2: pop edi ; pop ebp ; ret  ;  (1 found)
0x0000a21c: pop edi ; pop ebp ; ret  ;  (1 found)
0x0000831a: pop edi ; pop ebp ; ret  ;  (1 found)
0x000088d3: pop edi ; pop ebp ; ret  ;  (1 found)
0x0000ae8c: pop edi ; pop ebp ; ret  ;  (1 found)
0x0000ac8b: pop edi ; pop ebp ; ret  ;  (1 found)
0x000010eb: pop edi ; ret  ;  (1 found)
0x000010ab: pop edi ; ret  ;  (1 found)
0x00004f50: pop edi ; ret  ;  (1 found)
0x00007e16: pop edi ; ret  ;  (1 found)
0x0000810c: pop edi ; ret  ;  (1 found)
0x0000a10d: pop edi ; ret  ;  (1 found)
0x000083b6: pop edi ; ret  ;  (1 found)
0x00009ff0: pop edi ; xchg eax, esp ; add byte [ebx+0x01B814C4], al ; add byte [eax], al ; add byte [ebx+0x5E], bl ; ret  ;  (1 found)
0x00007e0c: pop edx ; add esi, eax ; add bh, byte [0x5B0003C6] ; pop esi ; pop edi ; ret  ;  (1 found)
0x00015ebb: pop edx ; mov ah, 0xD2 ; retn 0x72B3 ;  (1 found)
0x00013313: pop edx ; sub al, 0x2C ; packuswb mm0, qword [edx] ; ltr word [0x2F28272A] ; xor al, byte [eax+0x6A818280] ; mov edi, dword [ebx-0x4A] ; retn 0xC3C2 ;  (1 found)
0x00013d6d: pop edx ; test eax, 0xB5B3AFAA ; ret  ;  (1 found)
0x00014d2e: pop es ; add al, byte [ecx] ; add al, 0x02 ; add eax, 0x0E000702 ; inc ecx ; pop esp ; ret  ;  (1 found)
0x00016913: pop es ; add byte [ecx], dl ; sbb dword [edi-0x55], edx ; ret  ;  (1 found)
0x00014f07: pop es ; add byte [esi], cl ; adc bl, byte [edx] ; sahf  ; retn 0xC3C5 ;  (1 found)
0x00014d35: pop es ; add byte [esi], cl ; inc ecx ; pop esp ; ret  ;  (1 found)
0x00014f03: pop es ; add eax, dword [0x0E000702] ; adc bl, byte [edx] ; sahf  ; retn 0xC3C5 ;  (1 found)
0x0001819f: pop es ; in al, dx ; ret  ;  (1 found)
0x00012d2f: pop es ; int3  ; ret  ;  (1 found)
0x0000ac5e: pop es ; mov eax, ebx ; mov ebx, dword [ebp-0x04] ; leave  ; ret  ;  (1 found)
0x000149a6: pop es ; or eax, 0xD6B74514 ; ret  ;  (1 found)
0x00014b73: pop es ; push cs ; inc ecx ; push ecx ; ret  ;  (1 found)
0x0001814c: pop es ; ret  ;  (1 found)
0x0000ab03: pop esi ; pop ebp ; ret  ;  (1 found)
0x000008cb: pop esi ; pop edi ; pop ebp ; ret  ;  (1 found)
0x00000f83: pop esi ; pop edi ; pop ebp ; ret  ;  (1 found)
0x000025d9: pop esi ; pop edi ; pop ebp ; ret  ;  (1 found)
0x00001aac: pop esi ; pop edi ; pop ebp ; ret  ;  (1 found)
0x00001d93: pop esi ; pop edi ; pop ebp ; ret  ;  (1 found)
0x00002596: pop esi ; pop edi ; pop ebp ; ret  ;  (1 found)
0x000022b3: pop esi ; pop edi ; pop ebp ; ret  ;  (1 found)
0x00001ef0: pop esi ; pop edi ; pop ebp ; ret  ;  (1 found)
0x00002e93: pop esi ; pop edi ; pop ebp ; ret  ;  (1 found)
0x00002dc2: pop esi ; pop edi ; pop ebp ; ret  ;  (1 found)
0x00002a24: pop esi ; pop edi ; pop ebp ; ret  ;  (1 found)
0x00004277: pop esi ; pop edi ; pop ebp ; ret  ;  (1 found)
0x00004488: pop esi ; pop edi ; pop ebp ; ret  ;  (1 found)
0x00002f53: pop esi ; pop edi ; pop ebp ; ret  ;  (1 found)
0x000032b8: pop esi ; pop edi ; pop ebp ; ret  ;  (1 found)
0x0000330a: pop esi ; pop edi ; pop ebp ; ret  ;  (1 found)
0x00003108: pop esi ; pop edi ; pop ebp ; ret  ;  (1 found)
0x00003314: pop esi ; pop edi ; pop ebp ; ret  ;  (1 found)
0x000034f2: pop esi ; pop edi ; pop ebp ; ret  ;  (1 found)
0x00003c7a: pop esi ; pop edi ; pop ebp ; ret  ;  (1 found)
0x00003c5c: pop esi ; pop edi ; pop ebp ; ret  ;  (1 found)
0x00004ebb: pop esi ; pop edi ; pop ebp ; ret  ;  (1 found)
0x00005114: pop esi ; pop edi ; pop ebp ; ret  ;  (1 found)
0x00004e99: pop esi ; pop edi ; pop ebp ; ret  ;  (1 found)
0x00004c82: pop esi ; pop edi ; pop ebp ; ret  ;  (1 found)
0x00006e89: pop esi ; pop edi ; pop ebp ; ret  ;  (1 found)
0x000075eb: pop esi ; pop edi ; pop ebp ; ret  ;  (1 found)
0x00007cd2: pop esi ; pop edi ; pop ebp ; ret  ;  (1 found)
0x0000803a: pop esi ; pop edi ; pop ebp ; ret  ;  (1 found)
0x00007669: pop esi ; pop edi ; pop ebp ; ret  ;  (1 found)
0x000078d2: pop esi ; pop edi ; pop ebp ; ret  ;  (1 found)
0x00007abb: pop esi ; pop edi ; pop ebp ; ret  ;  (1 found)
0x00008edd: pop esi ; pop edi ; pop ebp ; ret  ;  (1 found)
0x00008eee: pop esi ; pop edi ; pop ebp ; ret  ;  (1 found)
0x000088d2: pop esi ; pop edi ; pop ebp ; ret  ;  (1 found)
0x000092d4: pop esi ; pop edi ; pop ebp ; ret  ;  (1 found)
0x00009316: pop esi ; pop edi ; pop ebp ; ret  ;  (1 found)
0x0000966f: pop esi ; pop edi ; pop ebp ; ret  ;  (1 found)
0x00009682: pop esi ; pop edi ; pop ebp ; ret  ;  (1 found)
0x00009691: pop esi ; pop edi ; pop ebp ; ret  ;  (1 found)
0x00009d39: pop esi ; pop edi ; pop ebp ; ret  ;  (1 found)
0x0000a1e1: pop esi ; pop edi ; pop ebp ; ret  ;  (1 found)
0x0000a21b: pop esi ; pop edi ; pop ebp ; ret  ;  (1 found)
0x00008319: pop esi ; pop edi ; pop ebp ; ret  ;  (1 found)
0x0000ae8b: pop esi ; pop edi ; pop ebp ; ret  ;  (1 found)
0x0000ac8a: pop esi ; pop edi ; pop ebp ; ret  ;  (1 found)
0x00004f4f: pop esi ; pop edi ; ret  ;  (1 found)
0x00007e15: pop esi ; pop edi ; ret  ;  (1 found)
0x0000810b: pop esi ; pop edi ; ret  ;  (1 found)
0x0000a10c: pop esi ; pop edi ; ret  ;  (1 found)
0x000083b5: pop esi ; pop edi ; ret  ;  (1 found)
0x000007a3: pop esi ; ret  ;  (1 found)
0x00000c13: pop esi ; ret  ;  (1 found)
0x0000114e: pop esi ; ret  ;  (1 found)
0x00001482: pop esi ; ret  ;  (1 found)
0x00001517: pop esi ; ret  ;  (1 found)
0x00004740: pop esi ; ret  ;  (1 found)
0x00006dfc: pop esi ; ret  ;  (1 found)
0x00009891: pop esi ; ret  ;  (1 found)
0x00009ffc: pop esi ; ret  ;  (1 found)
0x0000a004: pop esi ; ret  ;  (1 found)
0x0000126f: pop esi ; retn 0x0010 ;  (1 found)
0x00009e9a: pop esi ; xchg eax, esp ; add byte [ebp-0x7EF08A2E], al ; les ebp,  [eax+0x0C] ; add byte [eax], al ; pop ebx ; ret  ;  (1 found)
0x0000a113: pop esi ; xchg eax, esp ; add byte [edi+0x31], dl ; call dword [esi+0x31] ;  (1 found)
0x000078cd: pop esp ; add al, 0x00 ; add byte [ebx+0x5E], bl ; pop edi ; pop ebp ; ret  ;  (1 found)
0x00007ab6: pop esp ; add al, 0x00 ; add byte [ebx+0x5E], bl ; pop edi ; pop ebp ; ret  ;  (1 found)
0x00001eeb: pop esp ; add al, byte [eax] ; add byte [ebx+0x5E], bl ; pop edi ; pop ebp ; ret  ;  (1 found)
0x00002591: pop esp ; add al, byte [eax] ; add byte [ebx+0x5E], bl ; pop edi ; pop ebp ; ret  ;  (1 found)
0x00002e8e: pop esp ; add al, byte [eax] ; add byte [ebx+0x5E], bl ; pop edi ; pop ebp ; ret  ;  (1 found)
0x00002f4e: pop esp ; add al, byte [eax] ; add byte [ebx+0x5E], bl ; pop edi ; pop ebp ; ret  ;  (1 found)
0x0000996a: pop esp ; add eax, dword [eax] ; add byte [ecx-0x7EFBDBA4], cl ; retn 0x0406 ;  (1 found)
0x000018b7: pop esp ; and al, 0x10 ; mov esi, dword [esp+0x14] ; mov edi, dword [esp+0x18] ; add esp, 0x1C ; ret  ;  (1 found)
0x0000071a: pop esp ; and al, 0x14 ; mov esi, dword [esp+0x18] ; add esp, 0x1C ; ret  ;  (1 found)
0x00001631: pop esp ; and al, 0x20 ; mov esi, dword [esp+0x24] ; mov edi, dword [esp+0x28] ; add esp, 0x2C ; ret  ;  (1 found)
0x00001797: pop esp ; and al, 0x20 ; mov esi, dword [esp+0x24] ; mov edi, dword [esp+0x28] ; add esp, 0x2C ; retn 0x0010 ;  (1 found)
0x0000a716: pop esp ; and al, 0x20 ; mov esi, dword [esp+0x24] ; mov edi, dword [esp+0x28] ; add esp, 0x2C ; retn 0x0010 ;  (1 found)
0x0000176a: pop esp ; and al, 0x20 ; xor eax, eax ; mov esi, dword [esp+0x24] ; mov edi, dword [esp+0x28] ; add esp, 0x2C ; retn 0x0010 ;  (1 found)
0x0000a662: pop esp ; and al, 0x20 ; xor eax, eax ; mov esi, dword [esp+0x24] ; mov edi, dword [esp+0x28] ; add esp, 0x2C ; retn 0x0010 ;  (1 found)
0x0000930f: pop esp ; and eax, dword [eax] ; add byte [ecx], dh ; rcr byte [ebx+0x5E], 0x0000005F ; pop ebp ; ret  ;  (1 found)
0x00004c7d: pop esp ; or byte [eax], al ; add byte [ebx+0x5E], bl ; pop edi ; pop ebp ; ret  ;  (1 found)
0x00014d39: pop esp ; ret  ;  (1 found)
0x00013f8b: pop ss ; int1  ; out dx, eax ; in eax, dx ; out 0xD2, al ; ret  ;  (1 found)
0x0000968a: popfd  ; add dword [eax], eax ; add byte [ecx+0x5F5E5BC8], cl ; pop ebp ; ret  ;  (1 found)
0x00009570: popfd  ; fcomp dword [ebp-0x7ABC0001] ; ror byte [edi], cl ; xchg eax, ebp ; retn 0xFB83 ;  (1 found)
0x00007fb1: popfd  ; retn 0xE8C1 ;  (1 found)
0x00008055: popfd  ; retn 0xE8C1 ;  (1 found)
0x000152b1: push 0x00000006 ; xchg eax, edi ; add byte [esi], cl ; movsb  ; mov ebp, 0xC9C9C8C6 ; ret  ;  (1 found)
0x00009ea3: push 0x5B00000C ; ret  ;  (1 found)
0x00009f76: push 0x5B00000C ; ret  ;  (1 found)
0x00000674: push 0x89FFFFFF ; in al, dx ; xor eax, eax ; pop ebp ; ret  ;  (1 found)
0x0000b532: push 0x900094D3 ; nop  ; add byte [eax], al ; add byte [eax], al ; add byte [eax], al ; add byte [eax], al ; jmp dword [0x0094D390] ;  (1 found)
0x0000aff2: push 0x900094D4 ; nop  ; add byte [eax], al ; add byte [eax], al ; add byte [eax], al ; add byte [eax], al ; jmp dword [0x0094D454] ;  (1 found)
0x0000a902: push 0x900094D5 ; nop  ; add byte [eax], al ; add byte [eax], al ; add byte [eax], al ; add byte [eax], al ; jmp dword [0x0094D55C] ;  (1 found)
0x0000ade0: push 0xA1FFFFFF ; mov eax, 0x890040F1 ; test dword [edi+edi*8-0x01], ebp ; jmp dword [ecx+0x0040F1BC] ;  (1 found)
0x00013171: push 0xBAB27A69 ; retn 0xAFB5 ;  (1 found)
0x00013661: push 0xFFFFFF86 ; mov dword [edi-0x2F306F71], ecx ; fcmovnbe st0, st5 ; fcomp3 st2 ; retn 0x40B2 ;  (1 found)
0x00001192: push 0xFFFFFF97 ; add byte [eax], al ; sub esp, 0x04 ; mov eax, 0x00000001 ; add esp, 0x08 ; pop ebx ; ret  ;  (1 found)
0x00014f09: push cs ; adc bl, byte [edx] ; sahf  ; retn 0xC3C5 ;  (1 found)
0x000162f3: push cs ; adc byte [edi], cl ; adc byte [eax], bh ; push esp ; retn 0xD2D1 ;  (1 found)
0x00006e81: push cs ; add esp, 0x0000008C ; pop ebx ; pop esi ; pop edi ; pop ebp ; ret  ;  (1 found)
0x00014d37: push cs ; inc ecx ; pop esp ; ret  ;  (1 found)
0x00014b74: push cs ; inc ecx ; push ecx ; ret  ;  (1 found)
0x00017361: push cs ; mov cl, 0xB0 ; mov esp, 0xC3C1C1BE ; retn 0xD1C3 ;  (1 found)
0x0000050f: push cs ; mov eax, ebx ; mov esi, dword [ebp-0x04] ; mov ebx, dword [ebp-0x08] ; mov esp, ebp ; pop ebp ; retn 0x0004 ;  (1 found)
0x000152b5: push cs ; movsb  ; mov ebp, 0xC9C9C8C6 ; ret  ;  (1 found)
0x0001814b: push cs ; pop es ; ret  ;  (1 found)
0x00013289: push cs ; ret  ;  (1 found)
0x00014b0f: push cs ; xor al, 0x7B ; mov dh, 0xD1 ; ror ah, cl ; retn 0xABBF ;  (1 found)
0x0001494b: push cs ; xor eax, 0xD2D1CB7B ; int3  ; ret  ;  (1 found)
0x000134dd: push ds ; daa  ; sub byte [edi], ch ; xor dword [ebp+0x7E], edi ; test byte [ebx-0x48737375], al ; retn 0xC3C3 ;  (1 found)
0x000050ee: push ds ; ret  ;  (1 found)
0x0001a628: push ds ; xor eax, dword [eax] ; add byte [edi], bl ; cmp al, byte [eax] ; add byte [0x1B0000FF], ah ; retn 0x0000 ;  (1 found)
0x0001b601: push dword [ebx] ; add ah, cl ; jmp dword [esi+0x00] ;  (1 found)
0x0001b691: push dword [ebx] ; add bh, bh ; jmp dword [esi+0x00] ;  (1 found)
0x0001bfb9: push dword [ebx] ; add bh, bh ; jmp dword [esi+0x00] ;  (1 found)
0x0001c8e1: push dword [ebx] ; add bh, bh ; jmp dword [esi+0x00] ;  (1 found)
0x0001b451: push dword [ebx] ; fsave  [ebx] ; jmp dword [esi+0x01] ;  (1 found)
0x0001b640: push dword [ebx] ; inc dword [eax] ; jmp dword [esi+0x00] ;  (1 found)
0x0001bf68: push dword [ebx] ; inc dword [eax] ; jmp dword [esi+0x00] ;  (1 found)
0x0001c890: push dword [ebx] ; inc dword [eax] ; jmp dword [esi+0x00] ;  (1 found)
0x0001b63c: push dword [ebx] ; int3  ; add bh, bh ; xor edi, edi ; add bh, bh ; add byte [eax], al ; jmp dword [esi+0x33] ;  (1 found)
0x0001bf64: push dword [ebx] ; int3  ; add bh, bh ; xor edi, edi ; add bh, bh ; add byte [eax], al ; jmp dword [esi+0x33] ;  (1 found)
0x0001c88c: push dword [ebx] ; int3  ; add bh, bh ; xor edi, edi ; add bh, bh ; add byte [eax], al ; jmp dword [esi+0x33] ;  (1 found)
0x00008031: push dword [edx+eax-0x77] ; add esp, 0x0C ; pop ebx ; pop esi ; pop edi ; pop ebp ; ret  ;  (1 found)
0x0000480d: push eax ; add dword [eax], eax ; add byte [ebx+0x015424B4], cl ; add byte [eax], al ; mov edi, dword [esp+0x00000158] ; add esp, 0x0000015C ; ret  ;  (1 found)
0x00004864: push eax ; add dword [eax], eax ; add byte [ebx+0x015424B4], cl ; add byte [eax], al ; mov edi, dword [esp+0x00000158] ; add esp, 0x0000015C ; ret  ;  (1 found)
0x0000ab9c: push eax ; mov bh, 0x40 ; add al, ch ; fistp dword [edx-0x01] ; dec dword [ebx-0x137603A3] ; pop ebp ; ret  ;  (1 found)
0x00016c0a: push eax ; xchg eax, ebp ; retn 0xE3DA ;  (1 found)
0x0001501b: push ebp ; inc ebp ; cmp dword [eax], edi ; sub eax, 0x05352827 ; sub byte [eax], al ; adc byte [0xDAD6B266], ch ; ret  ;  (1 found)
0x0000ac00: push ebp ; mov eax, dword [0x0094C3F0] ; mov ebp, esp ; pop ebp ; mov ecx, dword [eax+0x04] ; jmp ecx ;  (1 found)
0x0000ab40: push ebp ; mov ebp, esp ; fninit  ; pop ebp ; ret  ;  (1 found)
0x00000640: push ebp ; mov ebp, esp ; sub esp, 0x08 ; mov dword [esp], 0x00000001 ; call dword [0x0094D3DC] ;  (1 found)
0x00000660: push ebp ; mov ebp, esp ; sub esp, 0x08 ; mov dword [esp], 0x00000002 ; call dword [0x0094D3DC] ;  (1 found)
0x000006a0: push ebp ; mov ebp, esp ; sub esp, 0x08 ; mov eax, dword [ebp+0x08] ; mov dword [esp], eax ; call dword [0x0094D3F0] ;  (1 found)
0x00000680: push ebp ; mov ebp, esp ; sub esp, 0x08 ; mov eax, dword [ebp+0x08] ; mov dword [esp], eax ; call dword [0x0094D400] ;  (1 found)
0x0000ad8a: push ebx ; sbb byte [ebx+0x40D70415], cl ; add byte [ecx-0x2F5EE3BD], cl ; ret  ;  (1 found)
0x00016aff: push ecx ; cmpsb  ; ret  ;  (1 found)
0x00014b76: push ecx ; ret  ;  (1 found)
0x00004735: push edi ; imul eax, dword [eax], 0x00 ; sub esp, 0x18 ; add esp, 0x44 ; pop ebx ; pop esi ; ret  ;  (1 found)
0x00016917: push edi ; stosd  ; ret  ;  (1 found)
0x000155c4: push edx ; mov ch, 0xD6 ; xlatb  ; ret  ;  (1 found)
0x000149a0: push es ; add al, byte [eax] ; adc al, byte [0x45140D07+eax] ; mov bh, 0xD6 ; ret  ;  (1 found)
0x00000710: push es ; add byte [eax], al ; adc dword [esi+0x00000634], ecx ; mov ebx, dword [esp+0x14] ; mov esi, dword [esp+0x18] ; add esp, 0x1C ; ret  ;  (1 found)
0x00000793: push es ; add byte [eax], al ; adc dword [esi+0x00000634], edx ; add esp, 0x00000404 ; pop ebx ; pop esi ; ret  ;  (1 found)
0x00000799: push es ; add byte [eax], al ; add esp, 0x00000404 ; pop ebx ; pop esi ; ret  ;  (1 found)
0x00000716: push es ; add byte [eax], al ; mov ebx, dword [esp+0x14] ; mov esi, dword [esp+0x18] ; add esp, 0x1C ; ret  ;  (1 found)
0x000025d5: push es ; add byte [eax], al ; pop ebx ; pop esi ; pop edi ; pop ebp ; ret  ;  (1 found)
0x0000988c: push es ; add esp, 0x14 ; pop ebx ; pop esi ; ret  ;  (1 found)
0x0001735a: push es ; mov esp, 0xBC03B902 ; add byte [esi], cl ; mov cl, 0xB0 ; mov esp, 0xC3C1C1BE ; retn 0xD1C3 ;  (1 found)
0x00015978: push es ; or eax, dword [edx] ; add byte [ecx], dl ; daa  ; cmp ch, byte [ebp-0x58] ; mov bl, 0xD2 ; retn 0xD8DA ;  (1 found)
0x000167f9: push es ; retn 0xA8B7 ;  (1 found)
0x000152b2: push es ; xchg eax, edi ; add byte [esi], cl ; movsb  ; mov ebp, 0xC9C9C8C6 ; ret  ;  (1 found)
0x00007fd6: push es ; xor dword [eax], eax ; add byte [ebp-0x3C6BF040], al ; add esp, 0x08 ; mov eax, ebx ; pop ebx ; ret  ;  (1 found)
0x00004814: push esp ; add dword [eax], eax ; add byte [ebx+0x015824BC], cl ; add byte [eax], al ; add esp, 0x0000015C ; ret  ;  (1 found)
0x0000486b: push esp ; add dword [eax], eax ; add byte [ebx+0x015824BC], cl ; add byte [eax], al ; add esp, 0x0000015C ; ret  ;  (1 found)
0x0000a982: push esp ; rcl dword [eax+eax+0x00009090], cl ; add byte [eax], al ; add byte [eax], al ; add byte [eax], al ; jmp dword [0x0094D358] ;  (1 found)
0x000162f8: push esp ; retn 0xD2D1 ;  (1 found)
0x000167f3: push esp ; scasd  ; rol byte [edx], cl ; rol byte [eax], cl ; push es ; retn 0xA8B7 ;  (1 found)
0x000130d1: push ss ; retn 0xD2C3 ;  (1 found)
0x00015464: push ss ; sbb al, byte [ebp+ecx*2+0x49] ; sahf  ; mov cl, 0xC0 ; ret  ;  (1 found)
0x00014961: push ss ; sub byte [edi], ch ; xor dword [ecx], esi ; xor byte [esi], dh ; imul ebx, esp, 0xDAD2EAEA ; retn 0x1441 ;  (1 found)
0x0000193f: pushad  ; add dword [eax], eax ; add byte [ebx+0x016424B4], cl ; add byte [eax], al ; mov edi, dword [esp+0x00000168] ; add esp, 0x0000016C ; ret  ;  (1 found)
0x00001965: pushad  ; add dword [eax], eax ; add byte [ebx+0x016424B4], cl ; add byte [eax], al ; mov edi, dword [esp+0x00000168] ; add esp, 0x0000016C ; ret  ;  (1 found)
0x00015101: pushfd  ; add ecx, dword [ecx] ; add ecx, dword [ebx] ; add byte [ebx], dl ; sub eax, 0xD1B26E70 ; retn 0xD2B7 ;  (1 found)
0x00009968: pushfd  ; and al, 0x5C ; add eax, dword [eax] ; add byte [ecx-0x7EFBDBA4], cl ; retn 0x0406 ;  (1 found)
0x0000b562: pushfd  ; rcl dword [eax+eax+0x00009090], cl ; add byte [eax], al ; add byte [eax], al ; add byte [eax], al ; jmp dword [0x0094D398] ;  (1 found)
0x00000924: pushfd  ; retn 0xF883 ;  (1 found)
0x00000942: pushfd  ; retn 0xFB83 ;  (1 found)
0x00000a98: pushfd  ; retn 0xFB83 ;  (1 found)
0x00005c81: pushfd  ; retn 0xFE83 ;  (1 found)
0x00014aa6: rcl al, 1  ; fist dword [edx+eax+0x00D502DB] ; adc ah, dl ; out 0xDA, al ; fcmovb st0, st2 ; retn 0xA6AA ;  (1 found)
0x00012d27: rcl al, 1  ; int 0xCE ; test byte [ebx], 0xFFFFFFCE ; add byte [edi], al ; int3  ; ret  ;  (1 found)
0x00013145: rcl bl, 1  ; retn 0x50A6 ;  (1 found)
0x00014935: rcl cl, cl ; fcomp st0, st2 ; retn 0x0DA6 ;  (1 found)
0x00014933: rcl cl, cl ; rcl cl, cl ; fcomp st0, st2 ; retn 0x0DA6 ;  (1 found)
0x0001696c: rcl cl, cl ; retn 0x72A8 ;  (1 found)
0x00017dac: rcl cl, cl ; retn 0xA8B2 ;  (1 found)
0x00014cdc: rcl cl, cl ; retn 0xABBA ;  (1 found)
0x00014f48: rcl cl, cl ; retn 0xD7D6 ;  (1 found)
0x00014d74: rcl cl, cl ; retn 0xDAD6 ;  (1 found)
0x000004ad: rcl dh, 1  ; inc eax ; add byte [ecx+0x5DEC8910], cl ; ret  ;  (1 found)
0x000159b3: rcl dl, cl ; retn 0xA8AF ;  (1 found)
0x0000a9b3: rcl dword [eax+eax+0x00009090], cl ; add byte [eax], al ; add byte [eax], al ; add byte [eax], al ; jmp dword [0x0094D334] ;  (1 found)
0x0000a9a3: rcl dword [eax+eax+0x00009090], cl ; add byte [eax], al ; add byte [eax], al ; add byte [eax], al ; jmp dword [0x0094D338] ;  (1 found)
0x0000a993: rcl dword [eax+eax+0x00009090], cl ; add byte [eax], al ; add byte [eax], al ; add byte [eax], al ; jmp dword [0x0094D33C] ;  (1 found)
0x0000a9c3: rcl dword [eax+eax+0x00009090], cl ; add byte [eax], al ; add byte [eax], al ; add byte [eax], al ; jmp dword [0x0094D348] ;  (1 found)
0x0000a983: rcl dword [eax+eax+0x00009090], cl ; add byte [eax], al ; add byte [eax], al ; add byte [eax], al ; jmp dword [0x0094D358] ;  (1 found)
0x0000b593: rcl dword [eax+eax+0x00009090], cl ; add byte [eax], al ; add byte [eax], al ; add byte [eax], al ; jmp dword [0x0094D364] ;  (1 found)
0x0000b523: rcl dword [eax+eax+0x00009090], cl ; add byte [eax], al ; add byte [eax], al ; add byte [eax], al ; jmp dword [0x0094D368] ;  (1 found)
0x0000b473: rcl dword [eax+eax+0x00009090], cl ; add byte [eax], al ; add byte [eax], al ; add byte [eax], al ; jmp dword [0x0094D36C] ;  (1 found)
0x0000b4a3: rcl dword [eax+eax+0x00009090], cl ; add byte [eax], al ; add byte [eax], al ; add byte [eax], al ; jmp dword [0x0094D370] ;  (1 found)
0x0000b4b3: rcl dword [eax+eax+0x00009090], cl ; add byte [eax], al ; add byte [eax], al ; add byte [eax], al ; jmp dword [0x0094D374] ;  (1 found)
0x0000b583: rcl dword [eax+eax+0x00009090], cl ; add byte [eax], al ; add byte [eax], al ; add byte [eax], al ; jmp dword [0x0094D378] ;  (1 found)
0x0000b493: rcl dword [eax+eax+0x00009090], cl ; add byte [eax], al ; add byte [eax], al ; add byte [eax], al ; jmp dword [0x0094D37C] ;  (1 found)
0x0000b4c3: rcl dword [eax+eax+0x00009090], cl ; add byte [eax], al ; add byte [eax], al ; add byte [eax], al ; jmp dword [0x0094D380] ;  (1 found)
0x0000b573: rcl dword [eax+eax+0x00009090], cl ; add byte [eax], al ; add byte [eax], al ; add byte [eax], al ; jmp dword [0x0094D384] ;  (1 found)
0x0000b543: rcl dword [eax+eax+0x00009090], cl ; add byte [eax], al ; add byte [eax], al ; add byte [eax], al ; jmp dword [0x0094D388] ;  (1 found)
0x0000b4d3: rcl dword [eax+eax+0x00009090], cl ; add byte [eax], al ; add byte [eax], al ; add byte [eax], al ; jmp dword [0x0094D38C] ;  (1 found)
0x0000b533: rcl dword [eax+eax+0x00009090], cl ; add byte [eax], al ; add byte [eax], al ; add byte [eax], al ; jmp dword [0x0094D390] ;  (1 found)
0x0000b483: rcl dword [eax+eax+0x00009090], cl ; add byte [eax], al ; add byte [eax], al ; add byte [eax], al ; jmp dword [0x0094D394] ;  (1 found)
0x0000b563: rcl dword [eax+eax+0x00009090], cl ; add byte [eax], al ; add byte [eax], al ; add byte [eax], al ; jmp dword [0x0094D398] ;  (1 found)
0x0000b553: rcl dword [eax+eax+0x00009090], cl ; add byte [eax], al ; add byte [eax], al ; add byte [eax], al ; jmp dword [0x0094D39C] ;  (1 found)
0x0000b4e3: rcl dword [eax+eax+0x00009090], cl ; add byte [eax], al ; add byte [eax], al ; add byte [eax], al ; jmp dword [0x0094D3A0] ;  (1 found)
0x0000b4f3: rcl dword [eax+eax+0x00009090], cl ; add byte [eax], al ; add byte [eax], al ; add byte [eax], al ; jmp dword [0x0094D3A4] ;  (1 found)
0x0000b503: rcl dword [eax+eax+0x00009090], cl ; add byte [eax], al ; add byte [eax], al ; add byte [eax], al ; jmp dword [0x0094D3A8] ;  (1 found)
0x0000b513: rcl dword [eax+eax+0x00009090], cl ; add byte [eax], al ; add byte [eax], al ; add byte [eax], al ; jmp dword [0x0094D3B0] ;  (1 found)
0x0000aee3: rcl dword [eax+eax+0x00009090], cl ; add byte [eax], al ; add byte [eax], al ; add byte [eax], al ; jmp dword [0x0094D3BC] ;  (1 found)
0x0000aef3: rcl dword [eax+eax+0x00009090], cl ; add byte [eax], al ; add byte [eax], al ; add byte [eax], al ; jmp dword [0x0094D3C4] ;  (1 found)
0x0000afa3: rcl dword [eax+eax+0x00009090], cl ; add byte [eax], al ; add byte [eax], al ; add byte [eax], al ; jmp dword [0x0094D3D0] ;  (1 found)
0x0000af53: rcl dword [eax+eax+0x00009090], cl ; add byte [eax], al ; add byte [eax], al ; add byte [eax], al ; jmp dword [0x0094D3D4] ;  (1 found)
0x0000afb3: rcl dword [eax+eax+0x00009090], cl ; add byte [eax], al ; add byte [eax], al ; add byte [eax], al ; jmp dword [0x0094D3E0] ;  (1 found)
0x0000af43: rcl dword [eax+eax+0x00009090], cl ; add byte [eax], al ; add byte [eax], al ; add byte [eax], al ; jmp dword [0x0094D3E4] ;  (1 found)
0x0000af83: rcl dword [eax+eax+0x00009090], cl ; add byte [eax], al ; add byte [eax], al ; add byte [eax], al ; jmp dword [0x0094D3E8] ;  (1 found)
0x0000af93: rcl dword [eax+eax+0x00009090], cl ; add byte [eax], al ; add byte [eax], al ; add byte [eax], al ; jmp dword [0x0094D3F4] ;  (1 found)
0x0000b1a3: rcl dword [eax+eax+0x00009090], cl ; add byte [eax], al ; add byte [eax], al ; add byte [eax], al ; jmp dword [0x0094D44C] ;  (1 found)
0x0000af63: rcl dword [eax+eax+0x00009090], cl ; add byte [eax], al ; add byte [eax], al ; add byte [eax], al ; jmp dword [0x0094D450] ;  (1 found)
0x0000afc3: rcl dword [eax+eax+0x00009090], cl ; add byte [eax], al ; add byte [eax], al ; add byte [eax], al ; jmp dword [0x0094D474] ;  (1 found)
0x0000b5a3: rcl dword [eax+eax+0x00009090], cl ; add byte [eax], al ; add byte [eax], al ; add byte [eax], al ; jmp dword [0x0094D48C] ;  (1 found)
0x0000b1c3: rcl dword [eax+eax+0x00009090], cl ; add byte [eax], al ; add byte [eax], al ; add byte [eax], al ; jmp dword [0x0094D4C4] ;  (1 found)
0x00000650: rcl dword [eax+eax-0x00007718], cl ; dec dword [ecx+0x5DC031EC] ; ret  ;  (1 found)
0x00000670: rcl dword [eax+eax-0x00009718], cl ; dec dword [ecx+0x5DC031EC] ; ret  ;  (1 found)
0x0001753a: rcl dword [eax], 0x03 ; rol dword [eax], 0x08 ; ret  ;  (1 found)
0x0000b5a2: rcl dword [fs:eax+eax+0x00009090], cl ; add byte [eax], al ; add byte [eax], al ; add byte [eax], al ; jmp dword [0x0094D48C] ;  (1 found)
0x00017a7e: rcl ecx, 1  ; retn 0x3AB3 ;  (1 found)
0x00012b5c: rcl ecx, cl ; lds eax, ebx ; ret  ;  (1 found)
0x0001494f: rcl edx, 1  ; int3  ; ret  ;  (1 found)
0x00014b13: rcl edx, 1  ; int3  ; retn 0xABBF ;  (1 found)
0x00008edb: rcr byte [ebx+0x5E], 0x0000005F ; pop ebp ; ret  ;  (1 found)
0x00009314: rcr byte [ebx+0x5E], 0x0000005F ; pop ebp ; ret  ;  (1 found)
0x0000a219: rcr byte [ebx+0x5E], 0x0000005F ; pop ebp ; ret  ;  (1 found)
0x0000126d: rcr byte [ebx+0x5E], 1  ; retn 0x0010 ;  (1 found)
0x00013312: rcr byte [edx+0x2C], 0x0000002C ; packuswb mm0, qword [edx] ; ltr word [0x2F28272A] ; xor al, byte [eax+0x6A818280] ; mov edi, dword [ebx-0x4A] ; retn 0xC3C2 ;  (1 found)
0x0001496c: rcr dl, cl ; retn 0x1441 ;  (1 found)
0x00014e5a: rcr edx, 1  ; retn 0x57AF ;  (1 found)
0x0000067d: ret  ;  (1 found)
0x0000065d: ret  ;  (1 found)
0x000006b5: ret  ;  (1 found)
0x00000695: ret  ;  (1 found)
0x00000724: ret  ;  (1 found)
0x000007a4: ret  ;  (1 found)
0x00000a73: ret  ;  (1 found)
0x000008ce: ret  ;  (1 found)
0x00000a8e: ret  ;  (1 found)
0x00000912: ret  ;  (1 found)
0x00000b92: ret  ;  (1 found)
0x00000cff: ret  ;  (1 found)
0x00000c14: ret  ;  (1 found)
0x00000f86: ret  ;  (1 found)
0x00000fdf: ret  ;  (1 found)
0x000010ec: ret  ;  (1 found)
0x000010ac: ret  ;  (1 found)
0x00001134: ret  ;  (1 found)
0x000011a2: ret  ;  (1 found)
0x0000114f: ret  ;  (1 found)
0x00001483: ret  ;  (1 found)
0x000016f9: ret  ;  (1 found)
0x00001518: ret  ;  (1 found)
0x0000163f: ret  ;  (1 found)
0x000017da: ret  ;  (1 found)
0x0000173c: ret  ;  (1 found)
0x0000197d: ret  ;  (1 found)
0x000018c5: ret  ;  (1 found)
0x00001881: ret  ;  (1 found)
0x00001957: ret  ;  (1 found)
0x00001c0a: ret  ;  (1 found)
0x00001bae: ret  ;  (1 found)
0x00001aaf: ret  ;  (1 found)
0x00001d96: ret  ;  (1 found)
0x00001dcd: ret  ;  (1 found)
0x00001df3: ret  ;  (1 found)
0x00001e64: ret  ;  (1 found)
0x00001c12: ret  ;  (1 found)
0x00001ef3: ret  ;  (1 found)
0x0000245d: ret  ;  (1 found)
0x000024c4: ret  ;  (1 found)
0x00002599: ret  ;  (1 found)
0x0000210a: ret  ;  (1 found)
0x000022b6: ret  ;  (1 found)
0x00002542: ret  ;  (1 found)
0x000025dc: ret  ;  (1 found)
0x00002eff: ret  ;  (1 found)
0x00002e96: ret  ;  (1 found)
0x00002f56: ret  ;  (1 found)
0x00002a27: ret  ;  (1 found)
0x000029c1: ret  ;  (1 found)
0x0000282f: ret  ;  (1 found)
0x00002691: ret  ;  (1 found)
0x00002dc5: ret  ;  (1 found)
0x00002c8b: ret  ;  (1 found)
0x0000427a: ret  ;  (1 found)
0x000046f7: ret  ;  (1 found)
0x0000448b: ret  ;  (1 found)
0x0000310b: ret  ;  (1 found)
0x00003240: ret  ;  (1 found)
0x00003090: ret  ;  (1 found)
0x00004741: ret  ;  (1 found)
0x000032bb: ret  ;  (1 found)
0x0000330d: ret  ;  (1 found)
0x0000347d: ret  ;  (1 found)
0x00003317: ret  ;  (1 found)
0x000034f5: ret  ;  (1 found)
0x000032f8: ret  ;  (1 found)
0x00003ded: ret  ;  (1 found)
0x00003b3f: ret  ;  (1 found)
0x00003c5f: ret  ;  (1 found)
0x00003c7d: ret  ;  (1 found)
0x00003df7: ret  ;  (1 found)
0x0000507e: ret  ;  (1 found)
0x000050ef: ret  ;  (1 found)
0x00005117: ret  ;  (1 found)
0x00005033: ret  ;  (1 found)
0x0000487c: ret  ;  (1 found)
0x00004825: ret  ;  (1 found)
0x00004c85: ret  ;  (1 found)
0x00004ebe: ret  ;  (1 found)
0x00004e9c: ret  ;  (1 found)
0x00004d62: ret  ;  (1 found)
0x00004fa4: ret  ;  (1 found)
0x0000502d: ret  ;  (1 found)
0x00004f51: ret  ;  (1 found)
0x000004b6: ret  ;  (1 found)
0x0000043b: ret  ;  (1 found)
0x0000062e: ret  ;  (1 found)
0x00006d8e: ret  ;  (1 found)
0x00006dea: ret  ;  (1 found)
0x00006dfd: ret  ;  (1 found)
0x00006e8c: ret  ;  (1 found)
0x00006ee0: ret  ;  (1 found)
0x0000723f: ret  ;  (1 found)
0x0000732a: ret  ;  (1 found)
0x000075ee: ret  ;  (1 found)
0x0000738f: ret  ;  (1 found)
0x000072c5: ret  ;  (1 found)
0x0000728d: ret  ;  (1 found)
0x0000766c: ret  ;  (1 found)
0x0000557f: ret  ;  (1 found)
0x00005562: ret  ;  (1 found)
0x0000559a: ret  ;  (1 found)
0x0000551e: ret  ;  (1 found)
0x0000556c: ret  ;  (1 found)
0x00005ed9: ret  ;  (1 found)
0x00005c06: ret  ;  (1 found)
0x0000543f: ret  ;  (1 found)
0x00006490: ret  ;  (1 found)
0x000065e7: ret  ;  (1 found)
0x000063d6: ret  ;  (1 found)
0x00006230: ret  ;  (1 found)
0x00006441: ret  ;  (1 found)
0x000068ab: ret  ;  (1 found)
0x00006d4b: ret  ;  (1 found)
0x00007e17: ret  ;  (1 found)
0x00007e58: ret  ;  (1 found)
0x00007eab: ret  ;  (1 found)
0x00007f1b: ret  ;  (1 found)
0x00007fde: ret  ;  (1 found)
0x00008016: ret  ;  (1 found)
0x00007fc7: ret  ;  (1 found)
0x00007fe5: ret  ;  (1 found)
0x000080a6: ret  ;  (1 found)
0x0000803d: ret  ;  (1 found)
0x0000820e: ret  ;  (1 found)
0x0000810d: ret  ;  (1 found)
0x0000828a: ret  ;  (1 found)
0x0000831c: ret  ;  (1 found)
0x000078d5: ret  ;  (1 found)
0x00007abe: ret  ;  (1 found)
0x00007cd5: ret  ;  (1 found)
0x00007daa: ret  ;  (1 found)
0x00009090: ret  ;  (1 found)
0x00008ef1: ret  ;  (1 found)
0x00008ee0: ret  ;  (1 found)
0x000093e2: ret  ;  (1 found)
0x00009319: ret  ;  (1 found)
0x000092d7: ret  ;  (1 found)
0x00009450: ret  ;  (1 found)
0x000095bf: ret  ;  (1 found)
0x0000952e: ret  ;  (1 found)
0x0000942d: ret  ;  (1 found)
0x00009672: ret  ;  (1 found)
0x00009685: ret  ;  (1 found)
0x00009694: ret  ;  (1 found)
0x0000978f: ret  ;  (1 found)
0x00009892: ret  ;  (1 found)
0x00009d3c: ret  ;  (1 found)
0x00009ea8: ret  ;  (1 found)
0x00009ffd: ret  ;  (1 found)
0x0000a005: ret  ;  (1 found)
0x0000a10e: ret  ;  (1 found)
0x00009f7b: ret  ;  (1 found)
0x0000a1e4: ret  ;  (1 found)
0x0000a21e: ret  ;  (1 found)
0x000086df: ret  ;  (1 found)
0x000083b7: ret  ;  (1 found)
0x000085a5: ret  ;  (1 found)
0x00008653: ret  ;  (1 found)
0x0000838e: ret  ;  (1 found)
0x000088d5: ret  ;  (1 found)
0x00008bd5: ret  ;  (1 found)
0x00008c4e: ret  ;  (1 found)
0x0000a75a: ret  ;  (1 found)
0x0000a9fc: ret  ;  (1 found)
0x0000aa82: ret  ;  (1 found)
0x0000ab35: ret  ;  (1 found)
0x0000ab64: ret  ;  (1 found)
0x0000ab46: ret  ;  (1 found)
0x0000ab05: ret  ;  (1 found)
0x0000ab96: ret  ;  (1 found)
0x0000abab: ret  ;  (1 found)
0x0000a32a: ret  ;  (1 found)
0x0000a442: ret  ;  (1 found)
0x0000a485: ret  ;  (1 found)
0x0000a4af: ret  ;  (1 found)
0x0000a395: ret  ;  (1 found)
0x0000a3d4: ret  ;  (1 found)
0x0000ae70: ret  ;  (1 found)
0x0000ae73: ret  ;  (1 found)
0x0000ae74: ret  ;  (1 found)
0x0000ae7c: ret  ;  (1 found)
0x0000ae8e: ret  ;  (1 found)
0x0000af33: ret  ;  (1 found)
0x0000ac02: ret  ;  (1 found)
0x0000ac03: ret  ;  (1 found)
0x0000abed: ret  ;  (1 found)
0x0000ad6b: ret  ;  (1 found)
0x0000ad77: ret  ;  (1 found)
0x0000ac7e: ret  ;  (1 found)
0x0000ac65: ret  ;  (1 found)
0x0000ac8d: ret  ;  (1 found)
0x0000ac7f: ret  ;  (1 found)
0x0000ad3f: ret  ;  (1 found)
0x0000ad97: ret  ;  (1 found)
0x00010c6e: ret  ;  (1 found)
0x00010c82: ret  ;  (1 found)
0x00010c86: ret  ;  (1 found)
0x00010c96: ret  ;  (1 found)
0x00010c9a: ret  ;  (1 found)
0x00012b5f: ret  ;  (1 found)
0x00012b60: ret  ;  (1 found)
0x00012b68: ret  ;  (1 found)
0x00010cd5: ret  ;  (1 found)
0x00010ce0: ret  ;  (1 found)
0x00010cd4: ret  ;  (1 found)
0x00010ce1: ret  ;  (1 found)
0x00012d3c: ret  ;  (1 found)
0x00012b69: ret  ;  (1 found)
0x00012d31: ret  ;  (1 found)
0x00012d35: ret  ;  (1 found)
0x000130d3: ret  ;  (1 found)
0x0001328a: ret  ;  (1 found)
0x00013311: ret  ;  (1 found)
0x0001332b: ret  ;  (1 found)
0x000134ec: ret  ;  (1 found)
0x00013522: ret  ;  (1 found)
0x000134ed: ret  ;  (1 found)
0x000136bb: ret  ;  (1 found)
0x000136ed: ret  ;  (1 found)
0x00013ba5: ret  ;  (1 found)
0x00013bee: ret  ;  (1 found)
0x00013d4c: ret  ;  (1 found)
0x00013d73: ret  ;  (1 found)
0x00013dbf: ret  ;  (1 found)
0x00013d19: ret  ;  (1 found)
0x00013f4b: ret  ;  (1 found)
0x00013f91: ret  ;  (1 found)
0x00014444: ret  ;  (1 found)
0x00013f92: ret  ;  (1 found)
0x000144e1: ret  ;  (1 found)
0x0001457b: ret  ;  (1 found)
0x0001461c: ret  ;  (1 found)
0x0001836e: ret  ;  (1 found)
0x000178b5: ret  ;  (1 found)
0x00017a7d: ret  ;  (1 found)
0x00017709: ret  ;  (1 found)
0x00017c2b: ret  ;  (1 found)
0x00017bf1: ret  ;  (1 found)
0x0001808d: ret  ;  (1 found)
0x0001814d: ret  ;  (1 found)
0x000181a1: ret  ;  (1 found)
0x00017a7c: ret  ;  (1 found)
0x00017a3b: ret  ;  (1 found)
0x000180b8: ret  ;  (1 found)
0x000178b7: ret  ;  (1 found)
0x0001846b: ret  ;  (1 found)
0x00018548: ret  ;  (1 found)
0x00018540: ret  ;  (1 found)
0x00018546: ret  ;  (1 found)
0x00018911: ret  ;  (1 found)
0x00014952: ret  ;  (1 found)
0x000149ac: ret  ;  (1 found)
0x00014777: ret  ;  (1 found)
0x0001484c: ret  ;  (1 found)
0x00014b77: ret  ;  (1 found)
0x00014c92: ret  ;  (1 found)
0x00014b79: ret  ;  (1 found)
0x00014d3a: ret  ;  (1 found)
0x00014e47: ret  ;  (1 found)
0x00014f0f: ret  ;  (1 found)
0x000152bc: ret  ;  (1 found)
0x000152d3: ret  ;  (1 found)
0x0001502d: ret  ;  (1 found)
0x00015413: ret  ;  (1 found)
0x0001546c: ret  ;  (1 found)
0x000155c8: ret  ;  (1 found)
0x000156e2: ret  ;  (1 found)
0x0001581e: ret  ;  (1 found)
0x000158bb: ret  ;  (1 found)
0x0001593d: ret  ;  (1 found)
0x00015b6b: ret  ;  (1 found)
0x000159e9: ret  ;  (1 found)
0x00015b35: ret  ;  (1 found)
0x00015b36: ret  ;  (1 found)
0x00015fae: ret  ;  (1 found)
0x00016919: ret  ;  (1 found)
0x00016a73: ret  ;  (1 found)
0x00016a98: ret  ;  (1 found)
0x00016b01: ret  ;  (1 found)
0x00016ef1: ret  ;  (1 found)
0x00016dc6: ret  ;  (1 found)
0x000170c2: ret  ;  (1 found)
0x00016fc0: ret  ;  (1 found)
0x00016fbf: ret  ;  (1 found)
0x0001707c: ret  ;  (1 found)
0x00016ef3: ret  ;  (1 found)
0x00017078: ret  ;  (1 found)
0x000170bd: ret  ;  (1 found)
0x000170bf: ret  ;  (1 found)
0x000170c1: ret  ;  (1 found)
0x000170c7: ret  ;  (1 found)
0x0001729e: ret  ;  (1 found)
0x00017195: ret  ;  (1 found)
0x00017298: ret  ;  (1 found)
0x00017194: ret  ;  (1 found)
0x00017314: ret  ;  (1 found)
0x0001736a: ret  ;  (1 found)
0x00017296: ret  ;  (1 found)
0x000172fb: ret  ;  (1 found)
0x00017368: ret  ;  (1 found)
0x000174c9: ret  ;  (1 found)
0x00017389: ret  ;  (1 found)
0x00017473: ret  ;  (1 found)
0x00017475: ret  ;  (1 found)
0x00017542: ret  ;  (1 found)
0x00017540: ret  ;  (1 found)
0x00017543: ret  ;  (1 found)
0x00017707: ret  ;  (1 found)
0x0001b739: ret  ;  (1 found)
0x0001c061: ret  ;  (1 found)
0x0001c989: ret  ;  (1 found)
0x00019c24: ret  ;  (1 found)
0x00019c61: ret  ;  (1 found)
0x0001aa34: ret  ;  (1 found)
0x0001aa71: ret  ;  (1 found)
0x0001a635: retn 0x0000 ;  (1 found)
0x0000051b: retn 0x0004 ;  (1 found)
0x00001270: retn 0x0010 ;  (1 found)
0x0000177a: retn 0x0010 ;  (1 found)
0x000017a5: retn 0x0010 ;  (1 found)
0x0000454b: retn 0x0010 ;  (1 found)
0x0000532a: retn 0x0010 ;  (1 found)
0x00006bd4: retn 0x0010 ;  (1 found)
0x00006c04: retn 0x0010 ;  (1 found)
0x0000a2b1: retn 0x0010 ;  (1 found)
0x0000a302: retn 0x0010 ;  (1 found)
0x0000a53b: retn 0x0010 ;  (1 found)
0x0000a580: retn 0x0010 ;  (1 found)
0x0000a672: retn 0x0010 ;  (1 found)
0x0000a724: retn 0x0010 ;  (1 found)
0x0000ab8b: retn 0x0040 ;  (1 found)
0x0000abb4: retn 0x0040 ;  (1 found)
0x0000abca: retn 0x0040 ;  (1 found)
0x0000abbf: retn 0x0040 ;  (1 found)
0x0000b625: retn 0x0040 ;  (1 found)
0x0000bee1: retn 0x0040 ;  (1 found)
0x000061da: retn 0x0051 ;  (1 found)
0x00003a6a: retn 0x0076 ;  (1 found)
0x00002e79: retn 0x0098 ;  (1 found)
0x00003019: retn 0x0098 ;  (1 found)
0x000031c9: retn 0x0098 ;  (1 found)
0x0000aaf6: retn 0x018B ;  (1 found)
0x00013448: retn 0x0297 ;  (1 found)
0x00009973: retn 0x0406 ;  (1 found)
0x00014381: retn 0x0539 ;  (1 found)
0x00015307: retn 0x0600 ;  (1 found)
0x00013b1b: retn 0x0902 ;  (1 found)
0x000167af: retn 0x0A02 ;  (1 found)
0x00009568: retn 0x0B74 ;  (1 found)
0x00014922: retn 0x0D0E ;  (1 found)
0x00014afe: retn 0x0D42 ;  (1 found)
0x00014939: retn 0x0DA6 ;  (1 found)
0x00013287: retn 0x0E00 ;  (1 found)
0x0001344b: retn 0x0E00 ;  (1 found)
0x00016b87: retn 0x0E00 ;  (1 found)
0x000136ee: retn 0x0E58 ;  (1 found)
0x00014cb0: retn 0x0F10 ;  (1 found)
0x00013761: retn 0x0F38 ;  (1 found)
0x0001546e: retn 0x0F52 ;  (1 found)
0x0001496e: retn 0x1441 ;  (1 found)
0x00014d3d: retn 0x1456 ;  (1 found)
0x000080cb: retn 0x14EB ;  (1 found)
0x00007fb9: retn 0x2375 ;  (1 found)
0x00015e7a: retn 0x2B40 ;  (1 found)
0x00015340: retn 0x2C56 ;  (1 found)
0x0000a6ed: retn 0x3789 ;  (1 found)
0x00002661: retn 0x3820 ;  (1 found)
0x00002991: retn 0x3820 ;  (1 found)
0x0000a874: retn 0x3840 ;  (1 found)
0x0001550f: retn 0x385B ;  (1 found)
0x00013550: retn 0x3873 ;  (1 found)
0x00013d1c: retn 0x395B ;  (1 found)
0x00016e90: retn 0x39A8 ;  (1 found)
0x000178bb: retn 0x3AB2 ;  (1 found)
0x0001770b: retn 0x3AB3 ;  (1 found)
0x00017a80: retn 0x3AB3 ;  (1 found)
0x000059f0: retn 0x3D8B ;  (1 found)
0x00016a1d: retn 0x3DA8 ;  (1 found)
0x0001366d: retn 0x40B2 ;  (1 found)
0x000135c0: retn 0x42A6 ;  (1 found)
0x00013fa8: retn 0x45A9 ;  (1 found)
0x000093db: retn 0x463D ;  (1 found)
0x00014acb: retn 0x4757 ;  (1 found)
0x00014492: retn 0x505C ;  (1 found)
0x00013147: retn 0x50A6 ;  (1 found)
0x00014791: retn 0x50B3 ;  (1 found)
0x0000917c: retn 0x5489 ;  (1 found)
0x0000926b: retn 0x5489 ;  (1 found)
0x00015019: retn 0x555C ;  (1 found)
0x00014e5c: retn 0x57AF ;  (1 found)
0x00014aca: retn 0x57C2 ;  (1 found)
0x0001470e: retn 0x5BAF ;  (1 found)
0x00013d1b: retn 0x5BC2 ;  (1 found)
0x00014491: retn 0x5CC2 ;  (1 found)
0x000043ba: retn 0x5D8B ;  (1 found)
0x00013346: retn 0x6D78 ;  (1 found)
0x00016b31: retn 0x6DB6 ;  (1 found)
0x0001696e: retn 0x72A8 ;  (1 found)
0x00015ebe: retn 0x72B3 ;  (1 found)
0x00015b7c: retn 0x78B2 ;  (1 found)
0x000156fd: retn 0x78B3 ;  (1 found)
0x000078a3: retn 0x7C81 ;  (1 found)
0x00007632: retn 0x8330 ;  (1 found)
0x00007641: retn 0x8330 ;  (1 found)
0x000091bc: retn 0x848B ;  (1 found)
0x0000805d: retn 0x850F ;  (1 found)
0x00001437: retn 0x880F ;  (1 found)
0x000014c0: retn 0x890F ;  (1 found)
0x00008d01: retn 0x8B01 ;  (1 found)
0x0000509d: retn 0x8B8D ;  (1 found)
0x00013bef: retn 0x8CB2 ;  (1 found)
0x00009508: retn 0x920F ;  (1 found)
0x0000950d: retn 0x95B9 ;  (1 found)
0x00008325: retn 0x99EB ;  (1 found)
0x00013759: retn 0x9BD7 ;  (1 found)
0x00005a42: retn 0x9C8D ;  (1 found)
0x00014200: retn 0x9FC0 ;  (1 found)
0x000157b8: retn 0xA695 ;  (1 found)
0x00014ab5: retn 0xA6AA ;  (1 found)
0x000185ca: retn 0xA7EB ;  (1 found)
0x00016b04: retn 0xA8A6 ;  (1 found)
0x000159b5: retn 0xA8AF ;  (1 found)
0x00017dae: retn 0xA8B2 ;  (1 found)
0x000167fa: retn 0xA8B7 ;  (1 found)
0x000155df: retn 0xA9BA ;  (1 found)
0x00013963: retn 0xAAB5 ;  (1 found)
0x000148ec: retn 0xAABA ;  (1 found)
0x00014ab4: retn 0xAAC2 ;  (1 found)
0x00014cde: retn 0xABBA ;  (1 found)
0x00014b16: retn 0xABBF ;  (1 found)
0x00007f97: retn 0xAEEB ;  (1 found)
0x00013176: retn 0xAFB5 ;  (1 found)
0x00016d3b: retn 0xB0BF ;  (1 found)
0x00015f17: retn 0xB2B6 ;  (1 found)
0x000158d4: retn 0xB3B7 ;  (1 found)
0x00016268: retn 0xB3B7 ;  (1 found)
0x000169ea: retn 0xB3B7 ;  (1 found)
0x00018468: retn 0xB3D7 ;  (1 found)
0x00014168: retn 0xB5B5 ;  (1 found)
0x00014531: retn 0xB5B5 ;  (1 found)
0x0001332a: retn 0xB5C3 ;  (1 found)
0x00007ddf: retn 0xB60F ;  (1 found)
0x0001414e: retn 0xB7B7 ;  (1 found)
0x00016d38: retn 0xB7C2 ;  (1 found)
0x000131aa: retn 0xB9B9 ;  (1 found)
0x00014ea7: retn 0xBAD1 ;  (1 found)
0x000170be: retn 0xBFC3 ;  (1 found)
0x00016ef2: retn 0xC0C3 ;  (1 found)
0x00008b83: retn 0xC189 ;  (1 found)
0x00015305: retn 0xC202 ;  (1 found)
0x00016b85: retn 0xC203 ;  (1 found)
0x00016d39: retn 0xC2B7 ;  (1 found)
0x00013446: retn 0xC2BA ;  (1 found)
0x00016ef0: retn 0xC2C3 ;  (1 found)
0x000157b6: retn 0xC2C5 ;  (1 found)
0x0001330f: retn 0xC3C0 ;  (1 found)
0x00013329: retn 0xC3C2 ;  (1 found)
0x00016eef: retn 0xC3C2 ;  (1 found)
0x000134eb: retn 0xC3C3 ;  (1 found)
0x00017541: retn 0xC3C3 ;  (1 found)
0x00014f0d: retn 0xC3C5 ;  (1 found)
0x0001707a: retn 0xC3D2 ;  (1 found)
0x00006d87: retn 0xC483 ;  (1 found)
0x000157b5: retn 0xC5C2 ;  (1 found)
0x000136ba: retn 0xC5C3 ;  (1 found)
0x00010cc2: retn 0xC600 ;  (1 found)
0x00013bd1: retn 0xCBB7 ;  (1 found)
0x00001cfe: retn 0xD089 ;  (1 found)
0x00002bae: retn 0xD089 ;  (1 found)
0x000033ee: retn 0xD089 ;  (1 found)
0x00009efe: retn 0xD089 ;  (1 found)
0x0000a15e: retn 0xD089 ;  (1 found)
0x0000a19e: retn 0xD089 ;  (1 found)
0x0000856e: retn 0xD089 ;  (1 found)
0x0000871e: retn 0xD089 ;  (1 found)
0x0000a34e: retn 0xD089 ;  (1 found)
0x0000a3fe: retn 0xD089 ;  (1 found)
0x00017369: retn 0xD1C3 ;  (1 found)
0x00017708: retn 0xD1C3 ;  (1 found)
0x0001691b: retn 0xD1D1 ;  (1 found)
0x00017196: retn 0xD1D1 ;  (1 found)
0x00014cdb: retn 0xD1D2 ;  (1 found)
0x0001510e: retn 0xD2B7 ;  (1 found)
0x00017079: retn 0xD2C2 ;  (1 found)
0x000130d2: retn 0xD2C3 ;  (1 found)
0x000154da: retn 0xD2D1 ;  (1 found)
0x000156ac: retn 0xD2D1 ;  (1 found)
0x000162f9: retn 0xD2D1 ;  (1 found)
0x00016e09: retn 0xD2D1 ;  (1 found)
0x00015881: retn 0xD2D2 ;  (1 found)
0x00016a99: retn 0xD4D2 ;  (1 found)
0x00012eff: retn 0xD6D2 ;  (1 found)
0x00014f4a: retn 0xD7D6 ;  (1 found)
0x00016c54: retn 0xD8D2 ;  (1 found)
0x00015984: retn 0xD8DA ;  (1 found)
0x00013f4a: retn 0xDAC3 ;  (1 found)
0x00015c50: retn 0xDAD2 ;  (1 found)
0x00014d76: retn 0xDAD6 ;  (1 found)
0x000086f1: retn 0xDB85 ;  (1 found)
0x00008774: retn 0xDB85 ;  (1 found)
0x00007f3f: retn 0xE280 ;  (1 found)
0x00007dce: retn 0xE280 ;  (1 found)
0x00016c0c: retn 0xE3DA ;  (1 found)
0x0001759c: retn 0xE7D7 ;  (1 found)
0x00014122: retn 0xE7D9 ;  (1 found)
0x00007fb2: retn 0xE8C1 ;  (1 found)
0x00008056: retn 0xE8C1 ;  (1 found)
0x00016720: retn 0xEAEA ;  (1 found)
0x00000925: retn 0xF883 ;  (1 found)
0x00000943: retn 0xFB83 ;  (1 found)
0x00000a99: retn 0xFB83 ;  (1 found)
0x0000957a: retn 0xFB83 ;  (1 found)
0x00005c82: retn 0xFE83 ;  (1 found)
0x0000636d: retn 0xFEB8 ;  (1 found)
0x000085a0: retn 0xFF85 ;  (1 found)
0x00017538: rol bh, 0xFFFFFFC1 ; adc byte [ebx], al ; rol dword [eax], 0x08 ; ret  ;  (1 found)
0x00018545: rol bl, 0xFFFFFFC5 ; ret  ;  (1 found)
0x0001546b: rol bl, 0xFFFFFFD6 ; retn 0x0F52 ;  (1 found)
0x00013f90: rol bl, cl ; ret  ;  (1 found)
0x00013bed: rol bl, cl ; retn 0x8CB2 ;  (1 found)
0x00001509: rol byte [eax+0x00], 1  ; mov eax, dword [0x00474020+esi*4] ; add esp, 0x14 ; pop ebx ; pop esi ; ret  ;  (1 found)
0x00001503: rol byte [eax+0x00], 1  ; mov esi, dword [0x0040D010] ; mov eax, dword [0x00474020+esi*4] ; add esp, 0x14 ; pop ebx ; pop esi ; ret  ;  (1 found)
0x00001471: rol byte [eax+0x00], 1  ; sub esp, 0x10 ; mov eax, dword [0x00474020+esi*4] ; add esp, 0x14 ; pop ebx ; pop esi ; ret  ;  (1 found)
0x0000a568: rol byte [eax], 0x00000000 ; add byte [ebx+0x00C424B4], cl ; add byte [eax], al ; mov edi, dword [esp+0x000000C8] ; add esp, 0x000000CC ; retn 0x0010 ;  (1 found)
0x0000a521: rol byte [eax], 0x00000000 ; add byte [ecx], dh ; ror byte [ebx+0x00C424B4], 0x00000000 ; add byte [ebx+0x00C824BC], cl ; add byte [eax], al ; add esp, 0x000000CC ; retn 0x0010 ;  (1 found)
0x00012d36: rol byte [eax], 0x00000003 ; rol byte [eax], 0x00000015 ; ret  ;  (1 found)
0x00012d39: rol byte [eax], 0x00000015 ; ret  ;  (1 found)
0x00010cda: rol byte [eax], 1  ; int3  ; int3  ; rol byte [eax], cl ; ret  ;  (1 found)
0x000167f7: rol byte [eax], cl ; push es ; retn 0xA8B7 ;  (1 found)
0x00010cde: rol byte [eax], cl ; ret  ;  (1 found)
0x0000abc3: rol byte [ebp-0x45348B2E], 0x00000020 ; retn 0x0040 ;  (1 found)
0x00001264: rol byte [ebp-0x7CF58A40], cl ; les eax,  [ecx+ecx*4-0x30] ; pop ebx ; pop esi ; retn 0x0010 ;  (1 found)
0x00009429: rol byte [ebx+0x0F], 0xFFFFFF94 ; ret  ;  (1 found)
0x00007664: rol byte [ebx+0x5E5B0CC4], 0x0000005F ; pop ebp ; ret  ;  (1 found)
0x00014b0b: rol byte [ebx], cl ; das  ; add byte [esi], cl ; xor al, 0x7B ; mov dh, 0xD1 ; ror ah, cl ; retn 0xABBF ;  (1 found)
0x000167f5: rol byte [edx], cl ; rol byte [eax], cl ; push es ; retn 0xA8B7 ;  (1 found)
0x000158b8: rol ch, 0xFFFFFFD6 ; ret  ;  (1 found)
0x00012b66: rol ch, cl ; ret  ;  (1 found)
0x00016d37: rol dl, cl ; retn 0xC2B7 ;  (1 found)
0x00016eee: rol dl, cl ; retn 0xC2C3 ;  (1 found)
0x0001753d: rol dword [eax], 0x08 ; ret  ;  (1 found)
0x00000706: rol dword [ebx-0x063EEF14], 0x1F ; add dword [esi+0x00000630], eax ; adc dword [esi+0x00000634], ecx ; mov ebx, dword [esp+0x14] ; mov esi, dword [esp+0x18] ; add esp, 0x1C ; ret  ;  (1 found)
0x0000aece: rol dword [ebx-0x1F76FFF7], 0xFFFFFF89 ; int3  ; mov ecx, dword [eax] ; mov eax, dword [eax+0x04] ; jmp eax ;  (1 found)
0x00016a63: rol dword [ebx], cl ; add al, 0x02 ; add eax, 0x05041200 ; or eax, 0x15160E0E ; dec eax ; lodsb  ; ret  ;  (1 found)
0x00014eff: rol dword [edx], 1  ; or byte [edx], al ; pop es ; add eax, dword [0x0E000702] ; adc bl, byte [edx] ; sahf  ; retn 0xC3C5 ;  (1 found)
0x00012b50: rol eax, 0xFFFFFFBF ; mov edi, 0xB9B1B9BC ; mov al, 0xB3 ; mov bl, 0xCC ; rcl ecx, cl ; lds eax, ebx ; ret  ;  (1 found)
0x0001729b: rol eax, 0xFFFFFFC0 ; ret  ;  (1 found)
0x00017537: rol eax, 0xFFFFFFC7 ; rcl dword [eax], 0x03 ; rol dword [eax], 0x08 ; ret  ;  (1 found)
0x00012b5d: rol ebp, 1  ; ret  ;  (1 found)
0x0001448f: rol ebp, cl ; retn 0x5CC2 ;  (1 found)
0x000178b4: rol ebx, 0x02 ; ret  ;  (1 found)
0x00017706: rol ebx, 0xFFFFFFC2 ; ret  ;  (1 found)
0x00017367: rol ebx, 0xFFFFFFC2 ; ret  ;  (1 found)
0x00017193: rol ebx, 0xFFFFFFC3 ; retn 0xD1D1 ;  (1 found)
0x00017366: rol ecx, 0xFFFFFFC3 ; retn 0xD1C3 ;  (1 found)
0x0001550c: rol ecx, 0xFFFFFFC5 ; retn 0x385B ;  (1 found)
0x00014618: rol edi, 0xFFFFFFD7 ; xlatb  ; ret  ;  (1 found)
0x00014ac9: rol edx, 1  ; retn 0x4757 ;  (1 found)
0x00014950: ror ah, cl ; ret  ;  (1 found)
0x00014b14: ror ah, cl ; retn 0xABBF ;  (1 found)
0x00014aa4: ror bh, 1  ; rcl al, 1  ; fist dword [edx+eax+0x00D502DB] ; adc ah, dl ; out 0xDA, al ; fcmovb st0, st2 ; retn 0xA6AA ;  (1 found)
0x0000a526: ror byte [ebx+0x00C424B4], 0x00000000 ; add byte [ebx+0x00C824BC], cl ; add byte [eax], al ; add esp, 0x000000CC ; retn 0x0010 ;  (1 found)
0x0000a295: ror byte [ebx+0x023024B4], 0x00000000 ; add byte [ebx+0x023424BC], cl ; add byte [eax], al ; mov ebp, dword [esp+0x00000238] ; add esp, 0x0000023C ; retn 0x0010 ;  (1 found)
0x0000176e: ror byte [ebx-0x74DBDB8C], 0x0000007C ; and al, 0x28 ; add esp, 0x2C ; retn 0x0010 ;  (1 found)
0x0000a666: ror byte [ebx-0x74DBDB8C], 0x0000007C ; and al, 0x28 ; add esp, 0x2C ; retn 0x0010 ;  (1 found)
0x0000952b: ror byte [edi], 0xFFFFFF92 ; ret  ;  (1 found)
0x00007fdb: ror byte [edi], 0xFFFFFF94 ; ret  ;  (1 found)
0x000093d8: ror byte [edi], 0xFFFFFF94 ; retn 0x463D ;  (1 found)
0x00006d84: ror byte [edi], 0xFFFFFF95 ; retn 0xC483 ;  (1 found)
0x00009577: ror byte [edi], cl ; xchg eax, ebp ; retn 0xFB83 ;  (1 found)
0x00012d28: ror ch, 1  ; into  ; test byte [ebx], 0xFFFFFFCE ; add byte [edi], al ; int3  ; ret  ;  (1 found)
0x0000aafa: ror dword [eax], 0x01 ; add bh, byte [ecx] ; fstenv  [edx-0x12] ; pop ebx ; pop esi ; pop ebp ; ret  ;  (1 found)
0x00015469: sahf  ; mov cl, 0xC0 ; ret  ;  (1 found)
0x00014f0c: sahf  ; retn 0xC3C5 ;  (1 found)
0x000032f3: sal byte [eax+ebx+0x46], 0xFFFFFF81 ; ret  ;  (1 found)
0x00001266: sal byte [ebp+0x0A], 0xFFFFFF83 ; les eax,  [ecx+ecx*4-0x30] ; pop ebx ; pop esi ; retn 0x0010 ;  (1 found)
0x00009e9e: sal byte [ebp+0x0F], cl ; add esp, 0x00000C68 ; pop ebx ; ret  ;  (1 found)
0x00004804: sal byte [ebp+0x1F], 0xFFFFFFC6 ; add eax, dword [eax] ; mov ebx, dword [esp+0x00000150] ; mov esi, dword [esp+0x00000154] ; mov edi, dword [esp+0x00000158] ; add esp, 0x0000015C ; ret  ;  (1 found)
0x00000538: sal byte [ebp+edx*8-0x39], 0x00000004 ; and al, 0x0B ; add byte [eax], al ; add byte [ebp+0x000026B4], cl ; add byte [eax], al ; lea edi, dword [edi+0x00000000] ; call eax ;  (1 found)
0x000016f2: sal byte [ebp-0x15], 0xFFFFFF83 ; les ecx,  [eax] ; pop ebx ; ret  ;  (1 found)
0x00003c70: sal byte [ebx+ecx-0x7F], 0xFFFFFFC4 ; lodsb  ; or al, byte [eax] ; add byte [ebx+0x5E], bl ; pop edi ; pop ebp ; ret  ;  (1 found)
0x0000050d: sal byte [esi+ecx-0x77], 0xFFFFFFD8 ; mov esi, dword [ebp-0x04] ; mov ebx, dword [ebp-0x08] ; mov esp, ebp ; pop ebp ; retn 0x0004 ;  (1 found)
0x0000adfb: sal cl, 0x00000040 ; add byte [ecx-0x00008B7B], cl ; jmp dword [ecx+0x0040F1C4] ;  (1 found)
0x00010c7a: salc  ; add byte [edi-0x5BFF2969], dl ; movsb  ; ret  ;  (1 found)
0x00010c7e: salc  ; add byte [esp-0x5454FF3D], ah ; ret  ;  (1 found)
0x0000ab58: salc  ; inc eax ; add byte [ebx+0x75C98508], cl ; add al, 0x89 ; in al, dx ; pop ebp ; ret  ;  (1 found)
0x000004ae: salc  ; inc eax ; add byte [ecx+0x5DEC8910], cl ; ret  ;  (1 found)
0x0000abe3: salc  ; inc eax ; add byte [ecx+0x74C085E5], cl ; add al, 0x5D ; ret  ;  (1 found)
0x00001e60: salc  ; inc eax ; add byte [ecx], bh ; ret  ;  (1 found)
0x00001def: salc  ; inc eax ; add byte [ecx], bh ; ret  ;  (1 found)
0x00001dc7: salc  ; inc eax ; add byte [ecx], dh ; fstp tword [ecx] ; ret  ;  (1 found)
0x0001696b: salc  ; rcl cl, cl ; retn 0x72A8 ;  (1 found)
0x00017dab: salc  ; rcl cl, cl ; retn 0xA8B2 ;  (1 found)
0x000149ab: salc  ; ret  ;  (1 found)
0x000158ba: salc  ; ret  ;  (1 found)
0x000170bc: salc  ; ret  ;  (1 found)
0x00017295: salc  ; ret  ;  (1 found)
0x00017472: salc  ; ret  ;  (1 found)
0x000174c8: salc  ; ret  ;  (1 found)
0x00013760: salc  ; retn 0x0F38 ;  (1 found)
0x0001546d: salc  ; retn 0x0F52 ;  (1 found)
0x00014d3c: salc  ; retn 0x1456 ;  (1 found)
0x00013345: salc  ; retn 0x6D78 ;  (1 found)
0x00016b03: salc  ; retn 0xA8A6 ;  (1 found)
0x00016b84: salc  ; retn 0xC203 ;  (1 found)
0x00013bd0: salc  ; retn 0xCBB7 ;  (1 found)
0x0001691a: salc  ; retn 0xD1D1 ;  (1 found)
0x00013bec: salc  ; rol bl, cl ; retn 0x8CB2 ;  (1 found)
0x00017471: salc  ; salc  ; ret  ;  (1 found)
0x00016b02: salc  ; salc  ; retn 0xA8A6 ;  (1 found)
0x000155c6: salc  ; xlatb  ; ret  ;  (1 found)
0x0000483c: sar byte [eax-0x35], 0xFFFFFF8B ; inc esp ; and al, 0x1C ; mov ebx, dword [eax] ; mov dword [esp+0x04], edi ; mov dword [esp], eax ; call dword [ebx+0x14] ;  (1 found)
0x00002c84: sar byte [edi-0x00000001], 0xFFFFFF89 ; ret  ;  (1 found)
0x00012b51: sar byte [edi-0x4E464341], 0xFFFFFFB9 ; mov al, 0xB3 ; mov bl, 0xCC ; rcl ecx, cl ; lds eax, ebx ; ret  ;  (1 found)
0x00005078: sar byte [esi+0x6B], 0x00000031 ; fstp tword [ecx] ; ret  ;  (1 found)
0x0000070a: sar ecx, 0x1F ; add dword [esi+0x00000630], eax ; adc dword [esi+0x00000634], ecx ; mov ebx, dword [esp+0x14] ; mov esi, dword [esp+0x18] ; add esp, 0x1C ; ret  ;  (1 found)
0x000136af: sbb al, 0x2F ; xor dword [esi+edi*2+0x7E], edi ; test dword [edx-0x3D35767E], eax ; ret  ;  (1 found)
0x00005112: sbb al, 0x5B ; pop esi ; pop edi ; pop ebp ; ret  ;  (1 found)
0x00004842: sbb al, 0x8B ; sbb byte [ecx-0x76FBDB84], cl ; add al, 0x24 ; call dword [ebx+0x14] ;  (1 found)
0x00015465: sbb al, byte [ebp+ecx*2+0x49] ; sahf  ; mov cl, 0xC0 ; ret  ;  (1 found)
0x0001b734: sbb bh, 0x00000012 ; add ch, bh ; ret  ;  (1 found)
0x0001c05c: sbb bh, 0x00000012 ; add ch, bh ; ret  ;  (1 found)
0x0001c984: sbb bh, 0x00000012 ; add ch, bh ; ret  ;  (1 found)
0x00016e8a: sbb bl, byte [eax-0x50] ; lds esp, ecx ; xlatb  ; retn 0x39A8 ;  (1 found)
0x0001448d: sbb bl, cl ; rol ebp, cl ; retn 0x5CC2 ;  (1 found)
0x0001545c: sbb byte [0x120C0F12], dl ; add byte [ebx], dl ; push ss ; sbb al, byte [ebp+ecx*2+0x49] ; sahf  ; mov cl, 0xC0 ; ret  ;  (1 found)
0x0000ad8b: sbb byte [ebx+0x40D70415], cl ; add byte [ecx-0x2F5EE3BD], cl ; ret  ;  (1 found)
0x0000473b: sbb byte [ebx+0x5E5B44C4], al ; ret  ;  (1 found)
0x00004844: sbb byte [ecx-0x76FBDB84], cl ; add al, 0x24 ; call dword [ebx+0x14] ;  (1 found)
0x000032f5: sbb byte [esi-0x7F], al ; ret  ;  (1 found)
0x000010a3: sbb dword [edi-0x3B7D0000], ebx ; and al, 0x5B ; pop edi ; ret  ;  (1 found)
0x00016916: sbb dword [edi-0x55], edx ; ret  ;  (1 found)
0x0001814a: sbb dword [esi], ecx ; pop es ; ret  ;  (1 found)
0x00007e42: sbb eax, 0x1C245C8B ; mov eax, edx ; mov esi, dword [esp+0x20] ; mov edi, dword [esp+0x24] ; mov ebp, dword [esp+0x28] ; add esp, 0x2C ; ret  ;  (1 found)
0x0001331b: sbb eax, 0x2F28272A ; xor al, byte [eax+0x6A818280] ; mov edi, dword [ebx-0x4A] ; retn 0xC3C2 ;  (1 found)
0x00017359: scasb  ; push es ; mov esp, 0xBC03B902 ; add byte [esi], cl ; mov cl, 0xB0 ; mov esp, 0xC3C1C1BE ; retn 0xD1C3 ;  (1 found)
0x000158b7: scasb  ; rol ch, 0xFFFFFFD6 ; ret  ;  (1 found)
0x00013d70: scasd  ; mov bl, 0xB5 ; ret  ;  (1 found)
0x000167f4: scasd  ; rol byte [edx], cl ; rol byte [eax], cl ; push es ; retn 0xA8B7 ;  (1 found)
0x00007fdc: sete bl ; add esp, 0x08 ; mov eax, ebx ; pop ebx ; ret  ;  (1 found)
0x00006d85: setne dl ; add esp, 0x48 ; mov eax, edx ; pop ebx ; ret  ;  (1 found)
0x000150f1: sets byte [esi+edi*4-0x37363638] ; mov edi, 0x105B5BA6 ; or cl, byte [edx] ; or dword [ebx+eax+0x000B0309], ebx ; adc esp, dword [esi] ; sub eax, 0xD1B26E70 ; retn 0xD2B7 ;  (1 found)
0x00013143: shl al, 1  ; rcl bl, 1  ; retn 0x50A6 ;  (1 found)
0x00001cfc: shl byte [ecx], 1  ; retn 0xD089 ;  (1 found)
0x00002bac: shl byte [ecx], 1  ; retn 0xD089 ;  (1 found)
0x000033ec: shl byte [ecx], 1  ; retn 0xD089 ;  (1 found)
0x00009efc: shl byte [ecx], 1  ; retn 0xD089 ;  (1 found)
0x0000a15c: shl byte [ecx], 1  ; retn 0xD089 ;  (1 found)
0x0000a19c: shl byte [ecx], 1  ; retn 0xD089 ;  (1 found)
0x0000856c: shl byte [ecx], 1  ; retn 0xD089 ;  (1 found)
0x0000871c: shl byte [ecx], 1  ; retn 0xD089 ;  (1 found)
0x0000a34c: shl byte [ecx], 1  ; retn 0xD089 ;  (1 found)
0x0000a3fc: shl byte [ecx], 1  ; retn 0xD089 ;  (1 found)
0x00006d81: shl byte [esi-0x7B], cl ; ror byte [edi], 0xFFFFFF95 ; retn 0xC483 ;  (1 found)
0x0000a0fd: sldt word [eax] ; mov eax, 0x00000001 ; add esp, 0x00000110 ; pop ebx ; pop esi ; pop edi ; ret  ;  (1 found)
0x000136a9: smsw word [edi] ; add ch, byte [eax] ; add byte [edi+ebp], bl ; xor dword [esi+edi*2+0x7E], edi ; test dword [edx-0x3D35767E], eax ; ret  ;  (1 found)
0x0001b731: stc  ; adc al, byte [eax] ; sbb bh, 0x00000012 ; add ch, bh ; ret  ;  (1 found)
0x0001c059: stc  ; adc al, byte [eax] ; sbb bh, 0x00000012 ; add ch, bh ; ret  ;  (1 found)
0x0001c981: stc  ; adc al, byte [eax] ; sbb bh, 0x00000012 ; add ch, bh ; ret  ;  (1 found)
0x0000859c: stc  ; add eax, 0x85C2970F ; dec dword [edi] ; lahf  ; ret  ;  (1 found)
0x0001890f: stc  ; cli  ; ret  ;  (1 found)
0x0001853d: stc  ; hlt  ; out 0xC3, eax ; mov cl, 0xAC ; lodsb  ; mov cl, 0xC0 ; ret  ;  (1 found)
0x0001890e: stc  ; stc  ; cli  ; ret  ;  (1 found)
0x00018c07: std  ; add dword [esi-0x02FF0000], edx ; call dword [esi-0x02FE694A] ;  (1 found)
0x00018199: std  ; add ebx, esi ; add al, 0xEF ; add byte [edi], al ; in al, dx ; ret  ;  (1 found)
0x00018197: std  ; and ebp, edi ; add ebx, esi ; add al, 0xEF ; add byte [edi], al ; in al, dx ; ret  ;  (1 found)
0x00018c0d: std  ; call dword [esi-0x02FE694A] ;  (1 found)
0x00005029: std  ; dec dword [edi] ; xchg eax, esp ; ret  ;  (1 found)
0x0001b738: std  ; ret  ;  (1 found)
0x0001c060: std  ; ret  ;  (1 found)
0x0001c988: std  ; ret  ;  (1 found)
0x000185c1: sti  ; add al, 0xFA ; add byte [ebx], cl ; div esp ; out dx, eax ; out dx, al ; retn 0xA7EB ;  (1 found)
0x0000a7a9: sti  ; das  ; and eax, dword [eax] ; add byte [edi], cl ; test dword [edi+edi*8-0x01], ebx ; jmp dword [ecx+0x0040D6A0] ;  (1 found)
0x000004a8: stosb  ; add byte [eax], al ; mov edx, dword [0x0040D6D0] ; mov dword [eax], edx ; mov esp, ebp ; pop ebp ; ret  ;  (1 found)
0x00017071: stosb  ; cmpsb  ; test al, 0xAA ; test al, 0xAA ; mov ah, 0xC3 ; retn 0xD2C2 ;  (1 found)
0x00017076: stosb  ; mov ah, 0xC3 ; retn 0xD2C2 ;  (1 found)
0x00013d6f: stosb  ; scasd  ; mov bl, 0xB5 ; ret  ;  (1 found)
0x00017074: stosb  ; test al, 0xAA ; mov ah, 0xC3 ; retn 0xD2C2 ;  (1 found)
0x00000435: stosd  ; add byte [eax], al ; mov esp, ebp ; pop ebp ; ret  ;  (1 found)
0x000144de: stosd  ; lodsb  ; lodsd  ; ret  ;  (1 found)
0x00010c85: stosd  ; ret  ;  (1 found)
0x00016918: stosd  ; ret  ;  (1 found)
0x00010c84: stosd  ; stosd  ; ret  ;  (1 found)
0x0001331c: sub ah, byte [edi] ; sub byte [edi], ch ; xor al, byte [eax+0x6A818280] ; mov edi, dword [ebx-0x4A] ; retn 0xC3C2 ;  (1 found)
0x000083a9: sub al, 0x00 ; add byte [eax+0x00000001], bh ; add esp, 0x10 ; pop ebx ; pop esi ; pop edi ; ret  ;  (1 found)
0x0000a2e3: sub al, 0x02 ; add byte [eax], al ; mov esi, dword [esp+0x00000230] ; mov edi, dword [esp+0x00000234] ; mov ebp, dword [esp+0x00000238] ; add esp, 0x0000023C ; retn 0x0010 ;  (1 found)
0x000034ed: sub al, 0x03 ; add byte [eax], al ; pop ebx ; pop esi ; pop edi ; pop ebp ; ret  ;  (1 found)
0x00013315: sub al, 0x0F ; add cl, byte [bx] ; add byte [0x2F28272A], bl ; xor al, byte [eax+0x6A818280] ; mov edi, dword [ebx-0x4A] ; retn 0xC3C2 ;  (1 found)
0x000030fa: sub al, 0x0F ; mov word [ecx-0x7E000002], gs ; les ebp,  [edx+eax+0x00] ; add byte [ebx+0x5E], bl ; pop edi ; pop ebp ; ret  ;  (1 found)
0x000032aa: sub al, 0x0F ; mov word [ecx-0x7E000002], gs ; les ebp,  [edx+eax+0x00] ; add byte [ebx+0x5E], bl ; pop edi ; pop ebp ; ret  ;  (1 found)
0x0000af2a: sub al, 0x24 ; frndint  ; fldcw word [esp+0x02] ; pop eax ; ret  ;  (1 found)
0x00013314: sub al, 0x2C ; packuswb mm0, qword [edx] ; ltr word [0x2F28272A] ; xor al, byte [eax+0x6A818280] ; mov edi, dword [ebx-0x4A] ; retn 0xC3C2 ;  (1 found)
0x00013b91: sub al, 0x38 ; cmp eax, dword [edx+0x74] ; test al, 0x29 ; add ebp, dword [eax-0x4A4CF700] ; mov edx, 0xE8E8E7D8 ; out 0xE8, eax ; ret  ;  (1 found)
0x000155bd: sub al, byte [edx] ; add byte [edi], cl ; cmp byte [edx], bh ; push edx ; mov ch, 0xD6 ; xlatb  ; ret  ;  (1 found)
0x00015022: sub byte [0x10002805], dh ; sub eax, 0xDAD6B266 ; ret  ;  (1 found)
0x00015025: sub byte [eax], al ; adc byte [0xDAD6B266], ch ; ret  ;  (1 found)
0x00014e9f: sub byte [eax], al ; adc ebp, dword [edi] ; xor al, 0x7B ; mov dh, 0xB7 ; retn 0xBAD1 ;  (1 found)
0x000136ad: sub byte [eax], al ; sbb al, 0x2F ; xor dword [esi+edi*2+0x7E], edi ; test dword [edx-0x3D35767E], eax ; ret  ;  (1 found)
0x000141f4: sub byte [eax], ch ; das  ; das  ; xor dword [ecx], esi ; xor al, byte [edi-0x73357575] ; retn 0x9FC0 ;  (1 found)
0x000141f2: sub byte [eax], ch ; das  ; das  ; xor dword [ecx], esi ; xor al, byte [edi-0x73357575] ; retn 0x9FC0 ;  (1 found)
0x000141f3: sub byte [eax], ch ; das  ; das  ; xor dword [ecx], esi ; xor al, byte [edi-0x73357575] ; retn 0x9FC0 ;  (1 found)
0x00014486: sub byte [ebx+0x79], 0x0000007B ; add bh, byte [ebx+0x00] ; sbb bl, cl ; rol ebp, cl ; retn 0x5CC2 ;  (1 found)
0x00014e9c: sub byte [ebx], cl ; add ch, byte [eax] ; add byte [ebx], dl ; das  ; xor al, 0x7B ; mov dh, 0xB7 ; retn 0xBAD1 ;  (1 found)
0x00014e9b: sub byte [ebx], cl ; add ch, byte [eax] ; add byte [ebx], dl ; das  ; xor al, 0x7B ; mov dh, 0xB7 ; retn 0xBAD1 ;  (1 found)
0x00014946: sub byte [edi], ch ; add al, 0x2F ; add byte [esi], cl ; xor eax, 0xD2D1CB7B ; int3  ; ret  ;  (1 found)
0x00014abe: sub byte [edi], ch ; add ebp, dword [edi] ; add byte [eax], dl ; xor esi, dword [edi] ; mov ecx, ebx ; rol edx, 1  ; retn 0x4757 ;  (1 found)
0x00014cd5: sub byte [edi], ch ; das  ; pop edi ; mov dl, 0xB6 ; retn 0xD1D2 ;  (1 found)
0x0001492d: sub byte [edi], ch ; das  ; xor byte [eax-0x36], ah ; rcl cl, cl ; rcl cl, cl ; fcomp st0, st2 ; retn 0x0DA6 ;  (1 found)
0x0001492c: sub byte [edi], ch ; das  ; xor byte [eax-0x36], ah ; rcl cl, cl ; rcl cl, cl ; fcomp st0, st2 ; retn 0x0DA6 ;  (1 found)
0x000141f5: sub byte [edi], ch ; das  ; xor dword [ecx], esi ; xor al, byte [edi-0x73357575] ; retn 0x9FC0 ;  (1 found)
0x00014cd3: sub byte [edi], ch ; sub byte [edi], ch ; das  ; pop edi ; mov dl, 0xB6 ; retn 0xD1D2 ;  (1 found)
0x0001331e: sub byte [edi], ch ; xor al, byte [eax+0x6A818280] ; mov edi, dword [ebx-0x4A] ; retn 0xC3C2 ;  (1 found)
0x000134df: sub byte [edi], ch ; xor dword [ebp+0x7E], edi ; test byte [ebx-0x48737375], al ; retn 0xC3C3 ;  (1 found)
0x000134e0: sub byte [edi], ch ; xor dword [ebp+0x7E], edi ; test byte [ebx-0x48737375], al ; retn 0xC3C3 ;  (1 found)
0x00014962: sub byte [edi], ch ; xor dword [ecx], esi ; xor byte [esi], dh ; imul ebx, esp, 0xDAD2EAEA ; retn 0x1441 ;  (1 found)
0x000156a5: sub ch, byte [ebx] ; cmp ch, byte [edi-0x58] ; test al, 0xB2 ; retn 0xD2D1 ;  (1 found)
0x000152fc: sub dword [0xA8B27763], ebp ; mov bl, 0xB7 ; retn 0xC202 ;  (1 found)
0x000152fd: sub dword [0xA8B27763], ebp ; mov bl, 0xB7 ; retn 0xC202 ;  (1 found)
0x00013324: sub dword [edx-0x75], 0xC2C2B67B ; ret  ;  (1 found)
0x00000f77: sub eax, 0x00943340 ; add esp, 0x000002CC ; pop ebx ; pop esi ; pop edi ; pop ebp ; ret  ;  (1 found)
0x0000830d: sub eax, 0x01B80000 ; add byte [eax], al ; add byte [ebx+0x5E5B7CC4], al ; pop edi ; pop ebp ; ret  ;  (1 found)
0x0001501f: sub eax, 0x05352827 ; sub byte [eax], al ; adc byte [0xDAD6B266], ch ; ret  ;  (1 found)
0x00015020: sub eax, 0x05352827 ; sub byte [eax], al ; adc byte [0xDAD6B266], ch ; ret  ;  (1 found)
0x000152fe: sub eax, 0xA8B27763 ; mov bl, 0xB7 ; retn 0xC202 ;  (1 found)
0x000152cc: sub eax, 0xB677766C ; mov bh, 0xB7 ; ret  ;  (1 found)
0x00007660: sub eax, 0xC0310A74 ; add esp, 0x0C ; pop ebx ; pop esi ; pop edi ; pop ebp ; ret  ;  (1 found)
0x00015108: sub eax, 0xD1B26E70 ; retn 0xD2B7 ;  (1 found)
0x00015109: sub eax, 0xD1B26E70 ; retn 0xD2B7 ;  (1 found)
0x00015028: sub eax, 0xDAD6B266 ; ret  ;  (1 found)
0x0000aecd: sub ecx, eax ; or dword [ecx], 0x00000000 ; mov eax, esp ; mov esp, ecx ; mov ecx, dword [eax] ; mov eax, dword [eax+0x04] ; jmp eax ;  (1 found)
0x00018c04: sub edx, esp ; add ebp, edi ; add dword [esi-0x02FF0000], edx ; call dword [esi-0x02FE694A] ;  (1 found)
0x00001196: sub esp, 0x04 ; mov eax, 0x00000001 ; add esp, 0x08 ; pop ebx ; ret  ;  (1 found)
0x00006df3: sub esp, 0x04 ; mov eax, ebx ; add esp, 0x24 ; pop ebx ; pop esi ; ret  ;  (1 found)
0x0000485e: sub esp, 0x04 ; mov ebx, dword [esp+0x00000150] ; mov esi, dword [esp+0x00000154] ; mov edi, dword [esp+0x00000158] ; add esp, 0x0000015C ; ret  ;  (1 found)
0x00004eb1: sub esp, 0x08 ; add esp, 0x0000158C ; pop ebx ; pop esi ; pop edi ; pop ebp ; ret  ;  (1 found)
0x00004e8f: sub esp, 0x08 ; add esp, 0x0000158C ; pop ebx ; pop esi ; pop edi ; pop ebp ; ret  ;  (1 found)
0x00000643: sub esp, 0x08 ; mov dword [esp], 0x00000001 ; call dword [0x0094D3DC] ;  (1 found)
0x00000663: sub esp, 0x08 ; mov dword [esp], 0x00000002 ; call dword [0x0094D3DC] ;  (1 found)
0x000006a3: sub esp, 0x08 ; mov eax, dword [ebp+0x08] ; mov dword [esp], eax ; call dword [0x0094D3F0] ;  (1 found)
0x00000683: sub esp, 0x08 ; mov eax, dword [ebp+0x08] ; mov dword [esp], eax ; call dword [0x0094D400] ;  (1 found)
0x00001937: sub esp, 0x08 ; mov eax, edi ; mov ebx, dword [esp+0x00000160] ; mov esi, dword [esp+0x00000164] ; mov edi, dword [esp+0x00000168] ; add esp, 0x0000016C ; ret  ;  (1 found)
0x0000484f: sub esp, 0x08 ; mov ecx, dword [esp+0x1C] ; mov edx, dword [ecx] ; mov dword [esp], ecx ; call dword [edx+0x08] ;  (1 found)
0x00004c78: sub esp, 0x10 ; add esp, 0x0000085C ; pop ebx ; pop esi ; pop edi ; pop ebp ; ret  ;  (1 found)
0x0000426d: sub esp, 0x10 ; add esp, 0x00000AAC ; pop ebx ; pop esi ; pop edi ; pop ebp ; ret  ;  (1 found)
0x00009d2f: sub esp, 0x10 ; add esp, 0x000043DC ; pop ebx ; pop esi ; pop edi ; pop ebp ; ret  ;  (1 found)
0x000088c8: sub esp, 0x10 ; add esp, 0x00007EEC ; pop ebx ; pop esi ; pop edi ; pop ebp ; ret  ;  (1 found)
0x0000510d: sub esp, 0x10 ; add esp, 0x1C ; pop ebx ; pop esi ; pop edi ; pop ebp ; ret  ;  (1 found)
0x000010e4: sub esp, 0x10 ; add esp, 0x24 ; pop ebx ; pop edi ; ret  ;  (1 found)
0x0000aa7e: sub esp, 0x10 ; leave  ; ret  ;  (1 found)
0x00001474: sub esp, 0x10 ; mov eax, dword [0x00474020+esi*4] ; add esp, 0x14 ; pop ebx ; pop esi ; ret  ;  (1 found)
0x00004526: sub esp, 0x10 ; mov ebx, dword [esp+0x0000008C] ; mov esi, dword [esp+0x00000090] ; mov edi, dword [esp+0x00000094] ; mov ebp, dword [esp+0x00000098] ; add esp, 0x0000009C ; retn 0x0010 ;  (1 found)
0x00005305: sub esp, 0x10 ; mov ebx, dword [esp+0x000470DC] ; mov esi, dword [esp+0x000470E0] ; mov edi, dword [esp+0x000470E4] ; mov ebp, dword [esp+0x000470E8] ; add esp, 0x000470EC ; retn 0x0010 ;  (1 found)
0x00004739: sub esp, 0x18 ; add esp, 0x44 ; pop ebx ; pop esi ; ret  ;  (1 found)
0x00013b96: test al, 0x29 ; add ebp, dword [eax-0x4A4CF700] ; mov edx, 0xE8E8E7D8 ; out 0xE8, eax ; ret  ;  (1 found)
0x00017075: test al, 0xAA ; mov ah, 0xC3 ; retn 0xD2C2 ;  (1 found)
0x00017073: test al, 0xAA ; test al, 0xAA ; mov ah, 0xC3 ; retn 0xD2C2 ;  (1 found)
0x000156aa: test al, 0xB2 ; retn 0xD2D1 ;  (1 found)
0x00006d82: test ax, ax ; setne dl ; add esp, 0x48 ; mov eax, edx ; pop ebx ; ret  ;  (1 found)
0x00001dc0: test byte [eax+eax-0x7F5F0000], dh ; salc  ; inc eax ; add byte [ecx], dh ; fstp tword [ecx] ; ret  ;  (1 found)
0x0000a558: test byte [ebp+0x000027BC], 0x00000000 ; add byte [eax+0x00000001], bh ; mov ebx, dword [esp+0x000000C0] ; mov esi, dword [esp+0x000000C4] ; mov edi, dword [esp+0x000000C8] ; add esp, 0x000000CC ; retn 0x0010 ;  (1 found)
0x000134e5: test byte [ebx-0x48737375], al ; retn 0xC3C3 ;  (1 found)
0x00012d2b: test byte [ebx], 0xFFFFFFCE ; add byte [edi], al ; int3  ; ret  ;  (1 found)
0x000061cd: test byte [ecx+0x5C89240C], 0x00000024 ; or byte [ecx-0x17F3DBBC], cl ; retn 0x0051 ;  (1 found)
0x0000adea: test dword [edi+edi*8-0x01], ebp ; jmp dword [ecx+0x0040F1BC] ;  (1 found)
0x0000a7af: test dword [edi+edi*8-0x01], ebx ; jmp dword [ecx+0x0040D6A0] ;  (1 found)
0x0000ae16: test dword [edi+edi*8-0x01], edi ; jmp dword [ecx+0x0040F1CC] ;  (1 found)
0x0000ae00: test dword [edi+edi*8-0x01], esi ; jmp dword [ecx+0x0040F1C4] ;  (1 found)
0x000136b5: test dword [edx-0x3D35767E], eax ; ret  ;  (1 found)
0x000030fd: test eax, 0x81FFFFFE ; les ebp,  [edx+eax+0x00] ; add byte [ebx+0x5E], bl ; pop edi ; pop ebp ; ret  ;  (1 found)
0x000032ad: test eax, 0x81FFFFFE ; les ebp,  [edx+eax+0x00] ; add byte [ebx+0x5E], bl ; pop edi ; pop ebp ; ret  ;  (1 found)
0x00013d6e: test eax, 0xB5B3AFAA ; ret  ;  (1 found)
0x00007fda: test eax, eax ; sete bl ; add esp, 0x08 ; mov eax, ebx ; pop ebx ; ret  ;  (1 found)
0x00006d83: test eax, eax ; setne dl ; add esp, 0x48 ; mov eax, edx ; pop ebx ; ret  ;  (1 found)
0x0001375b: wait  ; add dl, bh ; add byte [esi+edx*8], dl ; retn 0x0F38 ;  (1 found)
0x00010c6d: wait  ; ret  ;  (1 found)
0x00010c6c: wait  ; wait  ; ret  ;  (1 found)
0x0001354a: xchg byte [esi-0x25737479], al ; retn 0x3873 ;  (1 found)
0x00014378: xchg byte [esp+ecx*4-0x27323536], cl ; fcmovu st0, st1 ; retn 0x0539 ;  (1 found)
0x0001351a: xchg dword [ebx-0x73357374], ecx ; int3  ; ret  ;  (1 found)
0x0001351b: xchg dword [ebx-0x73357374], ecx ; int3  ; ret  ;  (1 found)
0x000136e6: xchg dword [ebx-0x73357374], ecx ; int3  ; ret  ;  (1 found)
0x00010c78: xchg dword [edi-0x6868FF2A], eax ; salc  ; add byte [esp-0x5454FF3D], ah ; ret  ;  (1 found)
0x00010c64: xchg dword [edi-0x6B6BFF3A], eax ; les eax,  [eax] ; wait  ; wait  ; ret  ;  (1 found)
0x00006d86: xchg eax, ebp ; retn 0xC483 ;  (1 found)
0x00008773: xchg eax, ebp ; retn 0xDB85 ;  (1 found)
0x000086f0: xchg eax, ebp ; retn 0xDB85 ;  (1 found)
0x00016c0b: xchg eax, ebp ; retn 0xE3DA ;  (1 found)
0x00009579: xchg eax, ebp ; retn 0xFB83 ;  (1 found)
0x00009428: xchg eax, ebp ; rol byte [ebx+0x0F], 0xFFFFFF94 ; ret  ;  (1 found)
0x0000253c: xchg eax, ebx ; mov al, byte [0x81004802] ; ret  ;  (1 found)
0x00002ef9: xchg eax, ebx ; mov al, byte [0x81004802] ; ret  ;  (1 found)
0x0000268b: xchg eax, ebx ; mov al, byte [0x81004802] ; ret  ;  (1 found)
0x000029bb: xchg eax, ebx ; mov al, byte [0x81004802] ; ret  ;  (1 found)
0x00001765: xchg eax, ecx ; add byte [eax], al ; add byte [ebx+0x3120245C], cl ; ror byte [ebx-0x74DBDB8C], 0x0000007C ; and al, 0x28 ; add esp, 0x2C ; retn 0x0010 ;  (1 found)
0x0000258b: xchg eax, ecx ; mov al, byte [eax] ; add byte [ecx+0x00025CC4], al ; add byte [ebx+0x5E], bl ; pop edi ; pop ebp ; ret  ;  (1 found)
0x00007fbe: xchg eax, edi ; add byte [eax], al ; add byte [ebx-0x7EEBDBB4], cl ; ret  ;  (1 found)
0x00001193: xchg eax, edi ; add byte [eax], al ; sub esp, 0x04 ; mov eax, 0x00000001 ; add esp, 0x08 ; pop ebx ; ret  ;  (1 found)
0x000152b3: xchg eax, edi ; add byte [esi], cl ; movsb  ; mov ebp, 0xC9C9C8C6 ; ret  ;  (1 found)
0x00014612: xchg eax, edi ; cwde  ; cdq  ; mov byte [0xC7C1BCB8], al ; xlatb  ; xlatb  ; ret  ;  (1 found)
0x00001c09: xchg eax, edi ; ret  ;  (1 found)
0x00009507: xchg eax, edi ; retn 0x920F ;  (1 found)
0x0000859f: xchg eax, edi ; retn 0xFF85 ;  (1 found)
0x0000952a: xchg eax, edi ; ror byte [edi], 0xFFFFFF92 ; ret  ;  (1 found)
0x00010c7d: xchg eax, edi ; salc  ; add byte [esp-0x5454FF3D], ah ; ret  ;  (1 found)
0x00010c7c: xchg eax, edi ; xchg eax, edi ; salc  ; add byte [esp-0x5454FF3D], ah ; ret  ;  (1 found)
0x0000952d: xchg eax, edx ; ret  ;  (1 found)
0x00018c09: xchg eax, esi ; add byte [eax], al ; add ebp, edi ; call dword [esi-0x02FE694A] ;  (1 found)
0x00000797: xchg eax, esi ; xor al, 0x06 ; add byte [eax], al ; add esp, 0x00000404 ; pop ebx ; pop esi ; ret  ;  (1 found)
0x00000671: xchg eax, esp ; add al, ch ; push 0x89FFFFFF ; in al, dx ; xor eax, eax ; pop ebp ; ret  ;  (1 found)
0x00014aa9: xchg eax, esp ; add bl, bl ; add dl, ch ; add byte [eax], dl ; aam 0xE6 ; fcmovu st0, st2 ; retn 0xAAC2 ;  (1 found)
0x0000453a: xchg eax, esp ; add byte [eax], al ; add byte [ebx+0x009824AC], cl ; add byte [eax], al ; add esp, 0x0000009C ; retn 0x0010 ;  (1 found)
0x00001b90: xchg eax, esp ; add byte [eax], al ; mov ebx, dword [esp+0x00000190] ; mov esi, dword [esp+0x00000194] ; mov edi, dword [esp+0x00000198] ; add esp, 0x0000019C ; ret  ;  (1 found)
0x0000ae7d: xchg eax, esp ; add byte [ebp+0x00A30843], cl ; les edx,  [eax+eax+0x5BF4658D] ; pop esi ; pop edi ; pop ebp ; ret  ;  (1 found)
0x0000ae85: xchg eax, esp ; add byte [ebp+0x5E5BF465], cl ; pop edi ; pop ebp ; ret  ;  (1 found)
0x0000ae75: xchg eax, esp ; add byte [ebp-0x1F5CFBBD], cl ; ret  ;  (1 found)
0x00009e9b: xchg eax, esp ; add byte [ebp-0x7EF08A2E], al ; les ebp,  [eax+0x0C] ; add byte [eax], al ; pop ebx ; ret  ;  (1 found)
0x00003c6d: xchg eax, esp ; add byte [ebp-0x7EF48B40], al ; les ebp,  [edx+ecx+0x5E5B0000] ; pop edi ; pop ebp ; ret  ;  (1 found)
0x00009ff1: xchg eax, esp ; add byte [ebx+0x01B814C4], al ; add byte [eax], al ; add byte [ebx+0x5E], bl ; ret  ;  (1 found)
0x00001aa9: xchg eax, esp ; add byte [ebx+0x5E], bl ; pop edi ; pop ebp ; ret  ;  (1 found)
0x00000f7a: xchg eax, esp ; add byte [ecx+0x0002CCC4], al ; add byte [ebx+0x5E], bl ; pop edi ; pop ebp ; ret  ;  (1 found)
0x0000804e: xchg eax, esp ; add byte [ecx+0x0FCF39F8], cl ; popfd  ; retn 0xE8C1 ;  (1 found)
0x00005597: xchg eax, esp ; add byte [ecx], ch ; ret  ;  (1 found)
0x0000a114: xchg eax, esp ; add byte [edi+0x31], dl ; call dword [esi+0x31] ;  (1 found)
0x00005c7e: xchg eax, esp ; add byte [edi], cl ; pushfd  ; retn 0xFE83 ;  (1 found)
0x00001148: xchg eax, esp ; add byte [esp+0x58], bh ; pop ebx ; pop esi ; ret  ;  (1 found)
0x00001b9d: xchg eax, esp ; add dword [eax], eax ; add byte [ebx+0x019824BC], cl ; add byte [eax], al ; add esp, 0x0000019C ; ret  ;  (1 found)
0x000029a9: xchg eax, esp ; and al, 0x90 ; add al, byte [eax] ; add byte [ecx-0x74EBDBAC], cl ; and dword [edx+eax-0x74B9FFB8], 0xFFFFFF93 ; mov al, byte [0x81004802] ; ret  ;  (1 found)
0x00010c69: xchg eax, esp ; les eax,  [eax] ; wait  ; wait  ; ret  ;  (1 found)
0x0000b492: xchg eax, esp ; rcl dword [eax+eax+0x00009090], cl ; add byte [eax], al ; add byte [eax], al ; add byte [eax], al ; jmp dword [0x0094D37C] ;  (1 found)
0x0000502c: xchg eax, esp ; ret  ;  (1 found)
0x00007fdd: xchg eax, esp ; ret  ;  (1 found)
0x0000942c: xchg eax, esp ; ret  ;  (1 found)
0x000093da: xchg eax, esp ; retn 0x463D ;  (1 found)
0x000078a2: xchg eax, esp ; retn 0x7C81 ;  (1 found)
0x0000509c: xchg eax, esp ; retn 0x8B8D ;  (1 found)
0x00018149: xchg eax, esp ; sbb dword [esi], ecx ; pop es ; ret  ;  (1 found)
0x00010c68: xchg eax, esp ; xchg eax, esp ; les eax,  [eax] ; wait  ; wait  ; ret  ;  (1 found)
0x00010c65: xchg esi, eax ; add byte [esp+edx*4-0x6464FF3C], dl ; ret  ;  (1 found)
0x00010c79: xchg esi, edx ; add byte [edi-0x5BFF2969], dl ; movsb  ; ret  ;  (1 found)
0x0001375d: xlatb  ; add byte [esi+edx*8], dl ; retn 0x0F38 ;  (1 found)
0x0000ad86: xlatb  ; inc eax ; add byte [ecx+0x158B1853], cl ; add al, 0xD7 ; inc eax ; add byte [ecx-0x2F5EE3BD], cl ; ret  ;  (1 found)
0x0000ad8f: xlatb  ; inc eax ; add byte [ecx-0x2F5EE3BD], cl ; ret  ;  (1 found)
0x00013d4b: xlatb  ; ret  ;  (1 found)
0x0001461b: xlatb  ; ret  ;  (1 found)
0x000155c7: xlatb  ; ret  ;  (1 found)
0x00016e8f: xlatb  ; retn 0x39A8 ;  (1 found)
0x0001550b: xlatb  ; rol ecx, 0xFFFFFFC5 ; retn 0x385B ;  (1 found)
0x0001375a: xlatb  ; wait  ; add dl, bh ; add byte [esi+edx*8], dl ; retn 0x0F38 ;  (1 found)
0x0001461a: xlatb  ; xlatb  ; ret  ;  (1 found)
0x00000c0e: xor al, 0x01 ; add byte [eax], al ; pop ebx ; pop esi ; ret  ;  (1 found)
0x0000a2a0: xor al, 0x02 ; add byte [eax], al ; mov ebp, dword [esp+0x00000238] ; add esp, 0x0000023C ; retn 0x0010 ;  (1 found)
0x0000a2f1: xor al, 0x02 ; add byte [eax], al ; mov ebp, dword [esp+0x00000238] ; add esp, 0x0000023C ; retn 0x0010 ;  (1 found)
0x00000798: xor al, 0x06 ; add byte [eax], al ; add esp, 0x00000404 ; pop ebx ; pop esi ; ret  ;  (1 found)
0x00000715: xor al, 0x06 ; add byte [eax], al ; mov ebx, dword [esp+0x14] ; mov esi, dword [esp+0x18] ; add esp, 0x1C ; ret  ;  (1 found)
0x0000907f: xor al, 0x24 ; add byte [eax], al ; mov ebp, dword [esp+0x00002438] ; add esp, 0x0000243C ; ret  ;  (1 found)
0x00000920: xor al, 0x39 ; int 0x0F ; pushfd  ; retn 0xF883 ;  (1 found)
0x00014ea3: xor al, 0x7B ; mov dh, 0xB7 ; retn 0xBAD1 ;  (1 found)
0x00014b10: xor al, 0x7B ; mov dh, 0xD1 ; ror ah, cl ; retn 0xABBF ;  (1 found)
0x00013320: xor al, byte [eax+0x6A818280] ; mov edi, dword [ebx-0x4A] ; retn 0xC3C2 ;  (1 found)
0x000141fa: xor al, byte [edi-0x73357575] ; retn 0x9FC0 ;  (1 found)
0x0001b649: xor ax, word [eax] ; jmp dword [esi+0x66] ;  (1 found)
0x0001bf71: xor ax, word [eax] ; jmp dword [esi+0x66] ;  (1 found)
0x0001c899: xor ax, word [eax] ; jmp dword [esi+0x66] ;  (1 found)
0x00009078: xor byte [eax+eax], ah ; add byte [ebx+0x243424BC], cl ; add byte [eax], al ; mov ebp, dword [esp+0x00002438] ; add esp, 0x0000243C ; ret  ;  (1 found)
0x00014930: xor byte [eax-0x36], ah ; rcl cl, cl ; rcl cl, cl ; fcomp st0, st2 ; retn 0x0DA6 ;  (1 found)
0x00005027: xor byte [ebx-0x6BF00003], al ; ret  ;  (1 found)
0x000078c6: xor byte [ebx-0x7ECFDBBC], cl ; les ebx,  [esp+eax+0x00] ; add byte [ebx+0x5E], bl ; pop edi ; pop ebp ; ret  ;  (1 found)
0x00007aaf: xor byte [ebx-0x7ECFDBBC], cl ; les ebx,  [esp+eax+0x00] ; add byte [ebx+0x5E], bl ; pop edi ; pop ebp ; ret  ;  (1 found)
0x000078ca: xor byte [ecx+0x00045CC4], al ; add byte [ebx+0x5E], bl ; pop edi ; pop ebp ; ret  ;  (1 found)
0x00007ab3: xor byte [ecx+0x00045CC4], al ; add byte [ebx+0x5E], bl ; pop edi ; pop ebp ; ret  ;  (1 found)
0x0000a299: xor byte [edx], al ; add byte [eax], al ; mov edi, dword [esp+0x00000234] ; mov ebp, dword [esp+0x00000238] ; add esp, 0x0000023C ; retn 0x0010 ;  (1 found)
0x0000a2ea: xor byte [edx], al ; add byte [eax], al ; mov edi, dword [esp+0x00000234] ; mov ebp, dword [esp+0x00000238] ; add esp, 0x0000023C ; retn 0x0010 ;  (1 found)
0x0000070f: xor byte [esi], al ; add byte [eax], al ; adc dword [esi+0x00000634], ecx ; mov ebx, dword [esp+0x14] ; mov esi, dword [esp+0x18] ; add esp, 0x1C ; ret  ;  (1 found)
0x00000792: xor byte [esi], al ; add byte [eax], al ; adc dword [esi+0x00000634], edx ; add esp, 0x00000404 ; pop ebx ; pop esi ; ret  ;  (1 found)
0x00014966: xor byte [esi], dh ; imul ebx, esp, 0xDAD2EAEA ; retn 0x1441 ;  (1 found)
0x00007fd7: xor dword [eax], eax ; add byte [ebp-0x3C6BF040], al ; add esp, 0x08 ; mov eax, ebx ; pop ebx ; ret  ;  (1 found)
0x00007e9d: xor dword [eax], eax ; add byte [ecx+0x69F989C6], cl ; fst qword [edi-0x7F000000] ; ret  ;  (1 found)
0x00014965: xor dword [eax], esi ; imul ebx, esp, 0xDAD2EAEA ; retn 0x1441 ;  (1 found)
0x000134e2: xor dword [ebp+0x7E], edi ; test byte [ebx-0x48737375], al ; retn 0xC3C3 ;  (1 found)
0x000141f8: xor dword [ecx], esi ; xor al, byte [edi-0x73357575] ; retn 0x9FC0 ;  (1 found)
0x00014964: xor dword [ecx], esi ; xor byte [esi], dh ; imul ebx, esp, 0xDAD2EAEA ; retn 0x1441 ;  (1 found)
0x00013548: xor dword [edi], 0x8B878686 ; mov dx, ds ; retn 0x3873 ;  (1 found)
0x000136b1: xor dword [esi+edi*2+0x7E], edi ; test dword [edx-0x3D35767E], eax ; ret  ;  (1 found)
0x00001507: xor eax, 0x0040D010 ; mov eax, dword [0x00474020+esi*4] ; add esp, 0x14 ; pop ebx ; pop esi ; ret  ;  (1 found)
0x00001501: xor eax, 0x0040D010 ; mov esi, dword [0x0040D010] ; mov eax, dword [0x00474020+esi*4] ; add esp, 0x14 ; pop ebx ; pop esi ; ret  ;  (1 found)
0x0000146f: xor eax, 0x0040D010 ; sub esp, 0x10 ; mov eax, dword [0x00474020+esi*4] ; add esp, 0x14 ; pop ebx ; pop esi ; ret  ;  (1 found)
0x00015023: xor eax, 0x10002805 ; sub eax, 0xDAD6B266 ; ret  ;  (1 found)
0x0000aa77: xor eax, 0x8BFFFF67 ; pop ebp ; cld  ; sub esp, 0x10 ; leave  ; ret  ;  (1 found)
0x00007890: xor eax, 0x8DFFFFFF ; mov dh, 0x00 ; add byte [eax], al ; add byte [ebp+0x000000BF], cl ; add byte [esi+0x0F], cl ; xchg eax, esp ; retn 0x7C81 ;  (1 found)
0x0000a390: xor eax, 0xB02D8B04 ; ret  ;  (1 found)
0x0001494c: xor eax, 0xD2D1CB7B ; int3  ; ret  ;  (1 found)
0x0001a629: xor eax, dword [eax] ; add byte [edi], bl ; cmp al, byte [eax] ; add byte [0x1B0000FF], ah ; retn 0x0000 ;  (1 found)
0x0001b572: xor eax, dword [eax] ; cdq  ; jmp dword [esi+0x00] ;  (1 found)
0x0001be9a: xor eax, dword [eax] ; cdq  ; jmp dword [esi+0x00] ;  (1 found)
0x0001c7c2: xor eax, dword [eax] ; cdq  ; jmp dword [esi+0x00] ;  (1 found)
0x0001b602: xor eax, dword [eax] ; int3  ; jmp dword [esi+0x00] ;  (1 found)
0x0001b64a: xor eax, dword [eax] ; jmp dword [esi+0x66] ;  (1 found)
0x0001bf72: xor eax, dword [eax] ; jmp dword [esi+0x66] ;  (1 found)
0x0001c89a: xor eax, dword [eax] ; jmp dword [esi+0x66] ;  (1 found)
0x0001b4e2: xor eax, dword [eax] ; jmp word [esi+0x00] ;  (1 found)
0x0001be0a: xor eax, dword [eax] ; jmp word [esi+0x00] ;  (1 found)
0x0001c732: xor eax, dword [eax] ; jmp word [esi+0x00] ;  (1 found)
0x00007663: xor eax, eax ; add esp, 0x0C ; pop ebx ; pop esi ; pop edi ; pop ebp ; ret  ;  (1 found)
0x0000a525: xor eax, eax ; mov esi, dword [esp+0x000000C4] ; mov edi, dword [esp+0x000000C8] ; add esp, 0x000000CC ; retn 0x0010 ;  (1 found)
0x0000a294: xor eax, eax ; mov esi, dword [esp+0x00000230] ; mov edi, dword [esp+0x00000234] ; mov ebp, dword [esp+0x00000238] ; add esp, 0x0000023C ; retn 0x0010 ;  (1 found)
0x0000176d: xor eax, eax ; mov esi, dword [esp+0x24] ; mov edi, dword [esp+0x28] ; add esp, 0x2C ; retn 0x0010 ;  (1 found)
0x0000a665: xor eax, eax ; mov esi, dword [esp+0x24] ; mov edi, dword [esp+0x28] ; add esp, 0x2C ; retn 0x0010 ;  (1 found)
0x0000065a: xor eax, eax ; pop ebp ; ret  ;  (1 found)
0x0000067a: xor eax, eax ; pop ebp ; ret  ;  (1 found)
0x00008eda: xor eax, eax ; pop ebx ; pop esi ; pop edi ; pop ebp ; ret  ;  (1 found)
0x00009313: xor eax, eax ; pop ebx ; pop esi ; pop edi ; pop ebp ; ret  ;  (1 found)
0x0000a218: xor eax, eax ; pop ebx ; pop esi ; pop edi ; pop ebp ; ret  ;  (1 found)
0x0000a001: xor eax, eax ; pop ebx ; pop esi ; ret  ;  (1 found)
0x00006bd1: xor eax, eax ; pop ebx ; retn 0x0010 ;  (1 found)
0x0001b639: xor ebx, dword [ecx-0x33CC0100] ; add bh, bh ; xor edi, edi ; add bh, bh ; add byte [eax], al ; jmp dword [esi+0x33] ;  (1 found)
0x0001bf61: xor ebx, dword [ecx-0x33CC0100] ; add bh, bh ; xor edi, edi ; add bh, bh ; add byte [eax], al ; jmp dword [esi+0x33] ;  (1 found)
0x0001c889: xor ebx, dword [ecx-0x33CC0100] ; add bh, bh ; xor edi, edi ; add bh, bh ; add byte [eax], al ; jmp dword [esi+0x33] ;  (1 found)
0x0001bd7a: xor ecx, dword [edx+0x33] ; jmp dword [esi+0x01] ;  (1 found)
0x0000966a: xor ecx, ecx ; mov eax, ecx ; pop ebx ; pop esi ; pop edi ; pop ebp ; ret  ;  (1 found)
0x0001b63d: xor ecx, esp ; add bh, bh ; xor edi, edi ; add bh, bh ; add byte [eax], al ; jmp dword [esi+0x33] ;  (1 found)
0x0001bf65: xor ecx, esp ; add bh, bh ; xor edi, edi ; add bh, bh ; add byte [eax], al ; jmp dword [esi+0x33] ;  (1 found)
0x0001c88d: xor ecx, esp ; add bh, bh ; xor edi, edi ; add bh, bh ; add byte [eax], al ; jmp dword [esi+0x33] ;  (1 found)
0x0001b448: xor ecx, esp ; inc dword [eax] ; xor edi, edi ; add byte [edi+0x33], dh ; push dword [ebx] ; fsave  [ebx] ; jmp dword [esi+0x01] ;  (1 found)
0x0001b641: xor edi, edi ; add bh, bh ; add byte [eax], al ; jmp dword [esi+0x33] ;  (1 found)
0x0001bf69: xor edi, edi ; add bh, bh ; add byte [eax], al ; jmp dword [esi+0x33] ;  (1 found)
0x0001c891: xor edi, edi ; add bh, bh ; add byte [eax], al ; jmp dword [esi+0x33] ;  (1 found)
0x0001b44c: xor edi, edi ; add byte [edi+0x33], dh ; push dword [ebx] ; fsave  [ebx] ; jmp dword [esi+0x01] ;  (1 found)
0x0000195e: xor edi, edi ; mov eax, edi ; mov ebx, dword [esp+0x00000160] ; mov esi, dword [esp+0x00000164] ; mov edi, dword [esp+0x00000168] ; add esp, 0x0000016C ; ret  ;  (1 found)
0x0001bd78: xor edi, edi ; xor ecx, dword [edx+0x33] ; jmp dword [esi+0x01] ;  (1 found)
0x00000f79: xor edx, dword [eax+eax+0x02CCC481] ; add byte [eax], al ; pop ebx ; pop esi ; pop edi ; pop ebp ; ret  ;  (1 found)
0x00003c6c: xor edx, dword [eax+eax+0x0B74C085] ; add esp, 0x00000AAC ; pop ebx ; pop esi ; pop edi ; pop ebp ; ret  ;  (1 found)
0x00001147: xor edx, dword [eax+eax+0x5B58E47C] ; pop esi ; ret  ;  (1 found)
0x00006d80: xor edx, edx ; test ax, ax ; setne dl ; add esp, 0x48 ; mov eax, edx ; pop ebx ; ret  ;  (1 found)
0x0001b3c2: xor esi, dword [edi+0x00] ; jmp dword [esi+0x00] ;  (1 found)
0x0001bcea: xor esi, dword [edi+0x00] ; jmp dword [esi+0x00] ;  (1 found)
0x0001c612: xor esi, dword [edi+0x00] ; jmp dword [esi+0x00] ;  (1 found)
0x0001bf2a: xor esi, dword [edi-0x34] ; jmp dword [esi+0x00] ;  (1 found)
0x0001c852: xor esi, dword [edi-0x34] ; jmp dword [esi+0x00] ;  (1 found)
0x00014ac4: xor esi, dword [edi] ; mov ecx, ebx ; rol edx, 1  ; retn 0x4757 ;  (1 found)
0x00014d70: xor esp, dword [edi+0x79] ; int3  ; rcl cl, cl ; retn 0xDAD6 ;  (1 found)
0x00005109: xor esp, dword [edx+0x00] ; add byte [ebx-0x3B7CEF14], al ; sbb al, 0x5B ; pop esi ; pop edi ; pop ebp ; ret  ;  (1 found)
